1     0000              MODULE game_sprite_c
2     0000              
3     0000              ;--------------------------------------------------------
4     0000              ; File Created by SDCC : free open source ANSI-C Compiler
5     0000              ; Version 3.6.5 #9958 (Mac OS X i386)
6     0000              ;--------------------------------------------------------
7     0000              ; Processed by Z88DK
8     0000              ;--------------------------------------------------------
9     0000              
10    0000              	EXTERN __divschar
11    0000              	EXTERN __divschar_callee
12    0000              	EXTERN __divsint
13    0000              	EXTERN __divsint_callee
14    0000              	EXTERN __divslong
15    0000              	EXTERN __divslong_callee
16    0000              	EXTERN __divslonglong
17    0000              	EXTERN __divslonglong_callee
18    0000              	EXTERN __divsuchar
19    0000              	EXTERN __divsuchar_callee
20    0000              	EXTERN __divuchar
21    0000              	EXTERN __divuchar_callee
22    0000              	EXTERN __divuint
23    0000              	EXTERN __divuint_callee
24    0000              	EXTERN __divulong
25    0000              	EXTERN __divulong_callee
26    0000              	EXTERN __divulonglong
27    0000              	EXTERN __divulonglong_callee
28    0000              	EXTERN __divuschar
29    0000              	EXTERN __divuschar_callee
30    0000              	EXTERN __modschar
31    0000              	EXTERN __modschar_callee
32    0000              	EXTERN __modsint
33    0000              	EXTERN __modsint_callee
34    0000              	EXTERN __modslong
35    0000              	EXTERN __modslong_callee
36    0000              	EXTERN __modslonglong
37    0000              	EXTERN __modslonglong_callee
38    0000              	EXTERN __modsuchar
39    0000              	EXTERN __modsuchar_callee
40    0000              	EXTERN __moduchar
41    0000              	EXTERN __moduchar_callee
42    0000              	EXTERN __moduint
43    0000              	EXTERN __moduint_callee
44    0000              	EXTERN __modulong
45    0000              	EXTERN __modulong_callee
46    0000              	EXTERN __modulonglong
47    0000              	EXTERN __modulonglong_callee
48    0000              	EXTERN __moduschar
49    0000              	EXTERN __moduschar_callee
50    0000              	EXTERN __mulint
51    0000              	EXTERN __mulint_callee
52    0000              	EXTERN __mullong
53    0000              	EXTERN __mullong_callee
54    0000              	EXTERN __mullonglong
55    0000              	EXTERN __mullonglong_callee
56    0000              	EXTERN __mulschar
57    0000              	EXTERN __mulschar_callee
58    0000              	EXTERN __mulsuchar
59    0000              	EXTERN __mulsuchar_callee
60    0000              	EXTERN __muluschar
61    0000              	EXTERN __muluschar_callee
62    0000              	EXTERN __rlslonglong
63    0000              	EXTERN __rlslonglong_callee
64    0000              	EXTERN __rlulonglong
65    0000              	EXTERN __rlulonglong_callee
66    0000              	EXTERN __rrslonglong
67    0000              	EXTERN __rrslonglong_callee
68    0000              	EXTERN __rrulonglong
69    0000              	EXTERN __rrulonglong_callee
70    0000              	EXTERN ___sdcc_call_hl
71    0000              	EXTERN ___sdcc_call_iy
72    0000              	EXTERN ___sdcc_enter_ix
73    0000              	EXTERN _banked_call
74    0000              	EXTERN _banked_ret
75    0000              	EXTERN ___fs2schar
76    0000              	EXTERN ___fs2schar_callee
77    0000              	EXTERN ___fs2sint
78    0000              	EXTERN ___fs2sint_callee
79    0000              	EXTERN ___fs2slong
80    0000              	EXTERN ___fs2slong_callee
81    0000              	EXTERN ___fs2slonglong
82    0000              	EXTERN ___fs2slonglong_callee
83    0000              	EXTERN ___fs2uchar
84    0000              	EXTERN ___fs2uchar_callee
85    0000              	EXTERN ___fs2uint
86    0000              	EXTERN ___fs2uint_callee
87    0000              	EXTERN ___fs2ulong
88    0000              	EXTERN ___fs2ulong_callee
89    0000              	EXTERN ___fs2ulonglong
90    0000              	EXTERN ___fs2ulonglong_callee
91    0000              	EXTERN ___fsadd
92    0000              	EXTERN ___fsadd_callee
93    0000              	EXTERN ___fsdiv
94    0000              	EXTERN ___fsdiv_callee
95    0000              	EXTERN ___fseq
96    0000              	EXTERN ___fseq_callee
97    0000              	EXTERN ___fsgt
98    0000              	EXTERN ___fsgt_callee
99    0000              	EXTERN ___fslt
100   0000              	EXTERN ___fslt_callee
101   0000              	EXTERN ___fsmul
102   0000              	EXTERN ___fsmul_callee
103   0000              	EXTERN ___fsneq
104   0000              	EXTERN ___fsneq_callee
105   0000              	EXTERN ___fssub
106   0000              	EXTERN ___fssub_callee
107   0000              	EXTERN ___schar2fs
108   0000              	EXTERN ___schar2fs_callee
109   0000              	EXTERN ___sint2fs
110   0000              	EXTERN ___sint2fs_callee
111   0000              	EXTERN ___slong2fs
112   0000              	EXTERN ___slong2fs_callee
113   0000              	EXTERN ___slonglong2fs
114   0000              	EXTERN ___slonglong2fs_callee
115   0000              	EXTERN ___uchar2fs
116   0000              	EXTERN ___uchar2fs_callee
117   0000              	EXTERN ___uint2fs
118   0000              	EXTERN ___uint2fs_callee
119   0000              	EXTERN ___ulong2fs
120   0000              	EXTERN ___ulong2fs_callee
121   0000              	EXTERN ___ulonglong2fs
122   0000              	EXTERN ___ulonglong2fs_callee
123   0000              	EXTERN ____sdcc_2_copy_src_mhl_dst_deix
124   0000              	EXTERN ____sdcc_2_copy_src_mhl_dst_bcix
125   0000              	EXTERN ____sdcc_4_copy_src_mhl_dst_deix
126   0000              	EXTERN ____sdcc_4_copy_src_mhl_dst_bcix
127   0000              	EXTERN ____sdcc_4_copy_src_mhl_dst_mbc
128   0000              	EXTERN ____sdcc_4_ldi_nosave_bc
129   0000              	EXTERN ____sdcc_4_ldi_save_bc
130   0000              	EXTERN ____sdcc_4_push_hlix
131   0000              	EXTERN ____sdcc_4_push_mhl
132   0000              	EXTERN ____sdcc_lib_setmem_hl
133   0000              	EXTERN ____sdcc_ll_add_de_bc_hl
134   0000              	EXTERN ____sdcc_ll_add_de_bc_hlix
135   0000              	EXTERN ____sdcc_ll_add_de_hlix_bc
136   0000              	EXTERN ____sdcc_ll_add_de_hlix_bcix
137   0000              	EXTERN ____sdcc_ll_add_deix_bc_hl
138   0000              	EXTERN ____sdcc_ll_add_deix_hlix
139   0000              	EXTERN ____sdcc_ll_add_hlix_bc_deix
140   0000              	EXTERN ____sdcc_ll_add_hlix_deix_bc
141   0000              	EXTERN ____sdcc_ll_add_hlix_deix_bcix
142   0000              	EXTERN ____sdcc_ll_asr_hlix_a
143   0000              	EXTERN ____sdcc_ll_asr_mbc_a
144   0000              	EXTERN ____sdcc_ll_copy_src_de_dst_hlix
145   0000              	EXTERN ____sdcc_ll_copy_src_de_dst_hlsp
146   0000              	EXTERN ____sdcc_ll_copy_src_deix_dst_hl
147   0000              	EXTERN ____sdcc_ll_copy_src_deix_dst_hlix
148   0000              	EXTERN ____sdcc_ll_copy_src_deixm_dst_hlsp
149   0000              	EXTERN ____sdcc_ll_copy_src_desp_dst_hlsp
150   0000              	EXTERN ____sdcc_ll_copy_src_hl_dst_de
151   0000              	EXTERN ____sdcc_ll_copy_src_hlsp_dst_de
152   0000              	EXTERN ____sdcc_ll_copy_src_hlsp_dst_deixm
153   0000              	EXTERN ____sdcc_ll_lsl_hlix_a
154   0000              	EXTERN ____sdcc_ll_lsl_mbc_a
155   0000              	EXTERN ____sdcc_ll_lsr_hlix_a
156   0000              	EXTERN ____sdcc_ll_lsr_mbc_a
157   0000              	EXTERN ____sdcc_ll_push_hlix
158   0000              	EXTERN ____sdcc_ll_push_mhl
159   0000              	EXTERN ____sdcc_ll_sub_de_bc_hl
160   0000              	EXTERN ____sdcc_ll_sub_de_bc_hlix
161   0000              	EXTERN ____sdcc_ll_sub_de_hlix_bc
162   0000              	EXTERN ____sdcc_ll_sub_de_hlix_bcix
163   0000              	EXTERN ____sdcc_ll_sub_deix_bc_hl
164   0000              	EXTERN ____sdcc_ll_sub_deix_hlix
165   0000              	EXTERN ____sdcc_ll_sub_hlix_bc_deix
166   0000              	EXTERN ____sdcc_ll_sub_hlix_deix_bc
167   0000              	EXTERN ____sdcc_ll_sub_hlix_deix_bcix
168   0000              	EXTERN ____sdcc_load_debc_deix
169   0000              	EXTERN ____sdcc_load_dehl_deix
170   0000              	EXTERN ____sdcc_load_debc_mhl
171   0000              	EXTERN ____sdcc_load_hlde_mhl
172   0000              	EXTERN ____sdcc_store_dehl_bcix
173   0000              	EXTERN ____sdcc_store_debc_hlix
174   0000              	EXTERN ____sdcc_store_debc_mhl
175   0000              	EXTERN ____sdcc_cpu_pop_ei
176   0000              	EXTERN ____sdcc_cpu_pop_ei_jp
177   0000              	EXTERN ____sdcc_cpu_push_di
178   0000              	EXTERN ____sdcc_outi
179   0000              	EXTERN ____sdcc_outi_128
180   0000              	EXTERN ____sdcc_outi_256
181   0000              	EXTERN ____sdcc_ldi
182   0000              	EXTERN ____sdcc_ldi_128
183   0000              	EXTERN ____sdcc_ldi_256
184   0000              
185   0000              ;--------------------------------------------------------
186   0000              ; Public variables in this module
187   0000              ;--------------------------------------------------------
188   0000              	GLOBAL _spr_calc_index
189   0000              	GLOBAL _spr_chktime
190   0000              	GLOBAL _spr_move_up
191   0000              	GLOBAL _spr_move_down
192   0000              	GLOBAL _spr_move_horizontal
193   0000              	GLOBAL _spr_move_right
194   0000              	GLOBAL _spr_move_left
195   0000              	GLOBAL _spr_page_right
196   0000              	GLOBAL _spr_page_left
197   0000              	GLOBAL _spr_page_map
198   0000              	GLOBAL _spr_redraw
199   0000              	GLOBAL _spr_destroy
200   0000              	GLOBAL _spr_tile
201   0000              	GLOBAL _spr_tile_dir
202   0000              	GLOBAL _spr_draw_clear
203   0000              	GLOBAL _spr_brick_anim
204   0000              	GLOBAL _spr_draw_index
205   0000              	GLOBAL _spr_draw_row
206   0000              	GLOBAL _spr_calc_hor
207   0000              	GLOBAL _spr_back_repaint
208   0000              	GLOBAL _spr_tile_paint
209   0000              	GLOBAL _spr_init_anim_bullets
210   0000              	GLOBAL _spr_add_anim
211   0000              	GLOBAL _spr_play_anim
212   0000              	GLOBAL _spr_play_bullets
213   0000              	GLOBAL _spr_turn_horizontal
214   0000              ;--------------------------------------------------------
215   0000              ; Externals used
216   0000              ;--------------------------------------------------------
217   0000              	GLOBAL _ulltoa_callee
218   0000              	GLOBAL _ulltoa
219   0000              	GLOBAL _strtoull_callee
220   0000              	GLOBAL _strtoull
221   0000              	GLOBAL _strtoll_callee
222   0000              	GLOBAL _strtoll
223   0000              	GLOBAL _lltoa_callee
224   0000              	GLOBAL _lltoa
225   0000              	GLOBAL _llabs_callee
226   0000              	GLOBAL _llabs
227   0000              	GLOBAL __lldivu__callee
228   0000              	GLOBAL __lldivu_
229   0000              	GLOBAL __lldiv__callee
230   0000              	GLOBAL __lldiv_
231   0000              	GLOBAL _atoll_callee
232   0000              	GLOBAL _atoll
233   0000              	GLOBAL _realloc_unlocked_callee
234   0000              	GLOBAL _realloc_unlocked
235   0000              	GLOBAL _malloc_unlocked_fastcall
236   0000              	GLOBAL _malloc_unlocked
237   0000              	GLOBAL _free_unlocked_fastcall
238   0000              	GLOBAL _free_unlocked
239   0000              	GLOBAL _calloc_unlocked_callee
240   0000              	GLOBAL _calloc_unlocked
241   0000              	GLOBAL _aligned_alloc_unlocked_callee
242   0000              	GLOBAL _aligned_alloc_unlocked
243   0000              	GLOBAL _realloc_callee
244   0000              	GLOBAL _realloc
245   0000              	GLOBAL _malloc_fastcall
246   0000              	GLOBAL _malloc
247   0000              	GLOBAL _free_fastcall
248   0000              	GLOBAL _free
249   0000              	GLOBAL _calloc_callee
250   0000              	GLOBAL _calloc
251   0000              	GLOBAL _aligned_alloc_callee
252   0000              	GLOBAL _aligned_alloc
253   0000              	GLOBAL _utoa_callee
254   0000              	GLOBAL _utoa
255   0000              	GLOBAL _ultoa_callee
256   0000              	GLOBAL _ultoa
257   0000              	GLOBAL _system_fastcall
258   0000              	GLOBAL _system
259   0000              	GLOBAL _strtoul_callee
260   0000              	GLOBAL _strtoul
261   0000              	GLOBAL _strtol_callee
262   0000              	GLOBAL _strtol
263   0000              	GLOBAL _strtof_callee
264   0000              	GLOBAL _strtof
265   0000              	GLOBAL _strtod_callee
266   0000              	GLOBAL _strtod
267   0000              	GLOBAL _srand_fastcall
268   0000              	GLOBAL _srand
269   0000              	GLOBAL _rand
270   0000              	GLOBAL _quick_exit_fastcall
271   0000              	GLOBAL _quick_exit
272   0000              	GLOBAL _qsort_callee
273   0000              	GLOBAL _qsort
274   0000              	GLOBAL _ltoa_callee
275   0000              	GLOBAL _ltoa
276   0000              	GLOBAL _labs_fastcall
277   0000              	GLOBAL _labs
278   0000              	GLOBAL _itoa_callee
279   0000              	GLOBAL _itoa
280   0000              	GLOBAL _ftoh_callee
281   0000              	GLOBAL _ftoh
282   0000              	GLOBAL _ftog_callee
283   0000              	GLOBAL _ftog
284   0000              	GLOBAL _ftoe_callee
285   0000              	GLOBAL _ftoe
286   0000              	GLOBAL _ftoa_callee
287   0000              	GLOBAL _ftoa
288   0000              	GLOBAL _exit_fastcall
289   0000              	GLOBAL _exit
290   0000              	GLOBAL _dtoh_callee
291   0000              	GLOBAL _dtoh
292   0000              	GLOBAL _dtog_callee
293   0000              	GLOBAL _dtog
294   0000              	GLOBAL _dtoe_callee
295   0000              	GLOBAL _dtoe
296   0000              	GLOBAL _dtoa_callee
297   0000              	GLOBAL _dtoa
298   0000              	GLOBAL _bsearch_callee
299   0000              	GLOBAL _bsearch
300   0000              	GLOBAL _atol_fastcall
301   0000              	GLOBAL _atol
302   0000              	GLOBAL _atoi_fastcall
303   0000              	GLOBAL _atoi
304   0000              	GLOBAL _atof_fastcall
305   0000              	GLOBAL _atof
306   0000              	GLOBAL _atexit_fastcall
307   0000              	GLOBAL _atexit
308   0000              	GLOBAL _at_quick_exit_fastcall
309   0000              	GLOBAL _at_quick_exit
310   0000              	GLOBAL _abs_fastcall
311   0000              	GLOBAL _abs
312   0000              	GLOBAL _abort
313   0000              	GLOBAL __strtou__callee
314   0000              	GLOBAL __strtou_
315   0000              	GLOBAL __strtoi__callee
316   0000              	GLOBAL __strtoi_
317   0000              	GLOBAL __random_uniform_xor_8__fastcall
318   0000              	GLOBAL __random_uniform_xor_8_
319   0000              	GLOBAL __random_uniform_xor_32__fastcall
320   0000              	GLOBAL __random_uniform_xor_32_
321   0000              	GLOBAL __random_uniform_cmwc_8__fastcall
322   0000              	GLOBAL __random_uniform_cmwc_8_
323   0000              	GLOBAL __shellsort__callee
324   0000              	GLOBAL __shellsort_
325   0000              	GLOBAL __quicksort__callee
326   0000              	GLOBAL __quicksort_
327   0000              	GLOBAL __insertion_sort__callee
328   0000              	GLOBAL __insertion_sort_
329   0000              	GLOBAL __ldivu__callee
330   0000              	GLOBAL __ldivu_
331   0000              	GLOBAL __ldiv__callee
332   0000              	GLOBAL __ldiv_
333   0000              	GLOBAL __divu__callee
334   0000              	GLOBAL __divu_
335   0000              	GLOBAL __div__callee
336   0000              	GLOBAL __div_
337   0000              	GLOBAL _NIRVANAP_drawTW_raw_callee
338   0000              	GLOBAL _NIRVANAP_drawTW_raw
339   0000              	GLOBAL _NIRVANAP_drawTW_callee
340   0000              	GLOBAL _NIRVANAP_drawTW
341   0000              	GLOBAL _NIRVANAP_drawW_raw_callee
342   0000              	GLOBAL _NIRVANAP_drawW_raw
343   0000              	GLOBAL _NIRVANAP_drawW_callee
344   0000              	GLOBAL _NIRVANAP_drawW
345   0000              	GLOBAL _NIRVANAP_spriteT_callee
346   0000              	GLOBAL _NIRVANAP_spriteT
347   0000              	GLOBAL _NIRVANAP_fillC_callee
348   0000              	GLOBAL _NIRVANAP_fillC
349   0000              	GLOBAL _NIRVANAP_readC_callee
350   0000              	GLOBAL _NIRVANAP_readC
351   0000              	GLOBAL _NIRVANAP_paintC_callee
352   0000              	GLOBAL _NIRVANAP_paintC
353   0000              	GLOBAL _NIRVANAP_printC_callee
354   0000              	GLOBAL _NIRVANAP_printC
355   0000              	GLOBAL _NIRVANAP_fillT_raw_callee
356   0000              	GLOBAL _NIRVANAP_fillT_raw
357   0000              	GLOBAL _NIRVANAP_fillT_callee
358   0000              	GLOBAL _NIRVANAP_fillT
359   0000              	GLOBAL _NIRVANAP_drawT_raw_callee
360   0000              	GLOBAL _NIRVANAP_drawT_raw
361   0000              	GLOBAL _NIRVANAP_drawT_callee
362   0000              	GLOBAL _NIRVANAP_drawT
363   0000              	GLOBAL _NIRVANAP_stop
364   0000              	GLOBAL _NIRVANAP_start
365   0000              	GLOBAL _debug3
366   0000              	GLOBAL _debug2
367   0000              	GLOBAL _debug
368   0000              	GLOBAL _zx_print_str
369   0000              	GLOBAL _zx_print_int
370   0000              	GLOBAL _zx_print_chr
371   0000              	GLOBAL _zx_print_bonus_time
372   0000              	GLOBAL _zx_isr
373   0000              	GLOBAL _z80_otdr_callee
374   0000              	GLOBAL _z80_otdr
375   0000              	GLOBAL _z80_otir_callee
376   0000              	GLOBAL _z80_otir
377   0000              	GLOBAL _z80_outp_callee
378   0000              	GLOBAL _z80_outp
379   0000              	GLOBAL _z80_indr_callee
380   0000              	GLOBAL _z80_indr
381   0000              	GLOBAL _z80_inir_callee
382   0000              	GLOBAL _z80_inir
383   0000              	GLOBAL _z80_inp_fastcall
384   0000              	GLOBAL _z80_inp
385   0000              	GLOBAL _z80_set_int_state_fastcall
386   0000              	GLOBAL _z80_set_int_state
387   0000              	GLOBAL _z80_get_int_state
388   0000              	GLOBAL _z80_delay_tstate_fastcall
389   0000              	GLOBAL _z80_delay_tstate
390   0000              	GLOBAL _z80_delay_ms_fastcall
391   0000              	GLOBAL _z80_delay_ms
392   0000              	GLOBAL _im2_remove_generic_callback_callee
393   0000              	GLOBAL _im2_remove_generic_callback
394   0000              	GLOBAL _im2_prepend_generic_callback_callee
395   0000              	GLOBAL _im2_prepend_generic_callback
396   0000              	GLOBAL _im2_append_generic_callback_callee
397   0000              	GLOBAL _im2_append_generic_callback
398   0000              	GLOBAL _im2_create_generic_isr_8080_callee
399   0000              	GLOBAL _im2_create_generic_isr_8080
400   0000              	GLOBAL _im2_create_generic_isr_callee
401   0000              	GLOBAL _im2_create_generic_isr
402   0000              	GLOBAL _im2_install_isr_callee
403   0000              	GLOBAL _im2_install_isr
404   0000              	GLOBAL _im2_init_fastcall
405   0000              	GLOBAL _im2_init
406   0000              	GLOBAL _intrinsic_swap_word_32_fastcall
407   0000              	GLOBAL _intrinsic_swap_word_32
408   0000              	GLOBAL _intrinsic_swap_endian_32_fastcall
409   0000              	GLOBAL _intrinsic_swap_endian_32
410   0000              	GLOBAL _intrinsic_swap_endian_16_fastcall
411   0000              	GLOBAL _intrinsic_swap_endian_16
412   0000              	GLOBAL _intrinsic_return_de
413   0000              	GLOBAL _intrinsic_return_bc
414   0000              	GLOBAL _intrinsic_exx
415   0000              	GLOBAL _intrinsic_ex_de_hl
416   0000              	GLOBAL _intrinsic_nop
417   0000              	GLOBAL _intrinsic_im_2
418   0000              	GLOBAL _intrinsic_im_1
419   0000              	GLOBAL _intrinsic_im_0
420   0000              	GLOBAL _intrinsic_retn
421   0000              	GLOBAL _intrinsic_reti
422   0000              	GLOBAL _intrinsic_halt
423   0000              	GLOBAL _intrinsic_ei
424   0000              	GLOBAL _intrinsic_di
425   0000              	GLOBAL _intrinsic_stub
426   0000              	GLOBAL _intrinsic_outi
427   0000              	GLOBAL _intrinsic_ldi
428   0000              	GLOBAL _zx_pattern_fill_callee
429   0000              	GLOBAL _zx_pattern_fill
430   0000              	GLOBAL _zx_saddrpup_fastcall
431   0000              	GLOBAL _zx_saddrpup
432   0000              	GLOBAL _zx_saddrpright_callee
433   0000              	GLOBAL _zx_saddrpright
434   0000              	GLOBAL _zx_saddrpleft_callee
435   0000              	GLOBAL _zx_saddrpleft
436   0000              	GLOBAL _zx_saddrpdown_fastcall
437   0000              	GLOBAL _zx_saddrpdown
438   0000              	GLOBAL _zx_saddrcup_fastcall
439   0000              	GLOBAL _zx_saddrcup
440   0000              	GLOBAL _zx_saddrcright_fastcall
441   0000              	GLOBAL _zx_saddrcright
442   0000              	GLOBAL _zx_saddrcleft_fastcall
443   0000              	GLOBAL _zx_saddrcleft
444   0000              	GLOBAL _zx_saddrcdown_fastcall
445   0000              	GLOBAL _zx_saddrcdown
446   0000              	GLOBAL _zx_saddr2py_fastcall
447   0000              	GLOBAL _zx_saddr2py
448   0000              	GLOBAL _zx_saddr2px_fastcall
449   0000              	GLOBAL _zx_saddr2px
450   0000              	GLOBAL _zx_saddr2cy_fastcall
451   0000              	GLOBAL _zx_saddr2cy
452   0000              	GLOBAL _zx_saddr2cx_fastcall
453   0000              	GLOBAL _zx_saddr2cx
454   0000              	GLOBAL _zx_saddr2aaddr_fastcall
455   0000              	GLOBAL _zx_saddr2aaddr
456   0000              	GLOBAL _zx_py2saddr_fastcall
457   0000              	GLOBAL _zx_py2saddr
458   0000              	GLOBAL _zx_py2aaddr_fastcall
459   0000              	GLOBAL _zx_py2aaddr
460   0000              	GLOBAL _zx_pxy2saddr_callee
461   0000              	GLOBAL _zx_pxy2saddr
462   0000              	GLOBAL _zx_pxy2aaddr_callee
463   0000              	GLOBAL _zx_pxy2aaddr
464   0000              	GLOBAL _zx_px2bitmask_fastcall
465   0000              	GLOBAL _zx_px2bitmask
466   0000              	GLOBAL _zx_cy2saddr_fastcall
467   0000              	GLOBAL _zx_cy2saddr
468   0000              	GLOBAL _zx_cy2aaddr_fastcall
469   0000              	GLOBAL _zx_cy2aaddr
470   0000              	GLOBAL _zx_cxy2saddr_callee
471   0000              	GLOBAL _zx_cxy2saddr
472   0000              	GLOBAL _zx_cxy2aaddr_callee
473   0000              	GLOBAL _zx_cxy2aaddr
474   0000              	GLOBAL _zx_bitmask2px_fastcall
475   0000              	GLOBAL _zx_bitmask2px
476   0000              	GLOBAL _zx_aaddrcup_fastcall
477   0000              	GLOBAL _zx_aaddrcup
478   0000              	GLOBAL _zx_aaddrcright_fastcall
479   0000              	GLOBAL _zx_aaddrcright
480   0000              	GLOBAL _zx_aaddrcleft_fastcall
481   0000              	GLOBAL _zx_aaddrcleft
482   0000              	GLOBAL _zx_aaddrcdown_fastcall
483   0000              	GLOBAL _zx_aaddrcdown
484   0000              	GLOBAL _zx_aaddr2saddr_fastcall
485   0000              	GLOBAL _zx_aaddr2saddr
486   0000              	GLOBAL _zx_aaddr2py_fastcall
487   0000              	GLOBAL _zx_aaddr2py
488   0000              	GLOBAL _zx_aaddr2px_fastcall
489   0000              	GLOBAL _zx_aaddr2px
490   0000              	GLOBAL _zx_aaddr2cy_fastcall
491   0000              	GLOBAL _zx_aaddr2cy
492   0000              	GLOBAL _zx_aaddr2cx_fastcall
493   0000              	GLOBAL _zx_aaddr2cx
494   0000              	GLOBAL _zx_visit_wc_pix_callee
495   0000              	GLOBAL _zx_visit_wc_pix
496   0000              	GLOBAL _zx_visit_wc_attr_callee
497   0000              	GLOBAL _zx_visit_wc_attr
498   0000              	GLOBAL _zx_scroll_wc_up_pix_callee
499   0000              	GLOBAL _zx_scroll_wc_up_pix
500   0000              	GLOBAL _zx_scroll_wc_up_attr_callee
501   0000              	GLOBAL _zx_scroll_wc_up_attr
502   0000              	GLOBAL _zx_scroll_wc_up_callee
503   0000              	GLOBAL _zx_scroll_wc_up
504   0000              	GLOBAL _zx_scroll_up_pix_callee
505   0000              	GLOBAL _zx_scroll_up_pix
506   0000              	GLOBAL _zx_scroll_up_attr_callee
507   0000              	GLOBAL _zx_scroll_up_attr
508   0000              	GLOBAL _zx_scroll_up_callee
509   0000              	GLOBAL _zx_scroll_up
510   0000              	GLOBAL _zx_cls_wc_pix_callee
511   0000              	GLOBAL _zx_cls_wc_pix
512   0000              	GLOBAL _zx_cls_wc_attr_callee
513   0000              	GLOBAL _zx_cls_wc_attr
514   0000              	GLOBAL _zx_cls_wc_callee
515   0000              	GLOBAL _zx_cls_wc
516   0000              	GLOBAL _zx_cls_pix_fastcall
517   0000              	GLOBAL _zx_cls_pix
518   0000              	GLOBAL _zx_cls_attr_fastcall
519   0000              	GLOBAL _zx_cls_attr
520   0000              	GLOBAL _zx_cls_fastcall
521   0000              	GLOBAL _zx_cls
522   0000              	GLOBAL _zx_border_fastcall
523   0000              	GLOBAL _zx_border
524   0000              	GLOBAL _sound_hit_brick
525   0000              	GLOBAL _sound_hit_enemy
526   0000              	GLOBAL _sound_kill
527   0000              	GLOBAL _sound_enter_enemy
528   0000              	GLOBAL _sound_coin
529   0000              	GLOBAL _sound_jump
530   0000              	GLOBAL _sound_slide
531   0000              	GLOBAL _player_move_jump
532   0000              	GLOBAL _player_fire
533   0000              	GLOBAL _player_check_stairs_down
534   0000              	GLOBAL _player_check_stairs
535   0000              	GLOBAL _player_tile
536   0000              	GLOBAL _player_pick_item
537   0000              	GLOBAL _player_check_floor
538   0000              	GLOBAL _player_hit_platform_clear
539   0000              	GLOBAL _player_lost_life
540   0000              	GLOBAL _player_score_add
541   0000              	GLOBAL _player_player_hit_pow
542   0000              	GLOBAL _player_hit_platform
543   0000              	GLOBAL _player_move_input
544   0000              	GLOBAL _player_turn
545   0000              	GLOBAL _player_move
546   0000              	GLOBAL _player_restart
547   0000              	GLOBAL _player_kill
548   0000              	GLOBAL _player_check_input
549   0000              	GLOBAL _player_collision
550   0000              	GLOBAL _player_init
551   0000              	GLOBAL _game_joystick_set_menu
552   0000              	GLOBAL _game_joystick_set
553   0000              	GLOBAL _game_joystick_change
554   0000              	GLOBAL _game_print_header
555   0000              	GLOBAL _game_end
556   0000              	GLOBAL _game_phase_print_score_back
557   0000              	GLOBAL _game_check_time
558   0000              	GLOBAL _game_rotate_attrib
559   0000              	GLOBAL _game_colour_message
560   0000              	GLOBAL _game_paint_attrib_lin_h
561   0000              	GLOBAL _game_paint_attrib_lin
562   0000              	GLOBAL _game_paint_attrib
563   0000              	GLOBAL _game_print_score
564   0000              	GLOBAL _game_unfreeze_all
565   0000              	GLOBAL _game_freeze_all
566   0000              	GLOBAL _game_freeze
567   0000              	GLOBAL _game_enemy_add_get_index
568   0000              	GLOBAL _game_check_cell
569   0000              	GLOBAL _game_check_map
570   0000              	GLOBAL _game_loop
571   0000              	GLOBAL _game_phase_init
572   0000              	GLOBAL _game_start_timer
573   0000              	GLOBAL _game_tick
574   0000              	GLOBAL _game_print_lives
575   0000              	GLOBAL _game_print_footer
576   0000              	GLOBAL _game_fill_row
577   0000              	GLOBAL _game_draw_screen
578   0000              	GLOBAL _enemy_avoid_edge
579   0000              	GLOBAL _enemy_kill
580   0000              	GLOBAL _enemy_init
581   0000              	GLOBAL _enemy_move
582   0000              	GLOBAL _enemy_turn
583   0000              	GLOBAL _enemy_hit
584   0000              	GLOBAL _enemy_coin1
585   0000              	GLOBAL _enemy_static
586   0000              	GLOBAL _enemy_walk
587   0000              	GLOBAL _enemy_vertical
588   0000              	GLOBAL _ay_fx_play
589   0000              	GLOBAL _ay_midi_play
590   0000              	GLOBAL _ay_is_playing
591   0000              	GLOBAL _ay_reset
592   0000              	GLOBAL _test_func
593   0000              	GLOBAL _test_proc
594   0000              	GLOBAL _in_mouse_kempston_wheel_delta
595   0000              	GLOBAL _in_mouse_kempston_wheel
596   0000              	GLOBAL _in_mouse_kempston_callee
597   0000              	GLOBAL _in_mouse_kempston
598   0000              	GLOBAL _in_mouse_kempston_setpos_callee
599   0000              	GLOBAL _in_mouse_kempston_setpos
600   0000              	GLOBAL _in_mouse_kempston_reset
601   0000              	GLOBAL _in_mouse_kempston_init
602   0000              	GLOBAL _in_mouse_amx_wheel_delta
603   0000              	GLOBAL _in_mouse_amx_wheel
604   0000              	GLOBAL _in_mouse_amx_callee
605   0000              	GLOBAL _in_mouse_amx
606   0000              	GLOBAL _in_mouse_amx_setpos_callee
607   0000              	GLOBAL _in_mouse_amx_setpos
608   0000              	GLOBAL _in_mouse_amx_reset
609   0000              	GLOBAL _in_mouse_amx_init_callee
610   0000              	GLOBAL _in_mouse_amx_init
611   0000              	GLOBAL _in_stick_sinclair2
612   0000              	GLOBAL _in_stick_sinclair1
613   0000              	GLOBAL _in_stick_kempston
614   0000              	GLOBAL _in_stick_fuller
615   0000              	GLOBAL _in_stick_cursor
616   0000              	GLOBAL _in_stick_keyboard_fastcall
617   0000              	GLOBAL _in_stick_keyboard
618   0000              	GLOBAL _in_wait_nokey
619   0000              	GLOBAL _in_wait_key
620   0000              	GLOBAL _in_test_key
621   0000              	GLOBAL _in_pause_fastcall
622   0000              	GLOBAL _in_pause
623   0000              	GLOBAL _in_key_scancode_fastcall
624   0000              	GLOBAL _in_key_scancode
625   0000              	GLOBAL _in_key_pressed_fastcall
626   0000              	GLOBAL _in_key_pressed
627   0000              	GLOBAL _in_inkey
628   0000              	GLOBAL _NIRVANAP_CHAR_TABLE
629   0000              	GLOBAL _NIRVANAP_WIDE_IMAGES
630   0000              	GLOBAL _NIRVANAP_TILE_IMAGES
631   0000              	GLOBAL _NIRVANAP_HOLE
632   0000              	GLOBAL _NIRVANAP_ISR_HOOK
633   0000              	GLOBAL _draw_count
634   0000              	GLOBAL _g_player_hit_right
635   0000              	GLOBAL _g_player_hit_left
636   0000              	GLOBAL _joynames
637   0000              	GLOBAL _initials
638   0000              	GLOBAL _bullet_count
639   0000              	GLOBAL _bullet_frames
640   0000              	GLOBAL _bullet_colint
641   0000              	GLOBAL _bullet_dir
642   0000              	GLOBAL _bullet_tile
643   0000              	GLOBAL _bullet_col
644   0000              	GLOBAL _bullet_lin
645   0000              	GLOBAL _anim_count
646   0000              	GLOBAL _anim_end
647   0000              	GLOBAL _anim_int
648   0000              	GLOBAL _anim_tile
649   0000              	GLOBAL _anim_col
650   0000              	GLOBAL _anim_lin
651   0000              	GLOBAL _phase_curr
652   0000              	GLOBAL _map_heigth
653   0000              	GLOBAL _map_width
654   0000              	GLOBAL _scr_curr
655   0000              	GLOBAL _scr_7
656   0000              	GLOBAL _scr_6
657   0000              	GLOBAL _scr_5
658   0000              	GLOBAL _scr_4
659   0000              	GLOBAL _scr_3
660   0000              	GLOBAL _scr_2
661   0000              	GLOBAL _scr_1
662   0000              	GLOBAL _scr_0
663   0000              	GLOBAL _scr_map
664   0000              	GLOBAL _sprite_speed_alt
665   0000              	GLOBAL _sprite_frames
666   0000              	GLOBAL _sprite_speed
667   0000              	GLOBAL _screen_ink
668   0000              	GLOBAL _screen_paper
669   0000              	GLOBAL _player_over_stair
670   0000              	GLOBAL _game_menu_sel
671   0000              	GLOBAL _game_score_top
672   0000              	GLOBAL _player_lives
673   0000              	GLOBAL _game_over
674   0000              	GLOBAL _game_sound
675   0000              	GLOBAL _game_inmune
676   0000              	GLOBAL _game_god_mode
677   0000              	GLOBAL _game_two_player
678   0000              	GLOBAL _game_brick_tile
679   0000              	GLOBAL _sprite_curr_index
680   0000              	GLOBAL _spr_count
681   0000              	GLOBAL _bullet_time
682   0000              	GLOBAL _anim_time
683   0000              	GLOBAL _frame_time
684   0000              	GLOBAL _entry_time
685   0000              	GLOBAL _curr_time
686   0000              	GLOBAL _s_state
687   0000              	GLOBAL _attrib_hl
688   0000              	GLOBAL _attrib
689   0000              	GLOBAL _zx_val_asm
690   0000              	GLOBAL _enemies
691   0000              	GLOBAL _tmp_ui
692   0000              	GLOBAL _tmp_sc
693   0000              	GLOBAL _tmp_uc
694   0000              	GLOBAL _tmp1
695   0000              	GLOBAL _tmp0
696   0000              	GLOBAL _tmp
697   0000              	GLOBAL _index1
698   0000              	GLOBAL _index0
699   0000              	GLOBAL _loop_count
700   0000              	GLOBAL _s_col1
701   0000              	GLOBAL _s_col0
702   0000              	GLOBAL _s_lin1
703   0000              	GLOBAL _s_lin0
704   0000              	GLOBAL _s_tile1
705   0000              	GLOBAL _s_tile0
706   0000              	GLOBAL _player_hit_count
707   0000              	GLOBAL _sprite_horizontal_check
708   0000              	GLOBAL _sprite_on_air
709   0000              	GLOBAL _sprite
710   0000              	GLOBAL _game_gravity
711   0000              	GLOBAL _player_vel_inc
712   0000              	GLOBAL _player_vel_y1
713   0000              	GLOBAL _player_vel_y0
714   0000              	GLOBAL _player_vel_y
715   0000              	GLOBAL _player_vel_x
716   0000              	GLOBAL _player_joy
717   0000              	GLOBAL _player_score
718   0000              	GLOBAL _last_time
719   0000              	GLOBAL _player_slide
720   0000              	GLOBAL _spr_timer
721   0000              	GLOBAL _jump_lin
722   0000              	GLOBAL _player_hit_col
723   0000              	GLOBAL _player_hit_lin
724   0000              	GLOBAL _colint
725   0000              	GLOBAL _col
726   0000              	GLOBAL _lin
727   0000              	GLOBAL _tile
728   0000              	GLOBAL _state_a
729   0000              	GLOBAL _state
730   0000              	GLOBAL _class
731   0000              	GLOBAL _tbuffer
732   0000              	GLOBAL _dirs
733   0000              	GLOBAL _k1
734   0000              	GLOBAL _joyfunc1
735   0000              	GLOBAL _btiles
736   0000              	GLOBAL _spec128
737   0000              	GLOBAL _GLOBAL_ZX_PORT_7FFD
738   0000              	GLOBAL _GLOBAL_ZX_PORT_1FFD
739   0000              	GLOBAL _GLOBAL_ZX_PORT_FE
740   0000              	GLOBAL _ay_effect_20
741   0000              	GLOBAL _ay_effect_19
742   0000              	GLOBAL _ay_effect_18
743   0000              	GLOBAL _ay_effect_17
744   0000              	GLOBAL _ay_effect_16
745   0000              	GLOBAL _ay_effect_15
746   0000              	GLOBAL _ay_effect_14
747   0000              	GLOBAL _ay_effect_13
748   0000              	GLOBAL _ay_effect_12
749   0000              	GLOBAL _ay_effect_11
750   0000              	GLOBAL _ay_effect_10
751   0000              	GLOBAL _ay_effect_09
752   0000              	GLOBAL _ay_effect_08
753   0000              	GLOBAL _ay_effect_07
754   0000              	GLOBAL _ay_effect_06
755   0000              	GLOBAL _ay_effect_05
756   0000              	GLOBAL _ay_effect_04
757   0000              	GLOBAL _ay_effect_03
758   0000              	GLOBAL _ay_effect_02
759   0000              	GLOBAL _ay_effect_01
760   0000              	GLOBAL _pb_midi_phase_1
761   0000              	GLOBAL _pb_midi_title
762   0000              	GLOBAL _control_method
763   0000              ;--------------------------------------------------------
764   0000              ; special function registers
765   0000              ;--------------------------------------------------------
766   0000              defc _IO_FE	=	0x00fe
767   0000              defc _IO_1FFD	=	0x1ffd
768   0000              defc _IO_7FFD	=	0x7ffd
769   0000              ;--------------------------------------------------------
770   0000              ; ram data
771   0000              ;--------------------------------------------------------
772   0000              	SECTION bss_compiler
773   0000              ;--------------------------------------------------------
774   0000              ; ram data
775   0000              ;--------------------------------------------------------
776   0000              
777   0000              IF 0
778   0000              
779   0000              ; .area _INITIALIZED removed by z88dk
780   0000              
781   0000              
782   0000              ENDIF
783   0000              
784   0000              ;--------------------------------------------------------
785   0000              ; absolute external ram data
786   0000              ;--------------------------------------------------------
787   0000              	SECTION IGNORE
788   0000              ;--------------------------------------------------------
789   0000              ; global & static initialisations
790   0000              ;--------------------------------------------------------
791   0000              	SECTION code_crt_init
792   0000              ;--------------------------------------------------------
793   0000              ; Home
794   0000              ;--------------------------------------------------------
795   0000              	SECTION IGNORE
796   0000              ;--------------------------------------------------------
797   0000              ; code
798   0000              ;--------------------------------------------------------
799   0000              	SECTION code_compiler
800   0000              ;	---------------------------------
801   0000              ; Function spr_calc_index
802   0000              ; ---------------------------------
803   0000              _spr_calc_index:
804   0000  CD 00 00    	call	___sdcc_enter_ix
805   0003  DD 4E 05    	ld	c,(ix+5)
806   0006  CB 39       	srl	c
807   0008  06 00       	ld	b,0x00
808   000A  DD 7E 04    	ld	a,(ix+4)
809   000D  07          	rlca
810   000E  07          	rlca
811   000F  07          	rlca
812   0010  07          	rlca
813   0011  E6 0F       	and	a,0x0f
814   0013  6F          	ld	l, a
815   0014  26 00       	ld	h,0x00
816   0016  29          	add	hl, hl
817   0017  29          	add	hl, hl
818   0018  29          	add	hl, hl
819   0019  29          	add	hl, hl
820   001A  09          	add	hl, bc
821   001B  DD E1       	pop	ix
822   001D  C9          	ret
823   001E              	SECTION code_compiler
824   001E              ;	---------------------------------
825   001E              ; Function spr_chktime
826   001E              ; ---------------------------------
827   001E              _spr_chktime:
828   001E  CD 00 00    	call	___sdcc_enter_ix
829   0021  F5          	push	af
830   0022  DD 75 FE    	ld	(ix-2),l
831   0025  DD 74 FF    	ld	(ix-1),h
832   0028  E1          	pop	hl
833   0029  01 00 00    	ld	bc,_sprite_speed_alt+0
834   002C  5E          	ld	e,(hl)
835   002D  E5          	push	hl
836   002E  6B          	ld	l,e
837   002F  26 00       	ld	h,0x00
838   0031  09          	add	hl, bc
839   0032  7E          	ld	a, (hl)
840   0033  B7          	or	a, a
841   0034  20 13       	jr	NZ,l_spr_chktime_00102
842   0036  01 00 00    	ld	bc,_sprite_speed+0
843   0039  16 00       	ld	d,0x00
844   003B  21 00 00    	ld	hl,_class
845   003E  19          	add	hl, de
846   003F  6E          	ld	l, (hl)
847   0040  26 00       	ld	h,0x00
848   0042  09          	add	hl, bc
849   0043  7E          	ld	a, (hl)
850   0044  32 00 00    	ld	(_tmp),a
851   0047  18 03       	jr	l_spr_chktime_00103
852   0049              l_spr_chktime_00102:
853   0049  32 00 00    	ld	(_tmp),a
854   004C              l_spr_chktime_00103:
855   004C  3A 00 00    	ld	a,(_tmp)
856   004F  4F          	ld	c,a
857   0050  06 00       	ld	b,0x00
858   0052  60          	ld	h,b
859   0053  6B          	ld	l, e
860   0054  29          	add	hl, hl
861   0055  11 00 00    	ld	de,_last_time
862   0058  19          	add	hl, de
863   0059  5E          	ld	e, (hl)
864   005A  23          	inc	hl
865   005B  56          	ld	d, (hl)
866   005C  C5          	push	bc
867   005D  D5          	push	de
868   005E  CD 00 00    	call	_game_check_time
869   0061  F1          	pop	af
870   0062  F1          	pop	af
871   0063  7D          	ld	a, l
872   0064  B7          	or	a, a
873   0065  28 15       	jr	Z,l_spr_chktime_00105
874   0067  E1          	pop	hl
875   0068  E5          	push	hl
876   0069  6E          	ld	l, (hl)
877   006A  26 00       	ld	h,0x00
878   006C  29          	add	hl, hl
879   006D  01 00 00    	ld	bc,_last_time
880   0070  09          	add	hl,bc
881   0071  ED 5B 00 00 	ld	de,(_curr_time)
882   0075  73          	ld	(hl),e
883   0076  23          	inc	hl
884   0077  72          	ld	(hl),d
885   0078  2E 01       	ld	l,0x01
886   007A  18 02       	jr	l_spr_chktime_00106
887   007C              l_spr_chktime_00105:
888   007C  2E 00       	ld	l,0x00
889   007E              l_spr_chktime_00106:
890   007E  F1          	pop	af
891   007F  DD E1       	pop	ix
892   0081  C9          	ret
893   0082              	SECTION code_compiler
894   0082              ;	---------------------------------
895   0082              ; Function spr_move_up
896   0082              ; ---------------------------------
897   0082              _spr_move_up:
898   0082  2A 00 00    	ld	hl,(_sprite)
899   0085  26 00       	ld	h,0x00
900   0087  01 00 00    	ld	bc,_lin
901   008A  09          	add	hl,bc
902   008B  7E          	ld	a,(hl)
903   008C  C6 FE       	add	a,0xfe
904   008E  32 00 00    	ld	(_s_lin1),a
905   0091  07          	rlca
906   0092  07          	rlca
907   0093  07          	rlca
908   0094  07          	rlca
909   0095  E6 0F       	and	a,0x0f
910   0097  4F          	ld	c, a
911   0098  3A 00 00    	ld	a,(_tmp1)
912   009B  07          	rlca
913   009C  07          	rlca
914   009D  07          	rlca
915   009E  07          	rlca
916   009F  E6 0F       	and	a,0x0f
917   00A1  47          	ld	b, a
918   00A2  79          	ld	a, c
919   00A3  90          	sub	a, b
920   00A4  20 04       	jr	NZ,l_spr_move_up_00134
921   00A6  3E 01       	ld	a,0x01
922   00A8  18 01       	jr	l_spr_move_up_00135
923   00AA              l_spr_move_up_00134:
924   00AA  AF          	xor	a,a
925   00AB              l_spr_move_up_00135:
926   00AB  EE 01       	xor	a,0x01
927   00AD  28 2D       	jr	Z,l_spr_move_up_00108
928   00AF  2A 00 00    	ld	hl,(_sprite)
929   00B2  26 00       	ld	h,0x00
930   00B4  01 00 00    	ld	bc,_col
931   00B7  09          	add	hl,bc
932   00B8  7E          	ld	a,(hl)
933   00B9  F5          	push	af
934   00BA  33          	inc	sp
935   00BB  3A 00 00    	ld	a,(_s_lin1)
936   00BE  F5          	push	af
937   00BF  33          	inc	sp
938   00C0  CD 00 00    	call	_game_check_map
939   00C3  F1          	pop	af
940   00C4  7C          	ld	a,h
941   00C5  B5          	or	a,l
942   00C6  28 14       	jr	Z,l_spr_move_up_00108
943   00C8  3A 00 00    	ld	a,(_sprite)
944   00CB  D6 07       	sub	a,0x07
945   00CD  20 09       	jr	NZ,l_spr_move_up_00104
946   00CF  3A 07 00    	ld	a,(_state_a + 0x0007)
947   00D2  07          	rlca
948   00D3  38 03       	jr	C,l_spr_move_up_00104
949   00D5  CD 00 00    	call	_player_hit_platform
950   00D8              l_spr_move_up_00104:
951   00D8  2E 01       	ld	l,0x01
952   00DA  18 1F       	jr	l_spr_move_up_00112
953   00DC              l_spr_move_up_00108:
954   00DC  2A 00 00    	ld	hl,(_sprite)
955   00DF  26 00       	ld	h,0x00
956   00E1  01 00 00    	ld	bc,_lin
957   00E4  09          	add	hl,bc
958   00E5  3E 90       	ld	a,0x90
959   00E7  4D          	ld	c,l
960   00E8  44          	ld	b,h
961   00E9  21 00 00    	ld	hl,_s_lin1
962   00EC  96          	sub	a, (hl)
963   00ED  30 06       	jr	NC,l_spr_move_up_00110
964   00EF  AF          	xor	a, a
965   00F0  02          	ld	(bc), a
966   00F1  2E 01       	ld	l,0x01
967   00F3  18 06       	jr	l_spr_move_up_00112
968   00F5              l_spr_move_up_00110:
969   00F5  3A 00 00    	ld	a,(_s_lin1)
970   00F8  02          	ld	(bc), a
971   00F9  2E 00       	ld	l,0x00
972   00FB              l_spr_move_up_00112:
973   00FB  C9          	ret
974   00FC              	SECTION code_compiler
975   00FC              ;	---------------------------------
976   00FC              ; Function spr_move_down
977   00FC              ; ---------------------------------
978   00FC              _spr_move_down:
979   00FC  2A 00 00    	ld	hl,(_sprite)
980   00FF  26 00       	ld	h,0x00
981   0101  01 00 00    	ld	bc,_lin
982   0104  09          	add	hl,bc
983   0105  7E          	ld	a,(hl)
984   0106  C6 10       	add	a,0x10
985   0108  32 00 00    	ld	(_s_lin1),a
986   010B  07          	rlca
987   010C  07          	rlca
988   010D  07          	rlca
989   010E  07          	rlca
990   010F  E6 0F       	and	a,0x0f
991   0111  4F          	ld	c, a
992   0112  3A 00 00    	ld	a,(_tmp1)
993   0115  07          	rlca
994   0116  07          	rlca
995   0117  07          	rlca
996   0118  07          	rlca
997   0119  E6 0F       	and	a,0x0f
998   011B  47          	ld	b, a
999   011C  79          	ld	a, c
1000  011D  90          	sub	a, b
1001  011E  20 04       	jr	NZ,l_spr_move_down_00122
1002  0120  3E 01       	ld	a,0x01
1003  0122  18 01       	jr	l_spr_move_down_00123
1004  0124              l_spr_move_down_00122:
1005  0124  AF          	xor	a,a
1006  0125              l_spr_move_down_00123:
1007  0125  EE 01       	xor	a,0x01
1008  0127  28 1D       	jr	Z,l_spr_move_down_00104
1009  0129  2A 00 00    	ld	hl,(_sprite)
1010  012C  26 00       	ld	h,0x00
1011  012E  01 00 00    	ld	bc,_col
1012  0131  09          	add	hl,bc
1013  0132  7E          	ld	a,(hl)
1014  0133  F5          	push	af
1015  0134  33          	inc	sp
1016  0135  3A 00 00    	ld	a,(_s_lin1)
1017  0138  F5          	push	af
1018  0139  33          	inc	sp
1019  013A  CD 00 00    	call	_game_check_map
1020  013D  F1          	pop	af
1021  013E  7C          	ld	a,h
1022  013F  B5          	or	a,l
1023  0140  28 04       	jr	Z,l_spr_move_down_00104
1024  0142  2E 01       	ld	l,0x01
1025  0144  18 22       	jr	l_spr_move_down_00108
1026  0146              l_spr_move_down_00104:
1027  0146  2A 00 00    	ld	hl,(_sprite)
1028  0149  26 00       	ld	h,0x00
1029  014B  01 00 00    	ld	bc,_lin
1030  014E  09          	add	hl,bc
1031  014F  3E 90       	ld	a,0x90
1032  0151  4D          	ld	c,l
1033  0152  44          	ld	b,h
1034  0153  21 00 00    	ld	hl,_s_lin1
1035  0156  96          	sub	a, (hl)
1036  0157  30 07       	jr	NC,l_spr_move_down_00106
1037  0159  3E 90       	ld	a,0x90
1038  015B  02          	ld	(bc), a
1039  015C  2E 01       	ld	l,0x01
1040  015E  18 08       	jr	l_spr_move_down_00108
1041  0160              l_spr_move_down_00106:
1042  0160  3A 00 00    	ld	a,(_s_lin1)
1043  0163  C6 F2       	add	a,0xf2
1044  0165  02          	ld	(bc), a
1045  0166  2E 00       	ld	l,0x00
1046  0168              l_spr_move_down_00108:
1047  0168  C9          	ret
1048  0169              	SECTION code_compiler
1049  0169              ;	---------------------------------
1050  0169              ; Function spr_move_horizontal
1051  0169              ; ---------------------------------
1052  0169              _spr_move_horizontal:
1053  0169  2A 00 00    	ld	hl,(_sprite)
1054  016C  26 00       	ld	h,0x00
1055  016E  01 00 00    	ld	bc,_state
1056  0171  09          	add	hl,bc
1057  0172  7E          	ld	a,(hl)
1058  0173  CB 57       	bit	2, a
1059  0175  28 05       	jr	Z,l_spr_move_horizontal_00104
1060  0177  CD 88 01    	call	_spr_move_right
1061  017A  18 0B       	jr	l_spr_move_horizontal_00106
1062  017C              l_spr_move_horizontal_00104:
1063  017C  CB 5F       	bit	3, a
1064  017E  28 05       	jr	Z,l_spr_move_horizontal_00105
1065  0180  CD 67 02    	call	_spr_move_left
1066  0183  18 02       	jr	l_spr_move_horizontal_00106
1067  0185              l_spr_move_horizontal_00105:
1068  0185  2E 00       	ld	l,0x00
1069  0187              l_spr_move_horizontal_00106:
1070  0187  C9          	ret
1071  0188              	SECTION code_compiler
1072  0188              ;	---------------------------------
1073  0188              ; Function spr_move_right
1074  0188              ; ---------------------------------
1075  0188              _spr_move_right:
1076  0188  2A 00 00    	ld	hl,(_sprite)
1077  018B  26 00       	ld	h,0x00
1078  018D  01 00 00    	ld	bc,_colint
1079  0190  09          	add	hl,bc
1080  0191  7E          	ld	a,(hl)
1081  0192  3C          	inc	a
1082  0193  77          	ld	(hl),a
1083  0194  4F          	ld	c,a
1084  0195  3A 00 00    	ld	a,(_sprite)
1085  0198  5F          	ld	e,a
1086  0199  16 00       	ld	d,0x00
1087  019B  21 00 00    	ld	hl,_class
1088  019E  19          	add	hl,de
1089  019F  5E          	ld	e, (hl)
1090  01A0  16 00       	ld	d,0x00
1091  01A2  21 00 00    	ld	hl,_sprite_frames
1092  01A5  19          	add	hl, de
1093  01A6  7E          	ld	a, (hl)
1094  01A7  91          	sub	a, c
1095  01A8  C2 64 02    	jp	NZ,l_spr_move_right_00117
1096  01AB  2A 00 00    	ld	hl,(_sprite)
1097  01AE  26 00       	ld	h,0x00
1098  01B0  01 00 00    	ld	bc,_lin
1099  01B3  09          	add	hl,bc
1100  01B4  7E          	ld	a,(hl)
1101  01B5  32 00 00    	ld	(_s_lin1),a
1102  01B8  2A 00 00    	ld	hl,(_sprite)
1103  01BB  26 00       	ld	h,0x00
1104  01BD  01 00 00    	ld	bc,_col
1105  01C0  09          	add	hl,bc
1106  01C1  7E          	ld	a,(hl)
1107  01C2  FE 1E       	cp	a,0x1e
1108  01C4  30 4A       	jr	NC,l_spr_move_right_00107
1109  01C6  3C          	inc	a
1110  01C7  32 00 00    	ld	(_s_col1),a
1111  01CA  F5          	push	af
1112  01CB  33          	inc	sp
1113  01CC  3A 00 00    	ld	a,(_s_lin1)
1114  01CF  F5          	push	af
1115  01D0  33          	inc	sp
1116  01D1  CD 00 00    	call	_game_check_map
1117  01D4  F1          	pop	af
1118  01D5  7C          	ld	a,h
1119  01D6  B5          	or	a,l
1120  01D7  20 13       	jr	NZ,l_spr_move_right_00103
1121  01D9  3A 00 00    	ld	a,(_s_lin1)
1122  01DC  C6 0F       	add	a,0x0f
1123  01DE  4F          	ld	c, a
1124  01DF  3A 00 00    	ld	a, (_s_col1)
1125  01E2  47          	ld	b,a
1126  01E3  C5          	push	bc
1127  01E4  CD 00 00    	call	_game_check_map
1128  01E7  F1          	pop	af
1129  01E8  7C          	ld	a,h
1130  01E9  B5          	or	a,l
1131  01EA  28 24       	jr	Z,l_spr_move_right_00107
1132  01EC              l_spr_move_right_00103:
1133  01EC  2A 00 00    	ld	hl,(_sprite)
1134  01EF  26 00       	ld	h,0x00
1135  01F1  01 00 00    	ld	bc,_colint
1136  01F4  09          	add	hl,bc
1137  01F5  7E          	ld	a,(hl)
1138  01F6  C6 FF       	add	a,0xff
1139  01F8  77          	ld	(hl),a
1140  01F9  3A 00 00    	ld	a,(_sprite_on_air)
1141  01FC  B7          	or	a,a
1142  01FD  20 0D       	jr	NZ,l_spr_move_right_00102
1143  01FF  2A 00 00    	ld	hl,(_sprite)
1144  0202  26 00       	ld	h,0x00
1145  0204  01 00 00    	ld	bc,_colint
1146  0207  09          	add	hl,bc
1147  0208  7E          	ld	a,(hl)
1148  0209  C6 FF       	add	a,0xff
1149  020B  77          	ld	(hl),a
1150  020C              l_spr_move_right_00102:
1151  020C  2E 01       	ld	l,0x01
1152  020E  18 56       	jr	l_spr_move_right_00118
1153  0210              l_spr_move_right_00107:
1154  0210  2A 00 00    	ld	hl,(_sprite)
1155  0213  26 00       	ld	h,0x00
1156  0215  01 00 00    	ld	bc,_col
1157  0218  09          	add	hl,bc
1158  0219  34          	inc	(hl)
1159  021A  2A 00 00    	ld	hl,(_sprite)
1160  021D  26 00       	ld	h,0x00
1161  021F  01 00 00    	ld	bc,_colint
1162  0222  09          	add	hl,bc
1163  0223  AF          	xor	a,a
1164  0224  77          	ld	(hl),a
1165  0225  2A 00 00    	ld	hl,(_sprite)
1166  0228  26 00       	ld	h,0x00
1167  022A  01 00 00    	ld	bc,_col
1168  022D  09          	add	hl,bc
1169  022E  5E          	ld	e,(hl)
1170  022F  3E 1E       	ld	a,0x1e
1171  0231  93          	sub	a,e
1172  0232  30 30       	jr	NC,l_spr_move_right_00117
1173  0234  3A 00 00    	ld	a,(_sprite)
1174  0237  D6 07       	sub	a,0x07
1175  0239  28 04       	jr	Z,l_spr_move_right_00151
1176  023B  4D          	ld	c,l
1177  023C  44          	ld	b,h
1178  023D  18 1C       	jr	l_spr_move_right_00112
1179  023F              l_spr_move_right_00151:
1180  023F  CD 47 03    	call	_spr_page_right
1181  0242  3A 00 00    	ld	a,(_sprite)
1182  0245  C6 00       	add	a,+((_col) & 0xFF)
1183  0247  4D          	ld	c,l
1184  0248  5F          	ld	e,a
1185  0249  3E 00       	ld	a,+((_col) / 256)
1186  024B  CE 00       	adc	a,0x00
1187  024D  57          	ld	d,a
1188  024E  79          	ld	a, c
1189  024F  B7          	or	a, a
1190  0250  28 04       	jr	Z,l_spr_move_right_00109
1191  0252  AF          	xor	a, a
1192  0253  12          	ld	(de), a
1193  0254  18 0E       	jr	l_spr_move_right_00117
1194  0256              l_spr_move_right_00109:
1195  0256  3E 1E       	ld	a,0x1e
1196  0258  12          	ld	(de), a
1197  0259  18 09       	jr	l_spr_move_right_00117
1198  025B              l_spr_move_right_00112:
1199  025B  3E 1E       	ld	a,0x1e
1200  025D  02          	ld	(bc), a
1201  025E  2A 00 00    	ld	hl,(_sprite)
1202  0261  CD DD 05    	call	_spr_destroy
1203  0264              l_spr_move_right_00117:
1204  0264  2E 00       	ld	l,0x00
1205  0266              l_spr_move_right_00118:
1206  0266  C9          	ret
1207  0267              	SECTION code_compiler
1208  0267              ;	---------------------------------
1209  0267              ; Function spr_move_left
1210  0267              ; ---------------------------------
1211  0267              _spr_move_left:
1212  0267  01 00 00    	ld	bc,_colint+0
1213  026A  79          	ld	a, c
1214  026B  21 00 00    	ld	hl,_sprite
1215  026E  86          	add	a, (hl)
1216  026F  5F          	ld	e, a
1217  0270  78          	ld	a, b
1218  0271  CE 00       	adc	a,0x00
1219  0273  57          	ld	d, a
1220  0274  1A          	ld	a, (de)
1221  0275  C6 FF       	add	a,0xff
1222  0277  12          	ld	(de), a
1223  0278  79          	ld	a, c
1224  0279  86          	add	a, (hl)
1225  027A  5F          	ld	e, a
1226  027B  78          	ld	a, b
1227  027C  CE 00       	adc	a,0x00
1228  027E  57          	ld	d, a
1229  027F  1A          	ld	a, (de)
1230  0280  3C          	inc	a
1231  0281  C2 44 03    	jp	NZ,l_spr_move_left_00117
1232  0284  5E          	ld	e,(hl)
1233  0285  16 00       	ld	d,0x00
1234  0287  21 00 00    	ld	hl,_lin
1235  028A  19          	add	hl,de
1236  028B  7E          	ld	a,(hl)
1237  028C  32 00 00    	ld	(_s_lin1),a
1238  028F  2A 00 00    	ld	hl,(_sprite)
1239  0292  26 00       	ld	h,0x00
1240  0294  11 00 00    	ld	de,_col
1241  0297  19          	add	hl,de
1242  0298  7E          	ld	a,(hl)
1243  0299  B7          	or	a, a
1244  029A  28 44       	jr	Z,l_spr_move_left_00107
1245  029C  C6 FF       	add	a,0xff
1246  029E  32 00 00    	ld	(_s_col1),a
1247  02A1  C5          	push	bc
1248  02A2  F5          	push	af
1249  02A3  33          	inc	sp
1250  02A4  3A 00 00    	ld	a,(_s_lin1)
1251  02A7  F5          	push	af
1252  02A8  33          	inc	sp
1253  02A9  CD 00 00    	call	_game_check_map
1254  02AC  F1          	pop	af
1255  02AD  C1          	pop	bc
1256  02AE  7C          	ld	a,h
1257  02AF  B5          	or	a,l
1258  02B0  20 16       	jr	NZ,l_spr_move_left_00103
1259  02B2  3A 00 00    	ld	a,(_s_lin1)
1260  02B5  C6 0F       	add	a,0x0f
1261  02B7  57          	ld	d, a
1262  02B8  3A 00 00    	ld	a,(_s_col1)
1263  02BB  C5          	push	bc
1264  02BC  5A          	ld	e,d
1265  02BD  57          	ld	d,a
1266  02BE  D5          	push	de
1267  02BF  CD 00 00    	call	_game_check_map
1268  02C2  F1          	pop	af
1269  02C3  C1          	pop	bc
1270  02C4  7C          	ld	a,h
1271  02C5  B5          	or	a,l
1272  02C6  28 18       	jr	Z,l_spr_move_left_00107
1273  02C8              l_spr_move_left_00103:
1274  02C8  2A 00 00    	ld	hl,(_sprite)
1275  02CB  26 00       	ld	h,0x00
1276  02CD  09          	add	hl,bc
1277  02CE  34          	inc	(hl)
1278  02CF  3A 00 00    	ld	a,(_sprite_on_air)
1279  02D2  B7          	or	a, a
1280  02D3  20 07       	jr	NZ,l_spr_move_left_00102
1281  02D5  2A 00 00    	ld	hl,(_sprite)
1282  02D8  26 00       	ld	h,0x00
1283  02DA  09          	add	hl,bc
1284  02DB  34          	inc	(hl)
1285  02DC              l_spr_move_left_00102:
1286  02DC  2E 01       	ld	l,0x01
1287  02DE  18 66       	jr	l_spr_move_left_00118
1288  02E0              l_spr_move_left_00107:
1289  02E0  2A 00 00    	ld	hl,(_sprite)
1290  02E3  26 00       	ld	h,0x00
1291  02E5  11 00 00    	ld	de,_col
1292  02E8  19          	add	hl,de
1293  02E9  7E          	ld	a,(hl)
1294  02EA  EB          	ex	de,hl
1295  02EB  C6 FF       	add	a,0xff
1296  02ED  12          	ld	(de),a
1297  02EE  79          	ld	a,c
1298  02EF  21 00 00    	ld	hl,_sprite
1299  02F2  86          	add	a, (hl)
1300  02F3  4F          	ld	c, a
1301  02F4  78          	ld	a, b
1302  02F5  CE 00       	adc	a,0x00
1303  02F7  47          	ld	b, a
1304  02F8  5E          	ld	e,(hl)
1305  02F9  16 00       	ld	d,0x00
1306  02FB  21 00 00    	ld	hl,_class
1307  02FE  19          	add	hl,de
1308  02FF  5E          	ld	e, (hl)
1309  0300  16 00       	ld	d,0x00
1310  0302  21 00 00    	ld	hl,_sprite_frames
1311  0305  19          	add	hl, de
1312  0306  5E          	ld	e, (hl)
1313  0307  1D          	dec	e
1314  0308  7B          	ld	a, e
1315  0309  02          	ld	(bc), a
1316  030A  2A 00 00    	ld	hl,(_sprite)
1317  030D  26 00       	ld	h,0x00
1318  030F  01 00 00    	ld	bc,_col
1319  0312  09          	add	hl,bc
1320  0313  7E          	ld	a,(hl)
1321  0314  3C          	inc	a
1322  0315  20 2D       	jr	NZ,l_spr_move_left_00117
1323  0317  3A 00 00    	ld	a,(_sprite)
1324  031A  D6 07       	sub	a,0x07
1325  031C  4D          	ld	c,l
1326  031D  44          	ld	b,h
1327  031E  20 1C       	jr	NZ,l_spr_move_left_00112
1328  0320  CD 61 03    	call	_spr_page_left
1329  0323  3A 00 00    	ld	a,(_sprite)
1330  0326  C6 00       	add	a,+((_col) & 0xFF)
1331  0328  4D          	ld	c,l
1332  0329  5F          	ld	e,a
1333  032A  3E 00       	ld	a,+((_col) / 256)
1334  032C  CE 00       	adc	a,0x00
1335  032E  57          	ld	d,a
1336  032F  79          	ld	a, c
1337  0330  B7          	or	a, a
1338  0331  28 05       	jr	Z,l_spr_move_left_00109
1339  0333  3E 1E       	ld	a,0x1e
1340  0335  12          	ld	(de), a
1341  0336  18 0C       	jr	l_spr_move_left_00117
1342  0338              l_spr_move_left_00109:
1343  0338  AF          	xor	a, a
1344  0339  12          	ld	(de), a
1345  033A  18 08       	jr	l_spr_move_left_00117
1346  033C              l_spr_move_left_00112:
1347  033C  AF          	xor	a, a
1348  033D  02          	ld	(bc), a
1349  033E  2A 00 00    	ld	hl,(_sprite)
1350  0341  CD DD 05    	call	_spr_destroy
1351  0344              l_spr_move_left_00117:
1352  0344  2E 00       	ld	l,0x00
1353  0346              l_spr_move_left_00118:
1354  0346  C9          	ret
1355  0347              	SECTION code_compiler
1356  0347              ;	---------------------------------
1357  0347              ; Function spr_page_right
1358  0347              ; ---------------------------------
1359  0347              _spr_page_right:
1360  0347  3A 00 00    	ld	a,(_scr_curr)
1361  034A  21 00 00    	ld	hl,_map_width
1362  034D  96          	sub	a, (hl)
1363  034E  30 0E       	jr	NC,l_spr_page_right_00102
1364  0350  21 00 00    	ld	hl,_scr_curr
1365  0353  34          	inc	(hl)
1366  0354  CD 88 03    	call	_spr_page_map
1367  0357  CD 00 00    	call	_game_draw_screen
1368  035A  2E 01       	ld	l,0x01
1369  035C  18 02       	jr	l_spr_page_right_00103
1370  035E              l_spr_page_right_00102:
1371  035E  2E 00       	ld	l,0x00
1372  0360              l_spr_page_right_00103:
1373  0360  C9          	ret
1374  0361              	SECTION code_compiler
1375  0361              ;	---------------------------------
1376  0361              ; Function spr_page_left
1377  0361              ; ---------------------------------
1378  0361              _spr_page_left:
1379  0361  2A 00 00    	ld	hl,(_sprite)
1380  0364  26 00       	ld	h,0x00
1381  0366  01 00 00    	ld	bc,_class
1382  0369  09          	add	hl,bc
1383  036A  7E          	ld	a,(hl)
1384  036B  D6 10       	sub	a,0x10
1385  036D  28 04       	jr	Z,l_spr_page_left_00102
1386  036F  2E 00       	ld	l,0x00
1387  0371  18 14       	jr	l_spr_page_left_00105
1388  0373              l_spr_page_left_00102:
1389  0373  21 00 00    	ld	hl,_scr_curr
1390  0376  7E          	ld	a, (hl)
1391  0377  B7          	or	a, a
1392  0378  28 0B       	jr	Z,l_spr_page_left_00104
1393  037A  35          	dec	(hl)
1394  037B  CD 88 03    	call	_spr_page_map
1395  037E  CD 00 00    	call	_game_draw_screen
1396  0381  2E 01       	ld	l,0x01
1397  0383  18 02       	jr	l_spr_page_left_00105
1398  0385              l_spr_page_left_00104:
1399  0385  2E 00       	ld	l,0x00
1400  0387              l_spr_page_left_00105:
1401  0387  C9          	ret
1402  0388              	SECTION code_compiler
1403  0388              ;	---------------------------------
1404  0388              ; Function spr_page_map
1405  0388              ; ---------------------------------
1406  0388              _spr_page_map:
1407  0388  CD 00 00    	call	___sdcc_enter_ix
1408  038B  F5          	push	af
1409  038C  3E 10       	ld	a,0x10
1410  038E  F5          	push	af
1411  038F  33          	inc	sp
1412  0390  0E 00       	ld	c,0x00
1413  0392              l_spr_page_map_00123:
1414  0392  3E 07       	ld	a,0x07
1415  0394  21 00 00    	ld	hl,_scr_curr
1416  0397  96          	sub	a, (hl)
1417  0398  DA 62 04    	jp	C, l_spr_page_map_00109
1418  039B  59          	ld	e, c
1419  039C  16 00       	ld	d,0x00
1420  039E  13          	inc	de
1421  039F  D5          	push	de
1422  03A0  5E          	ld	e, (hl)
1423  03A1  16 00       	ld	d,0x00
1424  03A3  21 AB 03    	ld	hl,l_spr_page_map_00167
1425  03A6  19          	add	hl, de
1426  03A7  19          	add	hl, de
1427  03A8  19          	add	hl, de
1428  03A9  D1          	pop	de
1429  03AA  E9          	jp	(hl)
1430  03AB              l_spr_page_map_00167:
1431  03AB  C3 C3 03    	jp	l_spr_page_map_00101
1432  03AE  C3 D8 03    	jp	l_spr_page_map_00102
1433  03B1  C3 EC 03    	jp	l_spr_page_map_00103
1434  03B4  C3 00 04    	jp	l_spr_page_map_00104
1435  03B7  C3 14 04    	jp	l_spr_page_map_00105
1436  03BA  C3 28 04    	jp	l_spr_page_map_00106
1437  03BD  C3 3C 04    	jp	l_spr_page_map_00107
1438  03C0  C3 50 04    	jp	l_spr_page_map_00108
1439  03C3              l_spr_page_map_00101:
1440  03C3  06 00       	ld	b,0x00
1441  03C5  21 00 00    	ld	hl,_scr_0
1442  03C8  09          	add	hl, bc
1443  03C9  7E          	ld	a, (hl)
1444  03CA  DD 77 FF    	ld	(ix-1),a
1445  03CD  21 00 00    	ld	hl,_scr_0
1446  03D0  19          	add	hl, de
1447  03D1  7E          	ld	a, (hl)
1448  03D2  DD 77 FE    	ld	(ix-2),a
1449  03D5  C3 62 04    	jp	l_spr_page_map_00109
1450  03D8              l_spr_page_map_00102:
1451  03D8  06 00       	ld	b,0x00
1452  03DA  21 00 00    	ld	hl,_scr_1
1453  03DD  09          	add	hl, bc
1454  03DE  7E          	ld	a, (hl)
1455  03DF  DD 77 FF    	ld	(ix-1),a
1456  03E2  21 00 00    	ld	hl,_scr_1
1457  03E5  19          	add	hl, de
1458  03E6  7E          	ld	a, (hl)
1459  03E7  DD 77 FE    	ld	(ix-2),a
1460  03EA  18 76       	jr	l_spr_page_map_00109
1461  03EC              l_spr_page_map_00103:
1462  03EC  06 00       	ld	b,0x00
1463  03EE  21 00 00    	ld	hl,_scr_2
1464  03F1  09          	add	hl, bc
1465  03F2  7E          	ld	a, (hl)
1466  03F3  DD 77 FF    	ld	(ix-1),a
1467  03F6  21 00 00    	ld	hl,_scr_2
1468  03F9  19          	add	hl, de
1469  03FA  7E          	ld	a, (hl)
1470  03FB  DD 77 FE    	ld	(ix-2),a
1471  03FE  18 62       	jr	l_spr_page_map_00109
1472  0400              l_spr_page_map_00104:
1473  0400  06 00       	ld	b,0x00
1474  0402  21 00 00    	ld	hl,_scr_3
1475  0405  09          	add	hl, bc
1476  0406  7E          	ld	a, (hl)
1477  0407  DD 77 FF    	ld	(ix-1),a
1478  040A  21 00 00    	ld	hl,_scr_3
1479  040D  19          	add	hl, de
1480  040E  7E          	ld	a, (hl)
1481  040F  DD 77 FE    	ld	(ix-2),a
1482  0412  18 4E       	jr	l_spr_page_map_00109
1483  0414              l_spr_page_map_00105:
1484  0414  06 00       	ld	b,0x00
1485  0416  21 00 00    	ld	hl,_scr_4
1486  0419  09          	add	hl, bc
1487  041A  7E          	ld	a, (hl)
1488  041B  DD 77 FF    	ld	(ix-1),a
1489  041E  21 00 00    	ld	hl,_scr_4
1490  0421  19          	add	hl, de
1491  0422  7E          	ld	a, (hl)
1492  0423  DD 77 FE    	ld	(ix-2),a
1493  0426  18 3A       	jr	l_spr_page_map_00109
1494  0428              l_spr_page_map_00106:
1495  0428  06 00       	ld	b,0x00
1496  042A  21 00 00    	ld	hl,_scr_5
1497  042D  09          	add	hl, bc
1498  042E  7E          	ld	a, (hl)
1499  042F  DD 77 FF    	ld	(ix-1),a
1500  0432  21 00 00    	ld	hl,_scr_5
1501  0435  19          	add	hl, de
1502  0436  7E          	ld	a, (hl)
1503  0437  DD 77 FE    	ld	(ix-2),a
1504  043A  18 26       	jr	l_spr_page_map_00109
1505  043C              l_spr_page_map_00107:
1506  043C  06 00       	ld	b,0x00
1507  043E  21 00 00    	ld	hl,_scr_6
1508  0441  09          	add	hl, bc
1509  0442  7E          	ld	a, (hl)
1510  0443  DD 77 FF    	ld	(ix-1),a
1511  0446  21 00 00    	ld	hl,_scr_6
1512  0449  19          	add	hl, de
1513  044A  7E          	ld	a, (hl)
1514  044B  DD 77 FE    	ld	(ix-2),a
1515  044E  18 12       	jr	l_spr_page_map_00109
1516  0450              l_spr_page_map_00108:
1517  0450  06 00       	ld	b,0x00
1518  0452  21 00 00    	ld	hl,_scr_7
1519  0455  09          	add	hl, bc
1520  0456  7E          	ld	a, (hl)
1521  0457  DD 77 FF    	ld	(ix-1),a
1522  045A  21 00 00    	ld	hl,_scr_7
1523  045D  19          	add	hl, de
1524  045E  7E          	ld	a, (hl)
1525  045F  DD 77 FE    	ld	(ix-2),a
1526  0462              l_spr_page_map_00109:
1527  0462  DD 7E FF    	ld	a,(ix-1)
1528  0465  D6 80       	sub	a,0x80
1529  0467  30 14       	jr	NC,l_spr_page_map_00114
1530  0469  3E 00       	ld	a, +((_scr_map) & 0xFF)
1531  046B  DD 86 FD    	add	a,(ix-3)
1532  046E  5F          	ld	e, a
1533  046F  3E 00       	ld	a, +((_scr_map) / 256)
1534  0471  CE 00       	adc	a,0x00
1535  0473  57          	ld	d, a
1536  0474  DD 7E FF    	ld	a,(ix-1)
1537  0477  12          	ld	(de), a
1538  0478  DD 34 FD    	inc	(ix-3)
1539  047B  18 29       	jr	l_spr_page_map_00115
1540  047D              l_spr_page_map_00114:
1541  047D  DD 7E FF    	ld	a,(ix-1)
1542  0480  C6 80       	add	a,0x80
1543  0482  47          	ld	b, a
1544  0483  DD 5E FD    	ld	e,(ix-3)
1545  0486  16 00       	ld	d,0x00
1546  0488              l_spr_page_map_00121:
1547  0488  7A          	ld	a, d
1548  0489  90          	sub	a, b
1549  048A  30 16       	jr	NC,l_spr_page_map_00138
1550  048C  3E 00       	ld	a, +((_scr_map) & 0xFF)
1551  048E  83          	add	a, e
1552  048F  6F          	ld	l, a
1553  0490  3E 00       	ld	a, +((_scr_map) / 256)
1554  0492  CE 00       	adc	a,0x00
1555  0494  67          	ld	h, a
1556  0495  DD 7E FE    	ld	a,(ix-2)
1557  0498  77          	ld	(hl), a
1558  0499  1C          	inc	e
1559  049A  7B          	ld	a, e
1560  049B  D6 A0       	sub	a,0xa0
1561  049D  30 03       	jr	NC,l_spr_page_map_00138
1562  049F  14          	inc	d
1563  04A0  18 E6       	jr	l_spr_page_map_00121
1564  04A2              l_spr_page_map_00138:
1565  04A2  DD 73 FD    	ld	(ix-3),e
1566  04A5  0C          	inc	c
1567  04A6              l_spr_page_map_00115:
1568  04A6  DD 7E FD    	ld	a,(ix-3)
1569  04A9  D6 A0       	sub	a,0xa0
1570  04AB  30 07       	jr	NC,l_spr_page_map_00136
1571  04AD  0C          	inc	c
1572  04AE  79          	ld	a, c
1573  04AF  D6 A0       	sub	a,0xa0
1574  04B1  DA 92 03    	jp	C, l_spr_page_map_00123
1575  04B4              l_spr_page_map_00136:
1576  04B4  0E 00       	ld	c,0x00
1577  04B6              l_spr_page_map_00125:
1578  04B6  06 00       	ld	b,0x00
1579  04B8  21 00 00    	ld	hl,_class
1580  04BB  09          	add	hl, bc
1581  04BC  36 00       	ld	(hl),0x00
1582  04BE  C5          	push	bc
1583  04BF  21 00 00    	ld	hl,0x0000
1584  04C2  E5          	push	hl
1585  04C3  AF          	xor	a, a
1586  04C4  F5          	push	af
1587  04C5  33          	inc	sp
1588  04C6  79          	ld	a, c
1589  04C7  F5          	push	af
1590  04C8  33          	inc	sp
1591  04C9  CD 00 00    	call	_NIRVANAP_spriteT_callee
1592  04CC  C1          	pop	bc
1593  04CD  0C          	inc	c
1594  04CE  79          	ld	a, c
1595  04CF  D6 07       	sub	a,0x07
1596  04D1  38 E3       	jr	C,l_spr_page_map_00125
1597  04D3  CD 7A 0A    	call	_spr_init_anim_bullets
1598  04D6  DD F9       	ld	sp, ix
1599  04D8  DD E1       	pop	ix
1600  04DA  C9          	ret
1601  04DB              	SECTION code_compiler
1602  04DB              ;	---------------------------------
1603  04DB              ; Function spr_redraw
1604  04DB              ; ---------------------------------
1605  04DB              _spr_redraw:
1606  04DB  2A 00 00    	ld	hl,(_sprite)
1607  04DE  26 00       	ld	h,0x00
1608  04E0  01 00 00    	ld	bc,_tile
1609  04E3  09          	add	hl,bc
1610  04E4  4E          	ld	c, (hl)
1611  04E5  3A 00 00    	ld	a,(_sprite)
1612  04E8  5F          	ld	e,a
1613  04E9  16 00       	ld	d,0x00
1614  04EB  21 00 00    	ld	hl,_colint
1615  04EE  19          	add	hl,de
1616  04EF  7E          	ld	a,(hl)
1617  04F0  81          	add	a,c
1618  04F1  32 00 00    	ld	(_s_tile1),a
1619  04F4  2A 00 00    	ld	hl,(_sprite)
1620  04F7  26 00       	ld	h,0x00
1621  04F9  01 00 00    	ld	bc,_col
1622  04FC  09          	add	hl,bc
1623  04FD  7E          	ld	a,(hl)
1624  04FE  32 00 00    	ld	(_s_col1),a
1625  0501  2A 00 00    	ld	hl,(_sprite)
1626  0504  26 00       	ld	h,0x00
1627  0506  01 00 00    	ld	bc,_lin
1628  0509  09          	add	hl,bc
1629  050A  7E          	ld	a,(hl)
1630  050B  21 00 00    	ld	hl,_s_lin1
1631  050E  77          	ld	(hl),a
1632  050F  4F          	ld	c,a
1633  0510  7E          	ld	a, (hl)
1634  0511  21 00 00    	ld	hl,_s_lin0
1635  0514  96          	sub	a, (hl)
1636  0515  20 0A       	jr	NZ,l_spr_redraw_00117
1637  0517  3A 00 00    	ld	a,(_s_col1)
1638  051A  21 00 00    	ld	hl,_s_col0
1639  051D  96          	sub	a, (hl)
1640  051E  CA BA 05    	jp	Z,l_spr_redraw_00118
1641  0521              l_spr_redraw_00117:
1642  0521  3A 00 00    	ld	a,(_sprite)
1643  0524  D6 07       	sub	a,0x07
1644  0526  20 04       	jr	NZ,l_spr_redraw_00158
1645  0528  3E 01       	ld	a,0x01
1646  052A  18 01       	jr	l_spr_redraw_00159
1647  052C              l_spr_redraw_00158:
1648  052C  AF          	xor	a,a
1649  052D              l_spr_redraw_00159:
1650  052D  47          	ld	b,a
1651  052E  B7          	or	a, a
1652  052F  28 12       	jr	Z,l_spr_redraw_00105
1653  0531  3A 00 00    	ld	a,(_player_over_stair)
1654  0534  B7          	or	a, a
1655  0535  28 0C       	jr	Z,l_spr_redraw_00105
1656  0537  79          	ld	a, c
1657  0538  E6 03       	and	a,0x03
1658  053A  20 07       	jr	NZ,l_spr_redraw_00105
1659  053C  21 00 00    	ld	hl,_s_tile1
1660  053F  34          	inc	(hl)
1661  0540  34          	inc	(hl)
1662  0541  34          	inc	(hl)
1663  0542  34          	inc	(hl)
1664  0543              l_spr_redraw_00105:
1665  0543  78          	ld	a, b
1666  0544  B7          	or	a, a
1667  0545  28 05       	jr	Z,l_spr_redraw_00113
1668  0547  CD F8 08    	call	_spr_back_repaint
1669  054A  18 57       	jr	l_spr_redraw_00114
1670  054C              l_spr_redraw_00113:
1671  054C  3A 00 00    	ld	a,(_s_lin1)
1672  054F  E6 07       	and	a,0x07
1673  0551  20 05       	jr	NZ,l_spr_redraw_00110
1674  0553  CD F8 08    	call	_spr_back_repaint
1675  0556  18 4B       	jr	l_spr_redraw_00114
1676  0558              l_spr_redraw_00110:
1677  0558  21 00 00    	ld	hl,_s_state
1678  055B  CB 46       	bit	0, (hl)
1679  055D  28 24       	jr	Z,l_spr_redraw_00107
1680  055F  3A 00 00    	ld	a,(_s_lin0)
1681  0562  C6 08       	add	a,0x08
1682  0564  47          	ld	b, a
1683  0565  3A 00 00    	ld	a,(_s_col0)
1684  0568  F5          	push	af
1685  0569  33          	inc	sp
1686  056A  C5          	push	bc
1687  056B  33          	inc	sp
1688  056C  3E 49       	ld	a,0x49
1689  056E  F5          	push	af
1690  056F  33          	inc	sp
1691  0570  CD 00 00    	call	_NIRVANAP_fillC_callee
1692  0573  21 00 00    	ld	hl,_s_col0
1693  0576  56          	ld	d, (hl)
1694  0577  14          	inc	d
1695  0578  58          	ld	e,b
1696  0579  D5          	push	de
1697  057A  3E 49       	ld	a,0x49
1698  057C  F5          	push	af
1699  057D  33          	inc	sp
1700  057E  CD 00 00    	call	_NIRVANAP_fillC_callee
1701  0581  18 20       	jr	l_spr_redraw_00114
1702  0583              l_spr_redraw_00107:
1703  0583  3A 00 00    	ld	a,(_s_col0)
1704  0586  F5          	push	af
1705  0587  33          	inc	sp
1706  0588  3A 00 00    	ld	a,(_s_lin0)
1707  058B  57          	ld	d,a
1708  058C  1E 49       	ld	e,0x49
1709  058E  D5          	push	de
1710  058F  CD 00 00    	call	_NIRVANAP_fillC_callee
1711  0592  21 00 00    	ld	hl,_s_col0
1712  0595  46          	ld	b, (hl)
1713  0596  04          	inc	b
1714  0597  C5          	push	bc
1715  0598  33          	inc	sp
1716  0599  3A 00 00    	ld	a,(_s_lin0)
1717  059C  57          	ld	d,a
1718  059D  1E 49       	ld	e,0x49
1719  059F  D5          	push	de
1720  05A0  CD 00 00    	call	_NIRVANAP_fillC_callee
1721  05A3              l_spr_redraw_00114:
1722  05A3  2A FF FF    	ld	hl,(_s_col1 - 1)
1723  05A6  3A 00 00    	ld	a,(_s_lin1)
1724  05A9  6F          	ld	l,a
1725  05AA  E5          	push	hl
1726  05AB  2A FF FF    	ld	hl,(_s_tile1 - 1)
1727  05AE  3A 00 00    	ld	a,(_sprite)
1728  05B1  6F          	ld	l,a
1729  05B2  E5          	push	hl
1730  05B3  CD 00 00    	call	_NIRVANAP_spriteT_callee
1731  05B6  2E 01       	ld	l,0x01
1732  05B8  18 22       	jr	l_spr_redraw_00121
1733  05BA              l_spr_redraw_00118:
1734  05BA  3A 00 00    	ld	a,(_s_tile1)
1735  05BD  21 00 00    	ld	hl,_s_tile0
1736  05C0  96          	sub	a, (hl)
1737  05C1  28 17       	jr	Z,l_spr_redraw_00119
1738  05C3  2A FF FF    	ld	hl,(_s_col1 - 1)
1739  05C6  3A 00 00    	ld	a,(_s_lin1)
1740  05C9  6F          	ld	l,a
1741  05CA  E5          	push	hl
1742  05CB  2A FF FF    	ld	hl,(_s_tile1 - 1)
1743  05CE  3A 00 00    	ld	a,(_sprite)
1744  05D1  6F          	ld	l,a
1745  05D2  E5          	push	hl
1746  05D3  CD 00 00    	call	_NIRVANAP_spriteT_callee
1747  05D6  2E 00       	ld	l,0x00
1748  05D8  18 02       	jr	l_spr_redraw_00121
1749  05DA              l_spr_redraw_00119:
1750  05DA  2E 00       	ld	l,0x00
1751  05DC              l_spr_redraw_00121:
1752  05DC  C9          	ret
1753  05DD              	SECTION code_compiler
1754  05DD              ;	---------------------------------
1755  05DD              ; Function spr_destroy
1756  05DD              ; ---------------------------------
1757  05DD              _spr_destroy:
1758  05DD  CD 00 00    	call	___sdcc_enter_ix
1759  05E0  F5          	push	af
1760  05E1  4D          	ld	c, l
1761  05E2  21 00 00    	ld	hl,_spr_count
1762  05E5  35          	dec	(hl)
1763  05E6  3E 00       	ld	a, +((_lin) & 0xFF)
1764  05E8  81          	add	a, c
1765  05E9  DD 77 FE    	ld	(ix-2),a
1766  05EC  3E 00       	ld	a, +((_lin) / 256)
1767  05EE  CE 00       	adc	a,0x00
1768  05F0  DD 77 FF    	ld	(ix-1),a
1769  05F3  E1          	pop	hl
1770  05F4  7E          	ld	a,(hl)
1771  05F5  E5          	push	hl
1772  05F6  32 00 00    	ld	(_s_lin0),a
1773  05F9  3E 00       	ld	a, +((_col) & 0xFF)
1774  05FB  81          	add	a, c
1775  05FC  5F          	ld	e, a
1776  05FD  3E 00       	ld	a, +((_col) / 256)
1777  05FF  CE 00       	adc	a,0x00
1778  0601  57          	ld	d, a
1779  0602  1A          	ld	a, (de)
1780  0603  32 00 00    	ld	(_s_col0),a
1781  0606  C5          	push	bc
1782  0607  D5          	push	de
1783  0608  21 00 00    	ld	hl,0x0000
1784  060B  E5          	push	hl
1785  060C  AF          	xor	a, a
1786  060D  F5          	push	af
1787  060E  33          	inc	sp
1788  060F  79          	ld	a, c
1789  0610  F5          	push	af
1790  0611  33          	inc	sp
1791  0612  CD 00 00    	call	_NIRVANAP_spriteT_callee
1792  0615  CD F8 08    	call	_spr_back_repaint
1793  0618  D1          	pop	de
1794  0619  C1          	pop	bc
1795  061A  06 00       	ld	b,0x00
1796  061C  21 00 00    	ld	hl,_tile
1797  061F  09          	add	hl, bc
1798  0620  AF          	xor	a,a
1799  0621  77          	ld	(hl),a
1800  0622  E1          	pop	hl
1801  0623  12          	ld	(de),a
1802  0624  E5          	push	hl
1803  0625  36 00       	ld	(hl),0x00
1804  0627  11 00 00    	ld	de,_class+0
1805  062A  69          	ld	l,c
1806  062B  26 00       	ld	h,0x00
1807  062D  19          	add	hl, de
1808  062E  36 00       	ld	(hl),0x00
1809  0630  11 00 00    	ld	de,_state+0
1810  0633  69          	ld	l,c
1811  0634  26 00       	ld	h,0x00
1812  0636  19          	add	hl, de
1813  0637  36 00       	ld	(hl),0x00
1814  0639  11 00 00    	ld	de,_state_a+0
1815  063C  69          	ld	l,c
1816  063D  26 00       	ld	h,0x00
1817  063F  19          	add	hl, de
1818  0640  F1          	pop	af
1819  0641  36 00       	ld	(hl),0x00
1820  0643  DD E1       	pop	ix
1821  0645  C9          	ret
1822  0646              	SECTION code_compiler
1823  0646              ;	---------------------------------
1824  0646              ; Function spr_tile
1825  0646              ; ---------------------------------
1826  0646              _spr_tile:
1827  0646  45          	ld	b,l
1828  0647  11 00 00    	ld	de,_class+0
1829  064A  26 00       	ld	h,0x00
1830  064C  19          	add	hl, de
1831  064D  5E          	ld	e, (hl)
1832  064E  3E 0B       	ld	a,0x0b
1833  0650  93          	sub	a, e
1834  0651  DA 2C 07    	jp	C, l_spr_tile_00112
1835  0654  16 00       	ld	d,0x00
1836  0656  21 5D 06    	ld	hl,l_spr_tile_00119
1837  0659  19          	add	hl, de
1838  065A  19          	add	hl, de
1839  065B  19          	add	hl, de
1840  065C  E9          	jp	(hl)
1841  065D              l_spr_tile_00119:
1842  065D  C3 2C 07    	jp	l_spr_tile_00112
1843  0660  C3 D1 06    	jp	l_spr_tile_00106
1844  0663  C3 E1 06    	jp	l_spr_tile_00107
1845  0666  C3 F0 06    	jp	l_spr_tile_00108
1846  0669  C3 FF 06    	jp	l_spr_tile_00109
1847  066C  C3 81 06    	jp	l_spr_tile_00101
1848  066F  C3 91 06    	jp	l_spr_tile_00102
1849  0672  C3 A1 06    	jp	l_spr_tile_00103
1850  0675  C3 B2 06    	jp	l_spr_tile_00104
1851  0678  C3 C1 06    	jp	l_spr_tile_00105
1852  067B  C3 0E 07    	jp	l_spr_tile_00110
1853  067E  C3 1D 07    	jp	l_spr_tile_00111
1854  0681              l_spr_tile_00101:
1855  0681  AF          	xor	a, a
1856  0682  48          	ld	c,b
1857  0683  47          	ld	b,a
1858  0684  C5          	push	bc
1859  0685  3E 84       	ld	a,0x84
1860  0687  F5          	push	af
1861  0688  33          	inc	sp
1862  0689  CD 2F 07    	call	_spr_tile_dir
1863  068C  F1          	pop	af
1864  068D  33          	inc	sp
1865  068E  C3 2E 07    	jp	l_spr_tile_00113
1866  0691              l_spr_tile_00102:
1867  0691  AF          	xor	a, a
1868  0692  48          	ld	c,b
1869  0693  47          	ld	b,a
1870  0694  C5          	push	bc
1871  0695  3E 88       	ld	a,0x88
1872  0697  F5          	push	af
1873  0698  33          	inc	sp
1874  0699  CD 2F 07    	call	_spr_tile_dir
1875  069C  F1          	pop	af
1876  069D  33          	inc	sp
1877  069E  C3 2E 07    	jp	l_spr_tile_00113
1878  06A1              l_spr_tile_00103:
1879  06A1  3E 02       	ld	a,0x02
1880  06A3  48          	ld	c,b
1881  06A4  47          	ld	b,a
1882  06A5  C5          	push	bc
1883  06A6  3E 8C       	ld	a,0x8c
1884  06A8  F5          	push	af
1885  06A9  33          	inc	sp
1886  06AA  CD 2F 07    	call	_spr_tile_dir
1887  06AD  F1          	pop	af
1888  06AE  33          	inc	sp
1889  06AF  C3 2E 07    	jp	l_spr_tile_00113
1890  06B2              l_spr_tile_00104:
1891  06B2  AF          	xor	a, a
1892  06B3  48          	ld	c,b
1893  06B4  47          	ld	b,a
1894  06B5  C5          	push	bc
1895  06B6  3E 90       	ld	a,0x90
1896  06B8  F5          	push	af
1897  06B9  33          	inc	sp
1898  06BA  CD 2F 07    	call	_spr_tile_dir
1899  06BD  F1          	pop	af
1900  06BE  33          	inc	sp
1901  06BF  18 6D       	jr	l_spr_tile_00113
1902  06C1              l_spr_tile_00105:
1903  06C1  3E 04       	ld	a,0x04
1904  06C3  48          	ld	c,b
1905  06C4  47          	ld	b,a
1906  06C5  C5          	push	bc
1907  06C6  3E 94       	ld	a,0x94
1908  06C8  F5          	push	af
1909  06C9  33          	inc	sp
1910  06CA  CD 2F 07    	call	_spr_tile_dir
1911  06CD  F1          	pop	af
1912  06CE  33          	inc	sp
1913  06CF  18 5D       	jr	l_spr_tile_00113
1914  06D1              l_spr_tile_00106:
1915  06D1  3E 02       	ld	a,0x02
1916  06D3  48          	ld	c,b
1917  06D4  47          	ld	b,a
1918  06D5  C5          	push	bc
1919  06D6  3E 9C       	ld	a,0x9c
1920  06D8  F5          	push	af
1921  06D9  33          	inc	sp
1922  06DA  CD 2F 07    	call	_spr_tile_dir
1923  06DD  F1          	pop	af
1924  06DE  33          	inc	sp
1925  06DF  18 4D       	jr	l_spr_tile_00113
1926  06E1              l_spr_tile_00107:
1927  06E1  AF          	xor	a, a
1928  06E2  48          	ld	c,b
1929  06E3  47          	ld	b,a
1930  06E4  C5          	push	bc
1931  06E5  3E A0       	ld	a,0xa0
1932  06E7  F5          	push	af
1933  06E8  33          	inc	sp
1934  06E9  CD 2F 07    	call	_spr_tile_dir
1935  06EC  F1          	pop	af
1936  06ED  33          	inc	sp
1937  06EE  18 3E       	jr	l_spr_tile_00113
1938  06F0              l_spr_tile_00108:
1939  06F0  AF          	xor	a, a
1940  06F1  48          	ld	c,b
1941  06F2  47          	ld	b,a
1942  06F3  C5          	push	bc
1943  06F4  3E A2       	ld	a,0xa2
1944  06F6  F5          	push	af
1945  06F7  33          	inc	sp
1946  06F8  CD 2F 07    	call	_spr_tile_dir
1947  06FB  F1          	pop	af
1948  06FC  33          	inc	sp
1949  06FD  18 2F       	jr	l_spr_tile_00113
1950  06FF              l_spr_tile_00109:
1951  06FF  AF          	xor	a, a
1952  0700  48          	ld	c,b
1953  0701  47          	ld	b,a
1954  0702  C5          	push	bc
1955  0703  3E A4       	ld	a,0xa4
1956  0705  F5          	push	af
1957  0706  33          	inc	sp
1958  0707  CD 2F 07    	call	_spr_tile_dir
1959  070A  F1          	pop	af
1960  070B  33          	inc	sp
1961  070C  18 20       	jr	l_spr_tile_00113
1962  070E              l_spr_tile_00110:
1963  070E  AF          	xor	a, a
1964  070F  48          	ld	c,b
1965  0710  47          	ld	b,a
1966  0711  C5          	push	bc
1967  0712  3E A6       	ld	a,0xa6
1968  0714  F5          	push	af
1969  0715  33          	inc	sp
1970  0716  CD 2F 07    	call	_spr_tile_dir
1971  0719  F1          	pop	af
1972  071A  33          	inc	sp
1973  071B  18 11       	jr	l_spr_tile_00113
1974  071D              l_spr_tile_00111:
1975  071D  AF          	xor	a, a
1976  071E  48          	ld	c,b
1977  071F  47          	ld	b,a
1978  0720  C5          	push	bc
1979  0721  3E A8       	ld	a,0xa8
1980  0723  F5          	push	af
1981  0724  33          	inc	sp
1982  0725  CD 2F 07    	call	_spr_tile_dir
1983  0728  F1          	pop	af
1984  0729  33          	inc	sp
1985  072A  18 02       	jr	l_spr_tile_00113
1986  072C              l_spr_tile_00112:
1987  072C  2E 00       	ld	l,0x00
1988  072E              l_spr_tile_00113:
1989  072E  C9          	ret
1990  072F              	SECTION code_compiler
1991  072F              ;	---------------------------------
1992  072F              ; Function spr_tile_dir
1993  072F              ; ---------------------------------
1994  072F              _spr_tile_dir:
1995  072F  CD 00 00    	call	___sdcc_enter_ix
1996  0732  3E 00       	ld	a, +((_state) & 0xFF)
1997  0734  DD 86 05    	add	a,(ix+5)
1998  0737  4F          	ld	c, a
1999  0738  3E 00       	ld	a, +((_state) / 256)
2000  073A  CE 00       	adc	a,0x00
2001  073C  47          	ld	b, a
2002  073D  0A          	ld	a, (bc)
2003  073E  4F          	ld	c,a
2004  073F  CB 57       	bit	2,a
2005  0741  28 05       	jr	Z,l_spr_tile_dir_00102
2006  0743  DD 6E 04    	ld	l,(ix+4)
2007  0746  18 2D       	jr	l_spr_tile_dir_00109
2008  0748              l_spr_tile_dir_00102:
2009  0748  DD 7E 04    	ld	a,(ix+4)
2010  074B  DD 86 06    	add	a,(ix+6)
2011  074E  47          	ld	b, a
2012  074F  CB 59       	bit	3, c
2013  0751  28 03       	jr	Z,l_spr_tile_dir_00104
2014  0753  68          	ld	l, b
2015  0754  18 1F       	jr	l_spr_tile_dir_00109
2016  0756              l_spr_tile_dir_00104:
2017  0756  3E 00       	ld	a, +((_state_a) & 0xFF)
2018  0758  DD 86 05    	add	a,(ix+5)
2019  075B  5F          	ld	e, a
2020  075C  3E 00       	ld	a, +((_state_a) / 256)
2021  075E  CE 00       	adc	a,0x00
2022  0760  57          	ld	d, a
2023  0761  1A          	ld	a, (de)
2024  0762  CB 67       	bit	4, a
2025  0764  28 05       	jr	Z,l_spr_tile_dir_00106
2026  0766  DD 6E 04    	ld	l,(ix+4)
2027  0769  18 0A       	jr	l_spr_tile_dir_00109
2028  076B              l_spr_tile_dir_00106:
2029  076B  CB 5F       	bit	3, a
2030  076D  28 03       	jr	Z,l_spr_tile_dir_00108
2031  076F  68          	ld	l, b
2032  0770  18 03       	jr	l_spr_tile_dir_00109
2033  0772              l_spr_tile_dir_00108:
2034  0772  DD 6E 04    	ld	l,(ix+4)
2035  0775              l_spr_tile_dir_00109:
2036  0775  DD E1       	pop	ix
2037  0777  C9          	ret
2038  0778              	SECTION code_compiler
2039  0778              ;	---------------------------------
2040  0778              ; Function spr_draw_clear
2041  0778              ; ---------------------------------
2042  0778              _spr_draw_clear:
2043  0778  F3          	di
2044  0779  2E 00       	ld	l,0x00
2045  077B  CD 00 00    	call	_zx_cls_fastcall
2046  077E  21 00 00    	ld	hl,_s_lin1
2047  0781  36 10       	ld	(hl),0x10
2048  0783              l_spr_draw_clear_00105:
2049  0783  21 00 00    	ld	hl,_s_col1
2050  0786  36 00       	ld	(hl),0x00
2051  0788              l_spr_draw_clear_00103:
2052  0788  2A FF FF    	ld	hl,(_s_col1 - 1)
2053  078B  3A 00 00    	ld	a,(_s_lin1)
2054  078E  6F          	ld	l,a
2055  078F  E5          	push	hl
2056  0790  AF          	xor	a, a
2057  0791  F5          	push	af
2058  0792  33          	inc	sp
2059  0793  CD 00 00    	call	_NIRVANAP_drawT_raw_callee
2060  0796  21 00 00    	ld	hl,_s_col1
2061  0799  7E          	ld	a,(hl)
2062  079A  C6 02       	add	a,0x02
2063  079C  77          	ld	(hl),a
2064  079D  D6 20       	sub	a,0x20
2065  079F  38 E7       	jr	C,l_spr_draw_clear_00103
2066  07A1  21 00 00    	ld	hl,_s_lin1
2067  07A4  7E          	ld	a, (hl)
2068  07A5  C6 10       	add	a,0x10
2069  07A7  77          	ld	(hl), a
2070  07A8  3E A2       	ld	a,0xa2
2071  07AA  96          	sub	a, (hl)
2072  07AB  30 D6       	jr	NC,l_spr_draw_clear_00105
2073  07AD  FB          	ei
2074  07AE  C9          	ret
2075  07AF              	SECTION code_compiler
2076  07AF              ;	---------------------------------
2077  07AF              ; Function spr_brick_anim
2078  07AF              ; ---------------------------------
2079  07AF              _spr_brick_anim:
2080  07AF  CD 00 00    	call	___sdcc_enter_ix
2081  07B2  F5          	push	af
2082  07B3  DD 75 FF    	ld	(ix-1),l
2083  07B6  21 00 00    	ld	hl,_player_hit_col
2084  07B9  46          	ld	b, (hl)
2085  07BA  21 00 00    	ld	hl,_player_hit_lin
2086  07BD  4E          	ld	c, (hl)
2087  07BE  C5          	push	bc
2088  07BF  C5          	push	bc
2089  07C0  CD 00 00    	call	_spr_calc_index
2090  07C3  F1          	pop	af
2091  07C4  C1          	pop	bc
2092  07C5  22 00 00    	ld	(_index1),hl
2093  07C8  11 F0 FF    	ld	de,0xfff0
2094  07CB  19          	add	hl,de
2095  07CC  11 00 00    	ld	de,_scr_map
2096  07CF  19          	add	hl, de
2097  07D0  7E          	ld	a, (hl)
2098  07D1  DD 77 FE    	ld	(ix-2),a
2099  07D4  11 00 00    	ld	de,_scr_map
2100  07D7  2A 00 00    	ld	hl,(_index1)
2101  07DA  19          	add	hl,de
2102  07DB  66          	ld	h, (hl)
2103  07DC  EB          	ex	de,hl
2104  07DD  DD 7E FF    	ld	a,(ix-1)
2105  07E0  B7          	or	a, a
2106  07E1  28 08       	jr	Z,l_spr_brick_anim_00102
2107  07E3  79          	ld	a, c
2108  07E4  C6 F6       	add	a,0xf6
2109  07E6  32 00 00    	ld	(_tmp),a
2110  07E9  18 06       	jr	l_spr_brick_anim_00103
2111  07EB              l_spr_brick_anim_00102:
2112  07EB  79          	ld	a, c
2113  07EC  C6 F8       	add	a,0xf8
2114  07EE  32 00 00    	ld	(_tmp),a
2115  07F1              l_spr_brick_anim_00103:
2116  07F1  F3          	di
2117  07F2  DD 7E FF    	ld	a,(ix-1)
2118  07F5  B7          	or	a, a
2119  07F6  28 18       	jr	Z,l_spr_brick_anim_00105
2120  07F8  C5          	push	bc
2121  07F9  D5          	push	de
2122  07FA  C5          	push	bc
2123  07FB  33          	inc	sp
2124  07FC  51          	ld	d,c
2125  07FD  1E 49       	ld	e,0x49
2126  07FF  D5          	push	de
2127  0800  CD 00 00    	call	_NIRVANAP_fillT_raw_callee
2128  0803  D1          	pop	de
2129  0804  33          	inc	sp
2130  0805  3A 00 00    	ld	a,(_tmp)
2131  0808  5A          	ld	e,d
2132  0809  57          	ld	d,a
2133  080A  D5          	push	de
2134  080B  CD 00 00    	call	_NIRVANAP_drawT_raw_callee
2135  080E  18 1C       	jr	l_spr_brick_anim_00106
2136  0810              l_spr_brick_anim_00105:
2137  0810  3A 00 00    	ld	a,(_tmp)
2138  0813  C6 F0       	add	a,0xf0
2139  0815  C5          	push	bc
2140  0816  D5          	push	de
2141  0817  4F          	ld	c,a
2142  0818  C5          	push	bc
2143  0819  DD 7E FE    	ld	a,(ix-2)
2144  081C  F5          	push	af
2145  081D  33          	inc	sp
2146  081E  CD 00 00    	call	_NIRVANAP_drawT_raw_callee
2147  0821  D1          	pop	de
2148  0822  33          	inc	sp
2149  0823  3A 00 00    	ld	a,(_tmp)
2150  0826  5A          	ld	e,d
2151  0827  57          	ld	d,a
2152  0828  D5          	push	de
2153  0829  CD 00 00    	call	_NIRVANAP_drawT_raw_callee
2154  082C              l_spr_brick_anim_00106:
2155  082C  FB          	ei
2156  082D  F1          	pop	af
2157  082E  DD E1       	pop	ix
2158  0830  C9          	ret
2159  0831              	SECTION code_compiler
2160  0831              ;	---------------------------------
2161  0831              ; Function spr_draw_index
2162  0831              ; ---------------------------------
2163  0831              _spr_draw_index:
2164  0831  CD 00 00    	call	___sdcc_enter_ix
2165  0834  DD 7E 04    	ld	a,(ix+4)
2166  0837  E6 1F       	and	a,0x1f
2167  0839  32 00 00    	ld	(_s_col1),a
2168  083C  DD 4E 04    	ld	c,(ix+4)
2169  083F  DD 5E 05    	ld	e,(ix+5)
2170  0842  06 05       	ld	b,0x05
2171  0844  79          	ld	a,c
2172  0845              l_spr_draw_index_00103:
2173  0845  CB 3B       	srl	e
2174  0847  1F          	rra
2175  0848  10 FB       	djnz	l_spr_draw_index_00103
2176  084A  21 00 00    	ld	hl,_s_lin1
2177  084D  77          	ld	(hl),a
2178  084E  07          	rlca
2179  084F  07          	rlca
2180  0850  07          	rlca
2181  0851  E6 F8       	and	a,0xf8
2182  0853  77          	ld	(hl), a
2183  0854  3E 00       	ld	a, +((_scr_map) & 0xFF)
2184  0856  DD 86 04    	add	a,(ix+4)
2185  0859  4F          	ld	c, a
2186  085A  3E 00       	ld	a, +((_scr_map) / 256)
2187  085C  DD 8E 05    	adc	a,(ix+5)
2188  085F  47          	ld	b, a
2189  0860  0A          	ld	a, (bc)
2190  0861  47          	ld	b, a
2191  0862  3A 00 00    	ld	a,(_s_col1)
2192  0865  F5          	push	af
2193  0866  33          	inc	sp
2194  0867  3A 00 00    	ld	a,(_s_lin1)
2195  086A  48          	ld	c,b
2196  086B  47          	ld	b,a
2197  086C  C5          	push	bc
2198  086D  CD 00 00    	call	_NIRVANAP_drawT_raw_callee
2199  0870  DD E1       	pop	ix
2200  0872  C9          	ret
2201  0873              	SECTION code_compiler
2202  0873              ;	---------------------------------
2203  0873              ; Function spr_draw_row
2204  0873              ; ---------------------------------
2205  0873              _spr_draw_row:
2206  0873  CD 00 00    	call	___sdcc_enter_ix
2207  0876  3B          	dec	sp
2208  0877  F3          	di
2209  0878  21 00 00    	ld	hl,_tmp
2210  087B  36 00       	ld	(hl),0x00
2211  087D  DD 7E 04    	ld	a,(ix+4)
2212  0880  07          	rlca
2213  0881  07          	rlca
2214  0882  07          	rlca
2215  0883  E6 F8       	and	a,0xf8
2216  0885  DD 77 FF    	ld	(ix-1),a
2217  0888              l_spr_draw_row_00101:
2218  0888  21 00 00    	ld	hl,_tmp
2219  088B  7E          	ld	a, (hl)
2220  088C  D6 20       	sub	a,0x20
2221  088E  30 38       	jr	NC,l_spr_draw_row_00103
2222  0890  DD 4E 04    	ld	c,(ix+4)
2223  0893  3E 00       	ld	a,0x00
2224  0895  CB 21       	sla	c
2225  0897  17          	rla
2226  0898  CB 21       	sla	c
2227  089A  17          	rla
2228  089B  CB 21       	sla	c
2229  089D  17          	rla
2230  089E  CB 21       	sla	c
2231  08A0  17          	rla
2232  08A1  CB 21       	sla	c
2233  08A3  17          	rla
2234  08A4  47          	ld	b,a
2235  08A5  5E          	ld	e, (hl)
2236  08A6  16 00       	ld	d,0x00
2237  08A8  79          	ld	a, c
2238  08A9  83          	add	a, e
2239  08AA  21 00 00    	ld	hl,_index1
2240  08AD  77          	ld	(hl), a
2241  08AE  78          	ld	a, b
2242  08AF  8A          	adc	a, d
2243  08B0  23          	inc	hl
2244  08B1  77          	ld	(hl), a
2245  08B2  2A FF FF    	ld	hl,(_tmp-1)
2246  08B5  DD 6E FF    	ld	l,(ix-1)
2247  08B8  3A 00 00    	ld	a,(_game_brick_tile)
2248  08BB  E5          	push	hl
2249  08BC  F5          	push	af
2250  08BD  33          	inc	sp
2251  08BE  CD 00 00    	call	_NIRVANAP_drawT_raw_callee
2252  08C1  21 00 00    	ld	hl,_tmp
2253  08C4  34          	inc	(hl)
2254  08C5  34          	inc	(hl)
2255  08C6  18 C0       	jr	l_spr_draw_row_00101
2256  08C8              l_spr_draw_row_00103:
2257  08C8  FB          	ei
2258  08C9  33          	inc	sp
2259  08CA  DD E1       	pop	ix
2260  08CC  C9          	ret
2261  08CD              	SECTION code_compiler
2262  08CD              ;	---------------------------------
2263  08CD              ; Function spr_calc_hor
2264  08CD              ; ---------------------------------
2265  08CD              _spr_calc_hor:
2266  08CD  CD 00 00    	call	___sdcc_enter_ix
2267  08D0  3E 00       	ld	a, +((_col) & 0xFF)
2268  08D2  DD 86 04    	add	a,(ix+4)
2269  08D5  4F          	ld	c, a
2270  08D6  3E 00       	ld	a, +((_col) / 256)
2271  08D8  CE 00       	adc	a,0x00
2272  08DA  47          	ld	b, a
2273  08DB  0A          	ld	a, (bc)
2274  08DC  5F          	ld	e, a
2275  08DD  3E 00       	ld	a, +((_sprite_frames) & 0xFF)
2276  08DF  DD 86 04    	add	a,(ix+4)
2277  08E2  4F          	ld	c, a
2278  08E3  3E 00       	ld	a, +((_sprite_frames) / 256)
2279  08E5  CE 00       	adc	a,0x00
2280  08E7  47          	ld	b, a
2281  08E8  0A          	ld	a, (bc)
2282  08E9  67          	ld	h, a
2283  08EA  2E 00       	ld	l,0x00
2284  08EC  55          	ld	d, l
2285  08ED  06 08       	ld	b,0x08
2286  08EF              l_spr_calc_hor_00103:
2287  08EF  29          	add	hl, hl
2288  08F0  30 01       	jr	NC,l_spr_calc_hor_00104
2289  08F2  19          	add	hl, de
2290  08F3              l_spr_calc_hor_00104:
2291  08F3  10 FA       	djnz	l_spr_calc_hor_00103
2292  08F5  DD E1       	pop	ix
2293  08F7  C9          	ret
2294  08F8              	SECTION code_compiler
2295  08F8              ;	---------------------------------
2296  08F8              ; Function spr_back_repaint
2297  08F8              ; ---------------------------------
2298  08F8              _spr_back_repaint:
2299  08F8  76          	halt
2300  08F9  F3          	di
2301  08FA  2A FF FF    	ld	hl,(_s_col0 - 1)
2302  08FD  3A 00 00    	ld	a,(_s_lin0)
2303  0900  6F          	ld	l,a
2304  0901  E5          	push	hl
2305  0902  CD 00 00    	call	_spr_calc_index
2306  0905  F1          	pop	af
2307  0906  7D          	ld	a,l
2308  0907  32 00 00    	ld	(_sprite_curr_index),a
2309  090A  21 00 00    	ld	hl,_s_lin0
2310  090D  7E          	ld	a, (hl)
2311  090E  E6 0F       	and	a,0x0f
2312  0910  4F          	ld	c, a
2313  0911  7E          	ld	a, (hl)
2314  0912  07          	rlca
2315  0913  07          	rlca
2316  0914  07          	rlca
2317  0915  07          	rlca
2318  0916  E6 0F       	and	a,0x0f
2319  0918  47          	ld	b, a
2320  0919  21 00 00    	ld	hl,_s_col0
2321  091C  CB 46       	bit	0, (hl)
2322  091E  20 66       	jr	NZ,l_spr_back_repaint_00108
2323  0920  79          	ld	a, c
2324  0921  B7          	or	a, a
2325  0922  20 1D       	jr	NZ,l_spr_back_repaint_00102
2326  0924  2A 00 00    	ld	hl,(_sprite_curr_index)
2327  0927  26 00       	ld	h,0x00
2328  0929  01 00 00    	ld	bc,_scr_map
2329  092C  09          	add	hl,bc
2330  092D  46          	ld	b,(hl)
2331  092E  3A 00 00    	ld	a,(_s_col0)
2332  0931  F5          	push	af
2333  0932  33          	inc	sp
2334  0933  3A 00 00    	ld	a,(_s_lin0)
2335  0936  48          	ld	c,b
2336  0937  47          	ld	b,a
2337  0938  C5          	push	bc
2338  0939  CD 4A 0A    	call	_spr_tile_paint
2339  093C  F1          	pop	af
2340  093D  33          	inc	sp
2341  093E  C3 48 0A    	jp	l_spr_back_repaint_00109
2342  0941              l_spr_back_repaint_00102:
2343  0941  78          	ld	a, b
2344  0942  07          	rlca
2345  0943  07          	rlca
2346  0944  07          	rlca
2347  0945  07          	rlca
2348  0946  E6 F0       	and	a,0xf0
2349  0948  47          	ld	b, a
2350  0949  2A 00 00    	ld	hl,(_sprite_curr_index)
2351  094C  26 00       	ld	h,0x00
2352  094E  11 00 00    	ld	de,_scr_map
2353  0951  19          	add	hl,de
2354  0952  56          	ld	d, (hl)
2355  0953  3A 00 00    	ld	a,(_s_col0)
2356  0956  C5          	push	bc
2357  0957  F5          	push	af
2358  0958  33          	inc	sp
2359  0959  4A          	ld	c, d
2360  095A  C5          	push	bc
2361  095B  CD 4A 0A    	call	_spr_tile_paint
2362  095E  F1          	pop	af
2363  095F  33          	inc	sp
2364  0960  C1          	pop	bc
2365  0961  78          	ld	a, b
2366  0962  C6 10       	add	a,0x10
2367  0964  57          	ld	d, a
2368  0965  21 00 00    	ld	hl,_sprite_curr_index
2369  0968  7E          	ld	a, (hl)
2370  0969  C6 10       	add	a,0x10
2371  096B  77          	ld	(hl), a
2372  096C  C6 00       	add	a,+((_scr_map) & 0xFF)
2373  096E  4F          	ld	c, a
2374  096F  3E 00       	ld	a, +((_scr_map) / 256)
2375  0971  CE 00       	adc	a,0x00
2376  0973  47          	ld	b, a
2377  0974  0A          	ld	a, (bc)
2378  0975  47          	ld	b, a
2379  0976  3A 00 00    	ld	a,(_s_col0)
2380  0979  5A          	ld	e,d
2381  097A  57          	ld	d,a
2382  097B  D5          	push	de
2383  097C  C5          	push	bc
2384  097D  33          	inc	sp
2385  097E  CD 4A 0A    	call	_spr_tile_paint
2386  0981  F1          	pop	af
2387  0982  33          	inc	sp
2388  0983  C3 48 0A    	jp	l_spr_back_repaint_00109
2389  0986              l_spr_back_repaint_00108:
2390  0986  21 00 00    	ld	hl,_s_col0
2391  0989  56          	ld	d, (hl)
2392  098A  15          	dec	d
2393  098B  79          	ld	a, c
2394  098C  B7          	or	a, a
2395  098D  20 3A       	jr	NZ,l_spr_back_repaint_00105
2396  098F  2A 00 00    	ld	hl,(_sprite_curr_index)
2397  0992  26 00       	ld	h,0x00
2398  0994  01 00 00    	ld	bc,_scr_map
2399  0997  09          	add	hl,bc
2400  0998  46          	ld	b,(hl)
2401  0999  D5          	push	de
2402  099A  33          	inc	sp
2403  099B  3A 00 00    	ld	a,(_s_lin0)
2404  099E  48          	ld	c,b
2405  099F  47          	ld	b,a
2406  09A0  C5          	push	bc
2407  09A1  CD 4A 0A    	call	_spr_tile_paint
2408  09A4  F1          	pop	af
2409  09A5  33          	inc	sp
2410  09A6  21 00 00    	ld	hl,_sprite_curr_index
2411  09A9  34          	inc	(hl)
2412  09AA  21 00 00    	ld	hl,_s_col0
2413  09AD  46          	ld	b, (hl)
2414  09AE  04          	inc	b
2415  09AF  2A 00 00    	ld	hl,(_sprite_curr_index)
2416  09B2  26 00       	ld	h,0x00
2417  09B4  11 00 00    	ld	de,_scr_map
2418  09B7  19          	add	hl,de
2419  09B8  56          	ld	d, (hl)
2420  09B9  C5          	push	bc
2421  09BA  33          	inc	sp
2422  09BB  3A 00 00    	ld	a,(_s_lin0)
2423  09BE  5A          	ld	e,d
2424  09BF  57          	ld	d,a
2425  09C0  D5          	push	de
2426  09C1  CD 4A 0A    	call	_spr_tile_paint
2427  09C4  F1          	pop	af
2428  09C5  33          	inc	sp
2429  09C6  C3 48 0A    	jp	l_spr_back_repaint_00109
2430  09C9              l_spr_back_repaint_00105:
2431  09C9  78          	ld	a, b
2432  09CA  07          	rlca
2433  09CB  07          	rlca
2434  09CC  07          	rlca
2435  09CD  07          	rlca
2436  09CE  E6 F0       	and	a,0xf0
2437  09D0  47          	ld	b, a
2438  09D1  3A 00 00    	ld	a,(_sprite_curr_index)
2439  09D4  C6 00       	add	a,+((_scr_map) & 0xFF)
2440  09D6  4F          	ld	c,a
2441  09D7  3E 00       	ld	a,+((_scr_map) / 256)
2442  09D9  CE 00       	adc	a,0x00
2443  09DB  67          	ld	h, a
2444  09DC  69          	ld	l, c
2445  09DD  7E          	ld	a, (hl)
2446  09DE  C5          	push	bc
2447  09DF  58          	ld	e,b
2448  09E0  D5          	push	de
2449  09E1  F5          	push	af
2450  09E2  33          	inc	sp
2451  09E3  CD 4A 0A    	call	_spr_tile_paint
2452  09E6  F1          	pop	af
2453  09E7  33          	inc	sp
2454  09E8  C1          	pop	bc
2455  09E9  21 00 00    	ld	hl,_sprite_curr_index
2456  09EC  34          	inc	(hl)
2457  09ED  21 00 00    	ld	hl,_s_col0
2458  09F0  4E          	ld	c, (hl)
2459  09F1  0C          	inc	c
2460  09F2  2A 00 00    	ld	hl,(_sprite_curr_index)
2461  09F5  26 00       	ld	h,0x00
2462  09F7  11 00 00    	ld	de,_scr_map
2463  09FA  19          	add	hl,de
2464  09FB  56          	ld	d, (hl)
2465  09FC  C5          	push	bc
2466  09FD  79          	ld	a, c
2467  09FE  F5          	push	af
2468  09FF  33          	inc	sp
2469  0A00  4A          	ld	c, d
2470  0A01  C5          	push	bc
2471  0A02  CD 4A 0A    	call	_spr_tile_paint
2472  0A05  F1          	pop	af
2473  0A06  33          	inc	sp
2474  0A07  C1          	pop	bc
2475  0A08  78          	ld	a, b
2476  0A09  C6 10       	add	a,0x10
2477  0A0B  4F          	ld	c, a
2478  0A0C  21 00 00    	ld	hl,_sprite_curr_index
2479  0A0F  7E          	ld	a, (hl)
2480  0A10  C6 0F       	add	a,0x0f
2481  0A12  77          	ld	(hl), a
2482  0A13  21 00 00    	ld	hl,_s_col0
2483  0A16  46          	ld	b, (hl)
2484  0A17  05          	dec	b
2485  0A18  2A 00 00    	ld	hl,(_sprite_curr_index)
2486  0A1B  26 00       	ld	h,0x00
2487  0A1D  11 00 00    	ld	de,_scr_map
2488  0A20  19          	add	hl,de
2489  0A21  66          	ld	h, (hl)
2490  0A22  EB          	ex	de,hl
2491  0A23  C5          	push	bc
2492  0A24  C5          	push	bc
2493  0A25  D5          	push	de
2494  0A26  33          	inc	sp
2495  0A27  CD 4A 0A    	call	_spr_tile_paint
2496  0A2A  F1          	pop	af
2497  0A2B  33          	inc	sp
2498  0A2C  C1          	pop	bc
2499  0A2D  21 00 00    	ld	hl,_sprite_curr_index
2500  0A30  34          	inc	(hl)
2501  0A31  21 00 00    	ld	hl,_s_col0
2502  0A34  46          	ld	b, (hl)
2503  0A35  04          	inc	b
2504  0A36  2A 00 00    	ld	hl,(_sprite_curr_index)
2505  0A39  26 00       	ld	h,0x00
2506  0A3B  11 00 00    	ld	de,_scr_map
2507  0A3E  19          	add	hl,de
2508  0A3F  66          	ld	h, (hl)
2509  0A40  C5          	push	bc
2510  0A41  E5          	push	hl
2511  0A42  33          	inc	sp
2512  0A43  CD 4A 0A    	call	_spr_tile_paint
2513  0A46  F1          	pop	af
2514  0A47  33          	inc	sp
2515  0A48              l_spr_back_repaint_00109:
2516  0A48  FB          	ei
2517  0A49  C9          	ret
2518  0A4A              	SECTION code_compiler
2519  0A4A              ;	---------------------------------
2520  0A4A              ; Function spr_tile_paint
2521  0A4A              ; ---------------------------------
2522  0A4A              _spr_tile_paint:
2523  0A4A  CD 00 00    	call	___sdcc_enter_ix
2524  0A4D  DD 7E 04    	ld	a,(ix+4)
2525  0A50  B7          	or	a, a
2526  0A51  28 05       	jr	Z,l_spr_tile_paint_00101
2527  0A53  3C          	inc	a
2528  0A54  28 21       	jr	Z,l_spr_tile_paint_00105
2529  0A56  18 10       	jr	l_spr_tile_paint_00103
2530  0A58              l_spr_tile_paint_00101:
2531  0A58  DD 7E 06    	ld	a,(ix+6)
2532  0A5B  F5          	push	af
2533  0A5C  33          	inc	sp
2534  0A5D  DD 56 05    	ld	d,(ix+5)
2535  0A60  1E 49       	ld	e,0x49
2536  0A62  D5          	push	de
2537  0A63  CD 00 00    	call	_NIRVANAP_fillT_raw_callee
2538  0A66  18 0F       	jr	l_spr_tile_paint_00105
2539  0A68              l_spr_tile_paint_00103:
2540  0A68  DD 66 06    	ld	h,(ix+6)
2541  0A6B  DD 6E 05    	ld	l,(ix+5)
2542  0A6E  E5          	push	hl
2543  0A6F  DD 7E 04    	ld	a,(ix+4)
2544  0A72  F5          	push	af
2545  0A73  33          	inc	sp
2546  0A74  CD 00 00    	call	_NIRVANAP_drawT_raw_callee
2547  0A77              l_spr_tile_paint_00105:
2548  0A77  DD E1       	pop	ix
2549  0A79  C9          	ret
2550  0A7A              	SECTION code_compiler
2551  0A7A              ;	---------------------------------
2552  0A7A              ; Function spr_init_anim_bullets
2553  0A7A              ; ---------------------------------
2554  0A7A              _spr_init_anim_bullets:
2555  0A7A  01 00 00    	ld	bc,_anim_lin+0
2556  0A7D  1E 00       	ld	e,0x00
2557  0A7F              l_spr_init_anim_bullets_00102:
2558  0A7F  6B          	ld	l,e
2559  0A80  26 00       	ld	h,0x00
2560  0A82  09          	add	hl, bc
2561  0A83  36 FF       	ld	(hl),0xff
2562  0A85  16 00       	ld	d,0x00
2563  0A87  21 00 00    	ld	hl,_bullet_col
2564  0A8A  19          	add	hl, de
2565  0A8B  36 FF       	ld	(hl),0xff
2566  0A8D  1C          	inc	e
2567  0A8E  7B          	ld	a, e
2568  0A8F  D6 08       	sub	a,0x08
2569  0A91  38 EC       	jr	C,l_spr_init_anim_bullets_00102
2570  0A93  21 00 00    	ld	hl,_bullet_count
2571  0A96  36 00       	ld	(hl),0x00
2572  0A98  21 00 00    	ld	hl,_anim_count
2573  0A9B  36 00       	ld	(hl),0x00
2574  0A9D  C9          	ret
2575  0A9E              	SECTION code_compiler
2576  0A9E              ;	---------------------------------
2577  0A9E              ; Function spr_add_anim
2578  0A9E              ; ---------------------------------
2579  0A9E              _spr_add_anim:
2580  0A9E  CD 00 00    	call	___sdcc_enter_ix
2581  0AA1  F5          	push	af
2582  0AA2  F5          	push	af
2583  0AA3  0E 00       	ld	c,0x00
2584  0AA5  51          	ld	d,c
2585  0AA6              l_spr_add_anim_00106:
2586  0AA6  3E 00       	ld	a, +((_anim_lin) & 0xFF)
2587  0AA8  82          	add	a, d
2588  0AA9  DD 77 FE    	ld	(ix-2),a
2589  0AAC  6F          	ld	l,a
2590  0AAD  3E 00       	ld	a,+((_anim_lin) / 256)
2591  0AAF  CE 00       	adc	a,0x00
2592  0AB1  DD 77 FF    	ld	(ix-1),a
2593  0AB4  67          	ld	h,a
2594  0AB5  46          	ld	b, (hl)
2595  0AB6  04          	inc	b
2596  0AB7  20 6F       	jr	NZ,l_spr_add_anim_00107
2597  0AB9  21 00 00    	ld	hl,_anim_count
2598  0ABC  34          	inc	(hl)
2599  0ABD  DD 6E FE    	ld	l,(ix-2)
2600  0AC0  DD 66 FF    	ld	h,(ix-1)
2601  0AC3  DD 7E 04    	ld	a,(ix+4)
2602  0AC6  77          	ld	(hl), a
2603  0AC7  3E 00       	ld	a, +((_anim_col) & 0xFF)
2604  0AC9  81          	add	a, c
2605  0ACA  5F          	ld	e, a
2606  0ACB  3E 00       	ld	a, +((_anim_col) / 256)
2607  0ACD  CE 00       	adc	a,0x00
2608  0ACF  57          	ld	d, a
2609  0AD0  DD 7E 05    	ld	a,(ix+5)
2610  0AD3  12          	ld	(de), a
2611  0AD4  3E 00       	ld	a, +((_anim_tile) & 0xFF)
2612  0AD6  81          	add	a, c
2613  0AD7  DD 77 FC    	ld	(ix-4),a
2614  0ADA  3E 00       	ld	a, +((_anim_tile) / 256)
2615  0ADC  CE 00       	adc	a,0x00
2616  0ADE  DD 77 FD    	ld	(ix-3),a
2617  0AE1  E1          	pop	hl
2618  0AE2  E5          	push	hl
2619  0AE3  DD 7E 06    	ld	a,(ix+6)
2620  0AE6  77          	ld	(hl), a
2621  0AE7  06 00       	ld	b,0x00
2622  0AE9  21 00 00    	ld	hl,_anim_int
2623  0AEC  09          	add	hl, bc
2624  0AED  06 00       	ld	b,0x00
2625  0AEF  70          	ld	(hl),b
2626  0AF0  21 00 00    	ld	hl,_anim_end
2627  0AF3  09          	add	hl,bc
2628  0AF4  DD 7E 07    	ld	a,(ix+7)
2629  0AF7  77          	ld	(hl),a
2630  0AF8  4D          	ld	c,l
2631  0AF9  F3          	di
2632  0AFA  1A          	ld	a, (de)
2633  0AFB  DD 6E FE    	ld	l,(ix-2)
2634  0AFE  DD 66 FF    	ld	h,(ix-1)
2635  0B01  56          	ld	d, (hl)
2636  0B02  E1          	pop	hl
2637  0B03  46          	ld	b,(hl)
2638  0B04  E5          	push	hl
2639  0B05  5A          	ld	e,d
2640  0B06  57          	ld	d,a
2641  0B07  D5          	push	de
2642  0B08  C5          	push	bc
2643  0B09  33          	inc	sp
2644  0B0A  CD 00 00    	call	_NIRVANAP_drawT_raw_callee
2645  0B0D  FB          	ei
2646  0B0E  DD 66 05    	ld	h,(ix+5)
2647  0B11  DD 6E 04    	ld	l,(ix+4)
2648  0B14  E5          	push	hl
2649  0B15  CD 00 00    	call	_spr_calc_index
2650  0B18  F1          	pop	af
2651  0B19  22 00 00    	ld	(_index0),hl
2652  0B1C  01 00 00    	ld	bc,_scr_map
2653  0B1F  09          	add	hl,bc
2654  0B20  7E          	ld	a,(hl)
2655  0B21  B7          	or	a,a
2656  0B22  20 0C       	jr	NZ,l_spr_add_anim_00108
2657  0B24  36 FF       	ld	(hl),0xff
2658  0B26  18 08       	jr	l_spr_add_anim_00108
2659  0B28              l_spr_add_anim_00107:
2660  0B28  14          	inc	d
2661  0B29  7A          	ld	a,d
2662  0B2A  4F          	ld	c,a
2663  0B2B  D6 08       	sub	a,0x08
2664  0B2D  DA A6 0A    	jp	C, l_spr_add_anim_00106
2665  0B30              l_spr_add_anim_00108:
2666  0B30  DD F9       	ld	sp, ix
2667  0B32  DD E1       	pop	ix
2668  0B34  C9          	ret
2669  0B35              	SECTION code_compiler
2670  0B35              ;	---------------------------------
2671  0B35              ; Function spr_play_anim
2672  0B35              ; ---------------------------------
2673  0B35              _spr_play_anim:
2674  0B35  CD 00 00    	call	___sdcc_enter_ix
2675  0B38  F5          	push	af
2676  0B39  F5          	push	af
2677  0B3A  0E 00       	ld	c,0x00
2678  0B3C              l_spr_play_anim_00109:
2679  0B3C  3E 00       	ld	a, +((_anim_lin) & 0xFF)
2680  0B3E  81          	add	a, c
2681  0B3F  DD 77 FE    	ld	(ix-2),a
2682  0B42  6F          	ld	l,a
2683  0B43  3E 00       	ld	a,+((_anim_lin) / 256)
2684  0B45  CE 00       	adc	a,0x00
2685  0B47  DD 77 FF    	ld	(ix-1),a
2686  0B4A  67          	ld	h,a
2687  0B4B  7E          	ld	a,(hl)
2688  0B4C  5F          	ld	e,a
2689  0B4D  3C          	inc	a
2690  0B4E  CA F6 0B    	jp	Z,l_spr_play_anim_00110
2691  0B51  3E 00       	ld	a, +((_anim_int) & 0xFF)
2692  0B53  81          	add	a, c
2693  0B54  DD 77 FC    	ld	(ix-4),a
2694  0B57  3E 00       	ld	a, +((_anim_int) / 256)
2695  0B59  CE 00       	adc	a,0x00
2696  0B5B  DD 77 FD    	ld	(ix-3),a
2697  0B5E  E1          	pop	hl
2698  0B5F  56          	ld	d,(hl)
2699  0B60  E5          	push	hl
2700  0B61  06 00       	ld	b,0x00
2701  0B63  21 00 00    	ld	hl,_anim_end
2702  0B66  09          	add	hl, bc
2703  0B67  46          	ld	b, (hl)
2704  0B68  7A          	ld	a, d
2705  0B69  90          	sub	a, b
2706  0B6A  30 2F       	jr	NC,l_spr_play_anim_00104
2707  0B6C  F3          	di
2708  0B6D  06 00       	ld	b,0x00
2709  0B6F  21 00 00    	ld	hl,_anim_col
2710  0B72  09          	add	hl, bc
2711  0B73  5E          	ld	e, (hl)
2712  0B74  DD 6E FE    	ld	l,(ix-2)
2713  0B77  DD 66 FF    	ld	h,(ix-1)
2714  0B7A  56          	ld	d, (hl)
2715  0B7B  06 00       	ld	b,0x00
2716  0B7D  21 00 00    	ld	hl,_anim_tile
2717  0B80  09          	add	hl, bc
2718  0B81  46          	ld	b, (hl)
2719  0B82  E1          	pop	hl
2720  0B83  E5          	push	hl
2721  0B84  6E          	ld	l, (hl)
2722  0B85  78          	ld	a, b
2723  0B86  85          	add	a, l
2724  0B87  47          	ld	b, a
2725  0B88  C5          	push	bc
2726  0B89  7B          	ld	a, e
2727  0B8A  5A          	ld	e,d
2728  0B8B  57          	ld	d,a
2729  0B8C  D5          	push	de
2730  0B8D  C5          	push	bc
2731  0B8E  33          	inc	sp
2732  0B8F  CD 00 00    	call	_NIRVANAP_drawT_raw_callee
2733  0B92  C1          	pop	bc
2734  0B93  FB          	ei
2735  0B94  E1          	pop	hl
2736  0B95  46          	ld	b,(hl)
2737  0B96  04          	inc	b
2738  0B97  E5          	push	hl
2739  0B98  70          	ld	(hl), b
2740  0B99  18 5B       	jr	l_spr_play_anim_00110
2741  0B9B              l_spr_play_anim_00104:
2742  0B9B  21 00 00    	ld	hl,_anim_count
2743  0B9E  35          	dec	(hl)
2744  0B9F  06 00       	ld	b,0x00
2745  0BA1  21 00 00    	ld	hl,_anim_col
2746  0BA4  09          	add	hl, bc
2747  0BA5  7E          	ld	a, (hl)
2748  0BA6  32 00 00    	ld	(_s_col0),a
2749  0BA9  21 00 00    	ld	hl,_s_lin0
2750  0BAC  73          	ld	(hl), e
2751  0BAD  3A 00 00    	ld	a,(_s_col0)
2752  0BB0  C5          	push	bc
2753  0BB1  F5          	push	af
2754  0BB2  33          	inc	sp
2755  0BB3  3A 00 00    	ld	a,(_s_lin0)
2756  0BB6  F5          	push	af
2757  0BB7  33          	inc	sp
2758  0BB8  CD 00 00    	call	_spr_calc_index
2759  0BBB  F1          	pop	af
2760  0BBC  2A FF FF    	ld	hl,(_s_col0 - 1)
2761  0BBF  3A 00 00    	ld	a,(_s_lin0)
2762  0BC2  6F          	ld	l,a
2763  0BC3  E5          	push	hl
2764  0BC4  CD 00 00    	call	_spr_calc_index
2765  0BC7  F1          	pop	af
2766  0BC8  EB          	ex	de,hl
2767  0BC9  C1          	pop	bc
2768  0BCA  21 00 00    	ld	hl,_scr_map
2769  0BCD  19          	add	hl, de
2770  0BCE  46          	ld	b, (hl)
2771  0BCF  04          	inc	b
2772  0BD0  20 17       	jr	NZ,l_spr_play_anim_00102
2773  0BD2  3A 00 00    	ld	a,(_s_col0)
2774  0BD5  C5          	push	bc
2775  0BD6  F5          	push	af
2776  0BD7  33          	inc	sp
2777  0BD8  3A 00 00    	ld	a,(_s_lin0)
2778  0BDB  F5          	push	af
2779  0BDC  33          	inc	sp
2780  0BDD  CD 00 00    	call	_spr_calc_index
2781  0BE0  F1          	pop	af
2782  0BE1  EB          	ex	de,hl
2783  0BE2  C1          	pop	bc
2784  0BE3  21 00 00    	ld	hl,_scr_map
2785  0BE6  19          	add	hl, de
2786  0BE7  36 00       	ld	(hl),0x00
2787  0BE9              l_spr_play_anim_00102:
2788  0BE9  C5          	push	bc
2789  0BEA  CD F8 08    	call	_spr_back_repaint
2790  0BED  C1          	pop	bc
2791  0BEE  DD 6E FE    	ld	l,(ix-2)
2792  0BF1  DD 66 FF    	ld	h,(ix-1)
2793  0BF4  36 FF       	ld	(hl),0xff
2794  0BF6              l_spr_play_anim_00110:
2795  0BF6  0C          	inc	c
2796  0BF7  79          	ld	a, c
2797  0BF8  D6 08       	sub	a,0x08
2798  0BFA  DA 3C 0B    	jp	C, l_spr_play_anim_00109
2799  0BFD  DD F9       	ld	sp, ix
2800  0BFF  DD E1       	pop	ix
2801  0C01  C9          	ret
2802  0C02              	SECTION code_compiler
2803  0C02              ;	---------------------------------
2804  0C02              ; Function spr_play_bullets
2805  0C02              ; ---------------------------------
2806  0C02              _spr_play_bullets:
2807  0C02  CD 00 00    	call	___sdcc_enter_ix
2808  0C05  F5          	push	af
2809  0C06  F5          	push	af
2810  0C07  3B          	dec	sp
2811  0C08  0E 00       	ld	c,0x00
2812  0C0A              l_spr_play_bullets_00131:
2813  0C0A  3E 00       	ld	a, +((_bullet_col) & 0xFF)
2814  0C0C  81          	add	a, c
2815  0C0D  DD 77 FB    	ld	(ix-5),a
2816  0C10  3E 00       	ld	a, +((_bullet_col) / 256)
2817  0C12  CE 00       	adc	a,0x00
2818  0C14  DD 77 FC    	ld	(ix-4),a
2819  0C17  E1          	pop	hl
2820  0C18  7E          	ld	a,(hl)
2821  0C19  E5          	push	hl
2822  0C1A  DD 77 FF    	ld	(ix-1),a
2823  0C1D  3C          	inc	a
2824  0C1E  CA CD 0D    	jp	Z,l_spr_play_bullets_00132
2825  0C21  06 00       	ld	b,0x00
2826  0C23  21 00 00    	ld	hl,_bullet_lin
2827  0C26  09          	add	hl, bc
2828  0C27  7E          	ld	a, (hl)
2829  0C28  32 00 00    	ld	(_s_lin0),a
2830  0C2B  DD 7E FF    	ld	a,(ix-1)
2831  0C2E  32 00 00    	ld	(_s_col0),a
2832  0C31  32 00 00    	ld	(_s_col1),a
2833  0C34  C5          	push	bc
2834  0C35  CD F8 08    	call	_spr_back_repaint
2835  0C38  C1          	pop	bc
2836  0C39  06 00       	ld	b,0x00
2837  0C3B  21 00 00    	ld	hl,_bullet_dir
2838  0C3E  09          	add	hl, bc
2839  0C3F  46          	ld	b, (hl)
2840  0C40  04          	inc	b
2841  0C41  20 36       	jr	NZ,l_spr_play_bullets_00110
2842  0C43  3E 00       	ld	a, +((_bullet_colint) & 0xFF)
2843  0C45  81          	add	a, c
2844  0C46  5F          	ld	e, a
2845  0C47  3E 00       	ld	a, +((_bullet_colint) / 256)
2846  0C49  CE 00       	adc	a,0x00
2847  0C4B  57          	ld	d, a
2848  0C4C  1A          	ld	a, (de)
2849  0C4D  3C          	inc	a
2850  0C4E  47          	ld	b,a
2851  0C4F  12          	ld	(de), a
2852  0C50  3E 00       	ld	a, +((_bullet_frames) & 0xFF)
2853  0C52  81          	add	a, c
2854  0C53  6F          	ld	l, a
2855  0C54  3E 00       	ld	a, +((_bullet_frames) / 256)
2856  0C56  CE 00       	adc	a,0x00
2857  0C58  67          	ld	h, a
2858  0C59  6E          	ld	l, (hl)
2859  0C5A  78          	ld	a, b
2860  0C5B  95          	sub	a, l
2861  0C5C  38 07       	jr	C,l_spr_play_bullets_00102
2862  0C5E  E1          	pop	hl
2863  0C5F  46          	ld	b,(hl)
2864  0C60  04          	inc	b
2865  0C61  E5          	push	hl
2866  0C62  70          	ld	(hl), b
2867  0C63  AF          	xor	a, a
2868  0C64  12          	ld	(de), a
2869  0C65              l_spr_play_bullets_00102:
2870  0C65  E1          	pop	hl
2871  0C66  46          	ld	b,(hl)
2872  0C67  E5          	push	hl
2873  0C68  CB 40       	bit	0, b
2874  0C6A  28 3E       	jr	Z,l_spr_play_bullets_00111
2875  0C6C  78          	ld	a, b
2876  0C6D  3C          	inc	a
2877  0C6E  32 00 00    	ld	(_s_col1),a
2878  0C71  78          	ld	a, b
2879  0C72  C6 FF       	add	a,0xff
2880  0C74  32 00 00    	ld	(_tmp),a
2881  0C77  18 31       	jr	l_spr_play_bullets_00111
2882  0C79              l_spr_play_bullets_00110:
2883  0C79  3E 00       	ld	a, +((_bullet_colint) & 0xFF)
2884  0C7B  81          	add	a, c
2885  0C7C  5F          	ld	e, a
2886  0C7D  3E 00       	ld	a, +((_bullet_colint) / 256)
2887  0C7F  CE 00       	adc	a,0x00
2888  0C81  57          	ld	d, a
2889  0C82  1A          	ld	a, (de)
2890  0C83  C6 FF       	add	a,0xff
2891  0C85  12          	ld	(de), a
2892  0C86  3C          	inc	a
2893  0C87  20 0F       	jr	NZ,l_spr_play_bullets_00106
2894  0C89  E1          	pop	hl
2895  0C8A  46          	ld	b,(hl)
2896  0C8B  05          	dec	b
2897  0C8C  E5          	push	hl
2898  0C8D  70          	ld	(hl), b
2899  0C8E  06 00       	ld	b,0x00
2900  0C90  21 00 00    	ld	hl,_bullet_frames
2901  0C93  09          	add	hl, bc
2902  0C94  46          	ld	b, (hl)
2903  0C95  05          	dec	b
2904  0C96  78          	ld	a, b
2905  0C97  12          	ld	(de), a
2906  0C98              l_spr_play_bullets_00106:
2907  0C98  E1          	pop	hl
2908  0C99  46          	ld	b,(hl)
2909  0C9A  E5          	push	hl
2910  0C9B  CB 40       	bit	0, b
2911  0C9D  28 0B       	jr	Z,l_spr_play_bullets_00111
2912  0C9F  78          	ld	a, b
2913  0CA0  C6 FF       	add	a,0xff
2914  0CA2  32 00 00    	ld	(_s_col1),a
2915  0CA5  78          	ld	a, b
2916  0CA6  3C          	inc	a
2917  0CA7  32 00 00    	ld	(_tmp),a
2918  0CAA              l_spr_play_bullets_00111:
2919  0CAA  DD 7E FB    	ld	a,(ix-5)
2920  0CAD  DD 77 FD    	ld	(ix-3),a
2921  0CB0  DD 7E FC    	ld	a,(ix-4)
2922  0CB3  DD 77 FE    	ld	(ix-2),a
2923  0CB6  78          	ld	a,b
2924  0CB7  B7          	or	a, a
2925  0CB8  CA C5 0D    	jp	Z,l_spr_play_bullets_00123
2926  0CBB  D6 1E       	sub	a,0x1e
2927  0CBD  D2 C5 0D    	jp	NC, l_spr_play_bullets_00123
2928  0CC0  3A 00 00    	ld	a,(_s_col1)
2929  0CC3  C5          	push	bc
2930  0CC4  F5          	push	af
2931  0CC5  33          	inc	sp
2932  0CC6  3A 00 00    	ld	a,(_s_lin0)
2933  0CC9  F5          	push	af
2934  0CCA  33          	inc	sp
2935  0CCB  CD 00 00    	call	_spr_calc_index
2936  0CCE  F1          	pop	af
2937  0CCF  EB          	ex	de,hl
2938  0CD0  C1          	pop	bc
2939  0CD1  ED 53 00 00 	ld	(_index0),de
2940  0CD5  21 00 00    	ld	hl,_tmp0
2941  0CD8  36 00       	ld	(hl),0x00
2942  0CDA              l_spr_play_bullets_00129:
2943  0CDA  2A 00 00    	ld	hl,(_tmp0)
2944  0CDD  26 00       	ld	h,0x00
2945  0CDF  11 00 00    	ld	de,_class
2946  0CE2  19          	add	hl,de
2947  0CE3  7E          	ld	a,(hl)
2948  0CE4  B7          	or	a,a
2949  0CE5  28 73       	jr	Z,l_spr_play_bullets_00130
2950  0CE7  2A 00 00    	ld	hl,(_tmp0)
2951  0CEA  26 00       	ld	h,0x00
2952  0CEC  11 00 00    	ld	de,_col
2953  0CEF  19          	add	hl,de
2954  0CF0  46          	ld	b, (hl)
2955  0CF1  3A 00 00    	ld	a,(_tmp0)
2956  0CF4  5F          	ld	e,a
2957  0CF5  16 00       	ld	d,0x00
2958  0CF7  21 00 00    	ld	hl,_lin
2959  0CFA  19          	add	hl,de
2960  0CFB  56          	ld	d, (hl)
2961  0CFC  C5          	push	bc
2962  0CFD  4A          	ld	c, d
2963  0CFE  C5          	push	bc
2964  0CFF  CD 00 00    	call	_spr_calc_index
2965  0D02  F1          	pop	af
2966  0D03  EB          	ex	de,hl
2967  0D04  C1          	pop	bc
2968  0D05  ED 53 00 00 	ld	(_index1),de
2969  0D09  3A 00 00    	ld	a,(_index0)
2970  0D0C  21 00 00    	ld	hl,_index1
2971  0D0F  96          	sub	a, (hl)
2972  0D10  20 48       	jr	NZ,l_spr_play_bullets_00130
2973  0D12  3A 01 00    	ld	a,(_index0 + 1)
2974  0D15  23          	inc	hl
2975  0D16  96          	sub	a, (hl)
2976  0D17  20 41       	jr	NZ,l_spr_play_bullets_00130
2977  0D19  2A 00 00    	ld	hl,(_tmp0)
2978  0D1C  26 00       	ld	h,0x00
2979  0D1E  11 00 00    	ld	de,_lin
2980  0D21  19          	add	hl,de
2981  0D22  7E          	ld	a,(hl)
2982  0D23  32 00 00    	ld	(_s_lin0),a
2983  0D26  2A 00 00    	ld	hl,(_tmp0)
2984  0D29  26 00       	ld	h,0x00
2985  0D2B  11 00 00    	ld	de,_col
2986  0D2E  19          	add	hl,de
2987  0D2F  7E          	ld	a,(hl)
2988  0D30  32 00 00    	ld	(_s_col0),a
2989  0D33  2A 00 00    	ld	hl,(_tmp0)
2990  0D36  C5          	push	bc
2991  0D37  CD DD 05    	call	_spr_destroy
2992  0D3A  C1          	pop	bc
2993  0D3B  DD 6E FD    	ld	l,(ix-3)
2994  0D3E  DD 66 FE    	ld	h,(ix-2)
2995  0D41  36 FF       	ld	(hl),0xff
2996  0D43  3A 00 00    	ld	a,(_s_col0)
2997  0D46  C5          	push	bc
2998  0D47  21 7B 03    	ld	hl,0x037b
2999  0D4A  E5          	push	hl
3000  0D4B  F5          	push	af
3001  0D4C  33          	inc	sp
3002  0D4D  3A 00 00    	ld	a,(_s_lin0)
3003  0D50  F5          	push	af
3004  0D51  33          	inc	sp
3005  0D52  CD 9E 0A    	call	_spr_add_anim
3006  0D55  F1          	pop	af
3007  0D56  F1          	pop	af
3008  0D57  C1          	pop	bc
3009  0D58  18 0B       	jr	l_spr_play_bullets_00116
3010  0D5A              l_spr_play_bullets_00130:
3011  0D5A  21 00 00    	ld	hl,_tmp0
3012  0D5D  7E          	ld	a,(hl)
3013  0D5E  3C          	inc	a
3014  0D5F  77          	ld	(hl),a
3015  0D60  D6 07       	sub	a,0x07
3016  0D62  DA DA 0C    	jp	C, l_spr_play_bullets_00129
3017  0D65              l_spr_play_bullets_00116:
3018  0D65  DD 6E FD    	ld	l,(ix-3)
3019  0D68  DD 66 FE    	ld	h,(ix-2)
3020  0D6B  7E          	ld	a,(hl)
3021  0D6C  57          	ld	d,a
3022  0D6D  3C          	inc	a
3023  0D6E  28 5D       	jr	Z,l_spr_play_bullets_00132
3024  0D70  3E 00       	ld	a, +((_scr_map) & 0xFF)
3025  0D72  21 00 00    	ld	hl,_index0
3026  0D75  86          	add	a, (hl)
3027  0D76  47          	ld	b, a
3028  0D77  3E 00       	ld	a, +((_scr_map) / 256)
3029  0D79  23          	inc	hl
3030  0D7A  8E          	adc	a, (hl)
3031  0D7B  67          	ld	h, a
3032  0D7C  68          	ld	l, b
3033  0D7D  7E          	ld	a, (hl)
3034  0D7E  D6 3C       	sub	a,0x3c
3035  0D80  30 20       	jr	NC,l_spr_play_bullets_00118
3036  0D82  06 00       	ld	b,0x00
3037  0D84  21 00 00    	ld	hl,_bullet_tile
3038  0D87  09          	add	hl, bc
3039  0D88  5E          	ld	e, (hl)
3040  0D89  06 00       	ld	b,0x00
3041  0D8B  21 00 00    	ld	hl,_bullet_colint
3042  0D8E  09          	add	hl, bc
3043  0D8F  46          	ld	b, (hl)
3044  0D90  7B          	ld	a, e
3045  0D91  80          	add	a, b
3046  0D92  47          	ld	b, a
3047  0D93  C5          	push	bc
3048  0D94  D5          	push	de
3049  0D95  33          	inc	sp
3050  0D96  3A 00 00    	ld	a,(_s_lin0)
3051  0D99  48          	ld	c,b
3052  0D9A  47          	ld	b,a
3053  0D9B  C5          	push	bc
3054  0D9C  CD 00 00    	call	_NIRVANAP_drawT_callee
3055  0D9F  C1          	pop	bc
3056  0DA0  18 2B       	jr	l_spr_play_bullets_00132
3057  0DA2              l_spr_play_bullets_00118:
3058  0DA2  3A 00 00    	ld	a,(_tmp)
3059  0DA5  C5          	push	bc
3060  0DA6  21 7B 03    	ld	hl,0x037b
3061  0DA9  E5          	push	hl
3062  0DAA  F5          	push	af
3063  0DAB  33          	inc	sp
3064  0DAC  3A 00 00    	ld	a,(_s_lin0)
3065  0DAF  F5          	push	af
3066  0DB0  33          	inc	sp
3067  0DB1  CD 9E 0A    	call	_spr_add_anim
3068  0DB4  F1          	pop	af
3069  0DB5  F1          	pop	af
3070  0DB6  C1          	pop	bc
3071  0DB7  21 00 00    	ld	hl,_bullet_count
3072  0DBA  35          	dec	(hl)
3073  0DBB  DD 6E FD    	ld	l,(ix-3)
3074  0DBE  DD 66 FE    	ld	h,(ix-2)
3075  0DC1  36 FF       	ld	(hl),0xff
3076  0DC3  18 08       	jr	l_spr_play_bullets_00132
3077  0DC5              l_spr_play_bullets_00123:
3078  0DC5  21 00 00    	ld	hl,_bullet_count
3079  0DC8  35          	dec	(hl)
3080  0DC9  E1          	pop	hl
3081  0DCA  E5          	push	hl
3082  0DCB  36 FF       	ld	(hl),0xff
3083  0DCD              l_spr_play_bullets_00132:
3084  0DCD  0C          	inc	c
3085  0DCE  79          	ld	a, c
3086  0DCF  D6 08       	sub	a,0x08
3087  0DD1  DA 0A 0C    	jp	C, l_spr_play_bullets_00131
3088  0DD4  DD F9       	ld	sp, ix
3089  0DD6  DD E1       	pop	ix
3090  0DD8  C9          	ret
3091  0DD9              	SECTION code_compiler
3092  0DD9              ;	---------------------------------
3093  0DD9              ; Function spr_turn_horizontal
3094  0DD9              ; ---------------------------------
3095  0DD9              _spr_turn_horizontal:
3096  0DD9  21 00 00    	ld	hl,_s_state
3097  0DDC  CB 56       	bit	2, (hl)
3098  0DDE  28 0B       	jr	Z,l_spr_turn_horizontal_00102
3099  0DE0  21 00 00    	ld	hl,_s_state
3100  0DE3  7E          	ld	a,(hl)
3101  0DE4  F6 08       	or	a,0x08
3102  0DE6  E6 FB       	and	a,0xfb
3103  0DE8  77          	ld	(hl),a
3104  0DE9  18 09       	jr	l_spr_turn_horizontal_00103
3105  0DEB              l_spr_turn_horizontal_00102:
3106  0DEB  21 00 00    	ld	hl,_s_state
3107  0DEE  7E          	ld	a,(hl)
3108  0DEF  E6 F7       	and	a,0xf7
3109  0DF1  F6 04       	or	a,0x04
3110  0DF3  77          	ld	(hl),a
3111  0DF4              l_spr_turn_horizontal_00103:
3112  0DF4  2A 00 00    	ld	hl,(_sprite)
3113  0DF7  26 00       	ld	h,0x00
3114  0DF9  01 00 00    	ld	bc,_state
3115  0DFC  09          	add	hl,bc
3116  0DFD  3A 00 00    	ld	a,(_s_state)
3117  0E00  77          	ld	(hl),a
3118  0E01  2A 00 00    	ld	hl,(_sprite)
3119  0E04  26 00       	ld	h,0x00
3120  0E06  01 00 00    	ld	bc,_tile
3121  0E09  09          	add	hl,bc
3122  0E0A  E5          	push	hl
3123  0E0B  2A 00 00    	ld	hl,(_sprite)
3124  0E0E  CD 46 06    	call	_spr_tile
3125  0E11  C1          	pop	bc
3126  0E12  7D          	ld	a,l
3127  0E13  02          	ld	(bc), a
3128  0E14  C9          	ret
3129  0E15              	SECTION IGNORE
3130  0000              
