1     0000              MODULE game_sprite_c
2     0000              
3     0000              ;--------------------------------------------------------
4     0000              ; File Created by SDCC : free open source ANSI-C Compiler
5     0000              ; Version 3.6.5 #9958 (Mac OS X i386)
6     0000              ;--------------------------------------------------------
7     0000              ; Processed by Z88DK
8     0000              ;--------------------------------------------------------
9     0000              
10    0000              	EXTERN __divschar
11    0000              	EXTERN __divschar_callee
12    0000              	EXTERN __divsint
13    0000              	EXTERN __divsint_callee
14    0000              	EXTERN __divslong
15    0000              	EXTERN __divslong_callee
16    0000              	EXTERN __divslonglong
17    0000              	EXTERN __divslonglong_callee
18    0000              	EXTERN __divsuchar
19    0000              	EXTERN __divsuchar_callee
20    0000              	EXTERN __divuchar
21    0000              	EXTERN __divuchar_callee
22    0000              	EXTERN __divuint
23    0000              	EXTERN __divuint_callee
24    0000              	EXTERN __divulong
25    0000              	EXTERN __divulong_callee
26    0000              	EXTERN __divulonglong
27    0000              	EXTERN __divulonglong_callee
28    0000              	EXTERN __divuschar
29    0000              	EXTERN __divuschar_callee
30    0000              	EXTERN __modschar
31    0000              	EXTERN __modschar_callee
32    0000              	EXTERN __modsint
33    0000              	EXTERN __modsint_callee
34    0000              	EXTERN __modslong
35    0000              	EXTERN __modslong_callee
36    0000              	EXTERN __modslonglong
37    0000              	EXTERN __modslonglong_callee
38    0000              	EXTERN __modsuchar
39    0000              	EXTERN __modsuchar_callee
40    0000              	EXTERN __moduchar
41    0000              	EXTERN __moduchar_callee
42    0000              	EXTERN __moduint
43    0000              	EXTERN __moduint_callee
44    0000              	EXTERN __modulong
45    0000              	EXTERN __modulong_callee
46    0000              	EXTERN __modulonglong
47    0000              	EXTERN __modulonglong_callee
48    0000              	EXTERN __moduschar
49    0000              	EXTERN __moduschar_callee
50    0000              	EXTERN __mulint
51    0000              	EXTERN __mulint_callee
52    0000              	EXTERN __mullong
53    0000              	EXTERN __mullong_callee
54    0000              	EXTERN __mullonglong
55    0000              	EXTERN __mullonglong_callee
56    0000              	EXTERN __mulschar
57    0000              	EXTERN __mulschar_callee
58    0000              	EXTERN __mulsuchar
59    0000              	EXTERN __mulsuchar_callee
60    0000              	EXTERN __muluschar
61    0000              	EXTERN __muluschar_callee
62    0000              	EXTERN __rlslonglong
63    0000              	EXTERN __rlslonglong_callee
64    0000              	EXTERN __rlulonglong
65    0000              	EXTERN __rlulonglong_callee
66    0000              	EXTERN __rrslonglong
67    0000              	EXTERN __rrslonglong_callee
68    0000              	EXTERN __rrulonglong
69    0000              	EXTERN __rrulonglong_callee
70    0000              	EXTERN ___sdcc_call_hl
71    0000              	EXTERN ___sdcc_call_iy
72    0000              	EXTERN ___sdcc_enter_ix
73    0000              	EXTERN _banked_call
74    0000              	EXTERN _banked_ret
75    0000              	EXTERN ___fs2schar
76    0000              	EXTERN ___fs2schar_callee
77    0000              	EXTERN ___fs2sint
78    0000              	EXTERN ___fs2sint_callee
79    0000              	EXTERN ___fs2slong
80    0000              	EXTERN ___fs2slong_callee
81    0000              	EXTERN ___fs2slonglong
82    0000              	EXTERN ___fs2slonglong_callee
83    0000              	EXTERN ___fs2uchar
84    0000              	EXTERN ___fs2uchar_callee
85    0000              	EXTERN ___fs2uint
86    0000              	EXTERN ___fs2uint_callee
87    0000              	EXTERN ___fs2ulong
88    0000              	EXTERN ___fs2ulong_callee
89    0000              	EXTERN ___fs2ulonglong
90    0000              	EXTERN ___fs2ulonglong_callee
91    0000              	EXTERN ___fsadd
92    0000              	EXTERN ___fsadd_callee
93    0000              	EXTERN ___fsdiv
94    0000              	EXTERN ___fsdiv_callee
95    0000              	EXTERN ___fseq
96    0000              	EXTERN ___fseq_callee
97    0000              	EXTERN ___fsgt
98    0000              	EXTERN ___fsgt_callee
99    0000              	EXTERN ___fslt
100   0000              	EXTERN ___fslt_callee
101   0000              	EXTERN ___fsmul
102   0000              	EXTERN ___fsmul_callee
103   0000              	EXTERN ___fsneq
104   0000              	EXTERN ___fsneq_callee
105   0000              	EXTERN ___fssub
106   0000              	EXTERN ___fssub_callee
107   0000              	EXTERN ___schar2fs
108   0000              	EXTERN ___schar2fs_callee
109   0000              	EXTERN ___sint2fs
110   0000              	EXTERN ___sint2fs_callee
111   0000              	EXTERN ___slong2fs
112   0000              	EXTERN ___slong2fs_callee
113   0000              	EXTERN ___slonglong2fs
114   0000              	EXTERN ___slonglong2fs_callee
115   0000              	EXTERN ___uchar2fs
116   0000              	EXTERN ___uchar2fs_callee
117   0000              	EXTERN ___uint2fs
118   0000              	EXTERN ___uint2fs_callee
119   0000              	EXTERN ___ulong2fs
120   0000              	EXTERN ___ulong2fs_callee
121   0000              	EXTERN ___ulonglong2fs
122   0000              	EXTERN ___ulonglong2fs_callee
123   0000              	EXTERN ____sdcc_2_copy_src_mhl_dst_deix
124   0000              	EXTERN ____sdcc_2_copy_src_mhl_dst_bcix
125   0000              	EXTERN ____sdcc_4_copy_src_mhl_dst_deix
126   0000              	EXTERN ____sdcc_4_copy_src_mhl_dst_bcix
127   0000              	EXTERN ____sdcc_4_copy_src_mhl_dst_mbc
128   0000              	EXTERN ____sdcc_4_ldi_nosave_bc
129   0000              	EXTERN ____sdcc_4_ldi_save_bc
130   0000              	EXTERN ____sdcc_4_push_hlix
131   0000              	EXTERN ____sdcc_4_push_mhl
132   0000              	EXTERN ____sdcc_lib_setmem_hl
133   0000              	EXTERN ____sdcc_ll_add_de_bc_hl
134   0000              	EXTERN ____sdcc_ll_add_de_bc_hlix
135   0000              	EXTERN ____sdcc_ll_add_de_hlix_bc
136   0000              	EXTERN ____sdcc_ll_add_de_hlix_bcix
137   0000              	EXTERN ____sdcc_ll_add_deix_bc_hl
138   0000              	EXTERN ____sdcc_ll_add_deix_hlix
139   0000              	EXTERN ____sdcc_ll_add_hlix_bc_deix
140   0000              	EXTERN ____sdcc_ll_add_hlix_deix_bc
141   0000              	EXTERN ____sdcc_ll_add_hlix_deix_bcix
142   0000              	EXTERN ____sdcc_ll_asr_hlix_a
143   0000              	EXTERN ____sdcc_ll_asr_mbc_a
144   0000              	EXTERN ____sdcc_ll_copy_src_de_dst_hlix
145   0000              	EXTERN ____sdcc_ll_copy_src_de_dst_hlsp
146   0000              	EXTERN ____sdcc_ll_copy_src_deix_dst_hl
147   0000              	EXTERN ____sdcc_ll_copy_src_deix_dst_hlix
148   0000              	EXTERN ____sdcc_ll_copy_src_deixm_dst_hlsp
149   0000              	EXTERN ____sdcc_ll_copy_src_desp_dst_hlsp
150   0000              	EXTERN ____sdcc_ll_copy_src_hl_dst_de
151   0000              	EXTERN ____sdcc_ll_copy_src_hlsp_dst_de
152   0000              	EXTERN ____sdcc_ll_copy_src_hlsp_dst_deixm
153   0000              	EXTERN ____sdcc_ll_lsl_hlix_a
154   0000              	EXTERN ____sdcc_ll_lsl_mbc_a
155   0000              	EXTERN ____sdcc_ll_lsr_hlix_a
156   0000              	EXTERN ____sdcc_ll_lsr_mbc_a
157   0000              	EXTERN ____sdcc_ll_push_hlix
158   0000              	EXTERN ____sdcc_ll_push_mhl
159   0000              	EXTERN ____sdcc_ll_sub_de_bc_hl
160   0000              	EXTERN ____sdcc_ll_sub_de_bc_hlix
161   0000              	EXTERN ____sdcc_ll_sub_de_hlix_bc
162   0000              	EXTERN ____sdcc_ll_sub_de_hlix_bcix
163   0000              	EXTERN ____sdcc_ll_sub_deix_bc_hl
164   0000              	EXTERN ____sdcc_ll_sub_deix_hlix
165   0000              	EXTERN ____sdcc_ll_sub_hlix_bc_deix
166   0000              	EXTERN ____sdcc_ll_sub_hlix_deix_bc
167   0000              	EXTERN ____sdcc_ll_sub_hlix_deix_bcix
168   0000              	EXTERN ____sdcc_load_debc_deix
169   0000              	EXTERN ____sdcc_load_dehl_deix
170   0000              	EXTERN ____sdcc_load_debc_mhl
171   0000              	EXTERN ____sdcc_load_hlde_mhl
172   0000              	EXTERN ____sdcc_store_dehl_bcix
173   0000              	EXTERN ____sdcc_store_debc_hlix
174   0000              	EXTERN ____sdcc_store_debc_mhl
175   0000              	EXTERN ____sdcc_cpu_pop_ei
176   0000              	EXTERN ____sdcc_cpu_pop_ei_jp
177   0000              	EXTERN ____sdcc_cpu_push_di
178   0000              	EXTERN ____sdcc_outi
179   0000              	EXTERN ____sdcc_outi_128
180   0000              	EXTERN ____sdcc_outi_256
181   0000              	EXTERN ____sdcc_ldi
182   0000              	EXTERN ____sdcc_ldi_128
183   0000              	EXTERN ____sdcc_ldi_256
184   0000              
185   0000              ;--------------------------------------------------------
186   0000              ; Public variables in this module
187   0000              ;--------------------------------------------------------
188   0000              	GLOBAL _spr_calc_index
189   0000              	GLOBAL _spr_check_map
190   0000              	GLOBAL _spr_check_map_fall
191   0000              	GLOBAL _spr_chktime
192   0000              	GLOBAL _spr_move_jump
193   0000              	GLOBAL _spr_move_up
194   0000              	GLOBAL _spr_move_down
195   0000              	GLOBAL _spr_move_horizontal
196   0000              	GLOBAL _spr_move_right
197   0000              	GLOBAL _spr_move_left
198   0000              	GLOBAL _spr_page_right
199   0000              	GLOBAL _spr_page_left
200   0000              	GLOBAL _spr_page_map
201   0000              	GLOBAL _spr_redraw
202   0000              	GLOBAL _spr_killed
203   0000              	GLOBAL _spr_anim_kill
204   0000              	GLOBAL _spr_destroy
205   0000              	GLOBAL _spr_set_fall
206   0000              	GLOBAL _spr_tile
207   0000              	GLOBAL _spr_tile_dir
208   0000              	GLOBAL _spr_draw_background
209   0000              	GLOBAL _spr_draw_clear
210   0000              	GLOBAL _spr_back_paint
211   0000              	GLOBAL _spr_brick_anim
212   0000              	GLOBAL _spr_draw_index
213   0000              	GLOBAL _spr_draw_row
214   0000              	GLOBAL _spr_calc_hor
215   0000              	GLOBAL _spr_collision_check
216   0000              	GLOBAL _spr_kill_all
217   0000              	GLOBAL _spr_back_clr
218   0000              	GLOBAL _spr_tile_paint
219   0000              ;--------------------------------------------------------
220   0000              ; Externals used
221   0000              ;--------------------------------------------------------
222   0000              	GLOBAL _ulltoa_callee
223   0000              	GLOBAL _ulltoa
224   0000              	GLOBAL _strtoull_callee
225   0000              	GLOBAL _strtoull
226   0000              	GLOBAL _strtoll_callee
227   0000              	GLOBAL _strtoll
228   0000              	GLOBAL _lltoa_callee
229   0000              	GLOBAL _lltoa
230   0000              	GLOBAL _llabs_callee
231   0000              	GLOBAL _llabs
232   0000              	GLOBAL __lldivu__callee
233   0000              	GLOBAL __lldivu_
234   0000              	GLOBAL __lldiv__callee
235   0000              	GLOBAL __lldiv_
236   0000              	GLOBAL _atoll_callee
237   0000              	GLOBAL _atoll
238   0000              	GLOBAL _realloc_unlocked_callee
239   0000              	GLOBAL _realloc_unlocked
240   0000              	GLOBAL _malloc_unlocked_fastcall
241   0000              	GLOBAL _malloc_unlocked
242   0000              	GLOBAL _free_unlocked_fastcall
243   0000              	GLOBAL _free_unlocked
244   0000              	GLOBAL _calloc_unlocked_callee
245   0000              	GLOBAL _calloc_unlocked
246   0000              	GLOBAL _aligned_alloc_unlocked_callee
247   0000              	GLOBAL _aligned_alloc_unlocked
248   0000              	GLOBAL _realloc_callee
249   0000              	GLOBAL _realloc
250   0000              	GLOBAL _malloc_fastcall
251   0000              	GLOBAL _malloc
252   0000              	GLOBAL _free_fastcall
253   0000              	GLOBAL _free
254   0000              	GLOBAL _calloc_callee
255   0000              	GLOBAL _calloc
256   0000              	GLOBAL _aligned_alloc_callee
257   0000              	GLOBAL _aligned_alloc
258   0000              	GLOBAL _utoa_callee
259   0000              	GLOBAL _utoa
260   0000              	GLOBAL _ultoa_callee
261   0000              	GLOBAL _ultoa
262   0000              	GLOBAL _system_fastcall
263   0000              	GLOBAL _system
264   0000              	GLOBAL _strtoul_callee
265   0000              	GLOBAL _strtoul
266   0000              	GLOBAL _strtol_callee
267   0000              	GLOBAL _strtol
268   0000              	GLOBAL _strtof_callee
269   0000              	GLOBAL _strtof
270   0000              	GLOBAL _strtod_callee
271   0000              	GLOBAL _strtod
272   0000              	GLOBAL _srand_fastcall
273   0000              	GLOBAL _srand
274   0000              	GLOBAL _rand
275   0000              	GLOBAL _quick_exit_fastcall
276   0000              	GLOBAL _quick_exit
277   0000              	GLOBAL _qsort_callee
278   0000              	GLOBAL _qsort
279   0000              	GLOBAL _ltoa_callee
280   0000              	GLOBAL _ltoa
281   0000              	GLOBAL _labs_fastcall
282   0000              	GLOBAL _labs
283   0000              	GLOBAL _itoa_callee
284   0000              	GLOBAL _itoa
285   0000              	GLOBAL _ftoh_callee
286   0000              	GLOBAL _ftoh
287   0000              	GLOBAL _ftog_callee
288   0000              	GLOBAL _ftog
289   0000              	GLOBAL _ftoe_callee
290   0000              	GLOBAL _ftoe
291   0000              	GLOBAL _ftoa_callee
292   0000              	GLOBAL _ftoa
293   0000              	GLOBAL _exit_fastcall
294   0000              	GLOBAL _exit
295   0000              	GLOBAL _dtoh_callee
296   0000              	GLOBAL _dtoh
297   0000              	GLOBAL _dtog_callee
298   0000              	GLOBAL _dtog
299   0000              	GLOBAL _dtoe_callee
300   0000              	GLOBAL _dtoe
301   0000              	GLOBAL _dtoa_callee
302   0000              	GLOBAL _dtoa
303   0000              	GLOBAL _bsearch_callee
304   0000              	GLOBAL _bsearch
305   0000              	GLOBAL _atol_fastcall
306   0000              	GLOBAL _atol
307   0000              	GLOBAL _atoi_fastcall
308   0000              	GLOBAL _atoi
309   0000              	GLOBAL _atof_fastcall
310   0000              	GLOBAL _atof
311   0000              	GLOBAL _atexit_fastcall
312   0000              	GLOBAL _atexit
313   0000              	GLOBAL _at_quick_exit_fastcall
314   0000              	GLOBAL _at_quick_exit
315   0000              	GLOBAL _abs_fastcall
316   0000              	GLOBAL _abs
317   0000              	GLOBAL _abort
318   0000              	GLOBAL __strtou__callee
319   0000              	GLOBAL __strtou_
320   0000              	GLOBAL __strtoi__callee
321   0000              	GLOBAL __strtoi_
322   0000              	GLOBAL __random_uniform_xor_8__fastcall
323   0000              	GLOBAL __random_uniform_xor_8_
324   0000              	GLOBAL __random_uniform_xor_32__fastcall
325   0000              	GLOBAL __random_uniform_xor_32_
326   0000              	GLOBAL __random_uniform_cmwc_8__fastcall
327   0000              	GLOBAL __random_uniform_cmwc_8_
328   0000              	GLOBAL __shellsort__callee
329   0000              	GLOBAL __shellsort_
330   0000              	GLOBAL __quicksort__callee
331   0000              	GLOBAL __quicksort_
332   0000              	GLOBAL __insertion_sort__callee
333   0000              	GLOBAL __insertion_sort_
334   0000              	GLOBAL __ldivu__callee
335   0000              	GLOBAL __ldivu_
336   0000              	GLOBAL __ldiv__callee
337   0000              	GLOBAL __ldiv_
338   0000              	GLOBAL __divu__callee
339   0000              	GLOBAL __divu_
340   0000              	GLOBAL __div__callee
341   0000              	GLOBAL __div_
342   0000              	GLOBAL _NIRVANAP_drawTW_raw_callee
343   0000              	GLOBAL _NIRVANAP_drawTW_raw
344   0000              	GLOBAL _NIRVANAP_drawTW_callee
345   0000              	GLOBAL _NIRVANAP_drawTW
346   0000              	GLOBAL _NIRVANAP_drawW_raw_callee
347   0000              	GLOBAL _NIRVANAP_drawW_raw
348   0000              	GLOBAL _NIRVANAP_drawW_callee
349   0000              	GLOBAL _NIRVANAP_drawW
350   0000              	GLOBAL _NIRVANAP_spriteT_callee
351   0000              	GLOBAL _NIRVANAP_spriteT
352   0000              	GLOBAL _NIRVANAP_fillC_callee
353   0000              	GLOBAL _NIRVANAP_fillC
354   0000              	GLOBAL _NIRVANAP_readC_callee
355   0000              	GLOBAL _NIRVANAP_readC
356   0000              	GLOBAL _NIRVANAP_paintC_callee
357   0000              	GLOBAL _NIRVANAP_paintC
358   0000              	GLOBAL _NIRVANAP_printC_callee
359   0000              	GLOBAL _NIRVANAP_printC
360   0000              	GLOBAL _NIRVANAP_fillT_raw_callee
361   0000              	GLOBAL _NIRVANAP_fillT_raw
362   0000              	GLOBAL _NIRVANAP_fillT_callee
363   0000              	GLOBAL _NIRVANAP_fillT
364   0000              	GLOBAL _NIRVANAP_drawT_raw_callee
365   0000              	GLOBAL _NIRVANAP_drawT_raw
366   0000              	GLOBAL _NIRVANAP_drawT_callee
367   0000              	GLOBAL _NIRVANAP_drawT
368   0000              	GLOBAL _NIRVANAP_stop
369   0000              	GLOBAL _NIRVANAP_start
370   0000              	GLOBAL _debug3
371   0000              	GLOBAL _debug2
372   0000              	GLOBAL _debug
373   0000              	GLOBAL _zx_print_str
374   0000              	GLOBAL _zx_print_int
375   0000              	GLOBAL _zx_print_chr
376   0000              	GLOBAL _zx_print_bonus_time
377   0000              	GLOBAL _zx_isr
378   0000              	GLOBAL _z80_otdr_callee
379   0000              	GLOBAL _z80_otdr
380   0000              	GLOBAL _z80_otir_callee
381   0000              	GLOBAL _z80_otir
382   0000              	GLOBAL _z80_outp_callee
383   0000              	GLOBAL _z80_outp
384   0000              	GLOBAL _z80_indr_callee
385   0000              	GLOBAL _z80_indr
386   0000              	GLOBAL _z80_inir_callee
387   0000              	GLOBAL _z80_inir
388   0000              	GLOBAL _z80_inp_fastcall
389   0000              	GLOBAL _z80_inp
390   0000              	GLOBAL _z80_set_int_state_fastcall
391   0000              	GLOBAL _z80_set_int_state
392   0000              	GLOBAL _z80_get_int_state
393   0000              	GLOBAL _z80_delay_tstate_fastcall
394   0000              	GLOBAL _z80_delay_tstate
395   0000              	GLOBAL _z80_delay_ms_fastcall
396   0000              	GLOBAL _z80_delay_ms
397   0000              	GLOBAL _im2_remove_generic_callback_callee
398   0000              	GLOBAL _im2_remove_generic_callback
399   0000              	GLOBAL _im2_prepend_generic_callback_callee
400   0000              	GLOBAL _im2_prepend_generic_callback
401   0000              	GLOBAL _im2_append_generic_callback_callee
402   0000              	GLOBAL _im2_append_generic_callback
403   0000              	GLOBAL _im2_create_generic_isr_8080_callee
404   0000              	GLOBAL _im2_create_generic_isr_8080
405   0000              	GLOBAL _im2_create_generic_isr_callee
406   0000              	GLOBAL _im2_create_generic_isr
407   0000              	GLOBAL _im2_install_isr_callee
408   0000              	GLOBAL _im2_install_isr
409   0000              	GLOBAL _im2_init_fastcall
410   0000              	GLOBAL _im2_init
411   0000              	GLOBAL _intrinsic_swap_word_32_fastcall
412   0000              	GLOBAL _intrinsic_swap_word_32
413   0000              	GLOBAL _intrinsic_swap_endian_32_fastcall
414   0000              	GLOBAL _intrinsic_swap_endian_32
415   0000              	GLOBAL _intrinsic_swap_endian_16_fastcall
416   0000              	GLOBAL _intrinsic_swap_endian_16
417   0000              	GLOBAL _intrinsic_return_de
418   0000              	GLOBAL _intrinsic_return_bc
419   0000              	GLOBAL _intrinsic_exx
420   0000              	GLOBAL _intrinsic_ex_de_hl
421   0000              	GLOBAL _intrinsic_nop
422   0000              	GLOBAL _intrinsic_im_2
423   0000              	GLOBAL _intrinsic_im_1
424   0000              	GLOBAL _intrinsic_im_0
425   0000              	GLOBAL _intrinsic_retn
426   0000              	GLOBAL _intrinsic_reti
427   0000              	GLOBAL _intrinsic_halt
428   0000              	GLOBAL _intrinsic_ei
429   0000              	GLOBAL _intrinsic_di
430   0000              	GLOBAL _intrinsic_stub
431   0000              	GLOBAL _intrinsic_outi
432   0000              	GLOBAL _intrinsic_ldi
433   0000              	GLOBAL _zx_pattern_fill_callee
434   0000              	GLOBAL _zx_pattern_fill
435   0000              	GLOBAL _zx_saddrpup_fastcall
436   0000              	GLOBAL _zx_saddrpup
437   0000              	GLOBAL _zx_saddrpright_callee
438   0000              	GLOBAL _zx_saddrpright
439   0000              	GLOBAL _zx_saddrpleft_callee
440   0000              	GLOBAL _zx_saddrpleft
441   0000              	GLOBAL _zx_saddrpdown_fastcall
442   0000              	GLOBAL _zx_saddrpdown
443   0000              	GLOBAL _zx_saddrcup_fastcall
444   0000              	GLOBAL _zx_saddrcup
445   0000              	GLOBAL _zx_saddrcright_fastcall
446   0000              	GLOBAL _zx_saddrcright
447   0000              	GLOBAL _zx_saddrcleft_fastcall
448   0000              	GLOBAL _zx_saddrcleft
449   0000              	GLOBAL _zx_saddrcdown_fastcall
450   0000              	GLOBAL _zx_saddrcdown
451   0000              	GLOBAL _zx_saddr2py_fastcall
452   0000              	GLOBAL _zx_saddr2py
453   0000              	GLOBAL _zx_saddr2px_fastcall
454   0000              	GLOBAL _zx_saddr2px
455   0000              	GLOBAL _zx_saddr2cy_fastcall
456   0000              	GLOBAL _zx_saddr2cy
457   0000              	GLOBAL _zx_saddr2cx_fastcall
458   0000              	GLOBAL _zx_saddr2cx
459   0000              	GLOBAL _zx_saddr2aaddr_fastcall
460   0000              	GLOBAL _zx_saddr2aaddr
461   0000              	GLOBAL _zx_py2saddr_fastcall
462   0000              	GLOBAL _zx_py2saddr
463   0000              	GLOBAL _zx_py2aaddr_fastcall
464   0000              	GLOBAL _zx_py2aaddr
465   0000              	GLOBAL _zx_pxy2saddr_callee
466   0000              	GLOBAL _zx_pxy2saddr
467   0000              	GLOBAL _zx_pxy2aaddr_callee
468   0000              	GLOBAL _zx_pxy2aaddr
469   0000              	GLOBAL _zx_px2bitmask_fastcall
470   0000              	GLOBAL _zx_px2bitmask
471   0000              	GLOBAL _zx_cy2saddr_fastcall
472   0000              	GLOBAL _zx_cy2saddr
473   0000              	GLOBAL _zx_cy2aaddr_fastcall
474   0000              	GLOBAL _zx_cy2aaddr
475   0000              	GLOBAL _zx_cxy2saddr_callee
476   0000              	GLOBAL _zx_cxy2saddr
477   0000              	GLOBAL _zx_cxy2aaddr_callee
478   0000              	GLOBAL _zx_cxy2aaddr
479   0000              	GLOBAL _zx_bitmask2px_fastcall
480   0000              	GLOBAL _zx_bitmask2px
481   0000              	GLOBAL _zx_aaddrcup_fastcall
482   0000              	GLOBAL _zx_aaddrcup
483   0000              	GLOBAL _zx_aaddrcright_fastcall
484   0000              	GLOBAL _zx_aaddrcright
485   0000              	GLOBAL _zx_aaddrcleft_fastcall
486   0000              	GLOBAL _zx_aaddrcleft
487   0000              	GLOBAL _zx_aaddrcdown_fastcall
488   0000              	GLOBAL _zx_aaddrcdown
489   0000              	GLOBAL _zx_aaddr2saddr_fastcall
490   0000              	GLOBAL _zx_aaddr2saddr
491   0000              	GLOBAL _zx_aaddr2py_fastcall
492   0000              	GLOBAL _zx_aaddr2py
493   0000              	GLOBAL _zx_aaddr2px_fastcall
494   0000              	GLOBAL _zx_aaddr2px
495   0000              	GLOBAL _zx_aaddr2cy_fastcall
496   0000              	GLOBAL _zx_aaddr2cy
497   0000              	GLOBAL _zx_aaddr2cx_fastcall
498   0000              	GLOBAL _zx_aaddr2cx
499   0000              	GLOBAL _zx_visit_wc_pix_callee
500   0000              	GLOBAL _zx_visit_wc_pix
501   0000              	GLOBAL _zx_visit_wc_attr_callee
502   0000              	GLOBAL _zx_visit_wc_attr
503   0000              	GLOBAL _zx_scroll_wc_up_pix_callee
504   0000              	GLOBAL _zx_scroll_wc_up_pix
505   0000              	GLOBAL _zx_scroll_wc_up_attr_callee
506   0000              	GLOBAL _zx_scroll_wc_up_attr
507   0000              	GLOBAL _zx_scroll_wc_up_callee
508   0000              	GLOBAL _zx_scroll_wc_up
509   0000              	GLOBAL _zx_scroll_up_pix_callee
510   0000              	GLOBAL _zx_scroll_up_pix
511   0000              	GLOBAL _zx_scroll_up_attr_callee
512   0000              	GLOBAL _zx_scroll_up_attr
513   0000              	GLOBAL _zx_scroll_up_callee
514   0000              	GLOBAL _zx_scroll_up
515   0000              	GLOBAL _zx_cls_wc_pix_callee
516   0000              	GLOBAL _zx_cls_wc_pix
517   0000              	GLOBAL _zx_cls_wc_attr_callee
518   0000              	GLOBAL _zx_cls_wc_attr
519   0000              	GLOBAL _zx_cls_wc_callee
520   0000              	GLOBAL _zx_cls_wc
521   0000              	GLOBAL _zx_cls_pix_fastcall
522   0000              	GLOBAL _zx_cls_pix
523   0000              	GLOBAL _zx_cls_attr_fastcall
524   0000              	GLOBAL _zx_cls_attr
525   0000              	GLOBAL _zx_cls_fastcall
526   0000              	GLOBAL _zx_cls
527   0000              	GLOBAL _zx_border_fastcall
528   0000              	GLOBAL _zx_border
529   0000              	GLOBAL _sound_hit_brick
530   0000              	GLOBAL _sound_hit_enemy
531   0000              	GLOBAL _sound_kill
532   0000              	GLOBAL _sound_enter_enemy
533   0000              	GLOBAL _sound_coin
534   0000              	GLOBAL _sound_jump
535   0000              	GLOBAL _sound_slide
536   0000              	GLOBAL _player_pick_item
537   0000              	GLOBAL _player_check_floor
538   0000              	GLOBAL _player_hit_brck_clear
539   0000              	GLOBAL _player_lost_life
540   0000              	GLOBAL _player_score_add
541   0000              	GLOBAL _player_player_hit_pow
542   0000              	GLOBAL _player_hit_brck
543   0000              	GLOBAL _player_move_input
544   0000              	GLOBAL _player_turn
545   0000              	GLOBAL _player_move
546   0000              	GLOBAL _player_restart
547   0000              	GLOBAL _player_kill
548   0000              	GLOBAL _player_check_input
549   0000              	GLOBAL _player_collision
550   0000              	GLOBAL _player_calc_slide
551   0000              	GLOBAL _player_init
552   0000              	GLOBAL _game_joystick_set_menu
553   0000              	GLOBAL _game_joystick_set
554   0000              	GLOBAL _game_joystick_change
555   0000              	GLOBAL _game_print_header
556   0000              	GLOBAL _game_end
557   0000              	GLOBAL _game_score_osd
558   0000              	GLOBAL _game_phase_print_score_back
559   0000              	GLOBAL _game_check_time
560   0000              	GLOBAL _game_rotate_attrib
561   0000              	GLOBAL _game_colour_message
562   0000              	GLOBAL _game_paint_attrib_lin_h
563   0000              	GLOBAL _game_paint_attrib_lin
564   0000              	GLOBAL _game_paint_attrib
565   0000              	GLOBAL _game_print_score
566   0000              	GLOBAL _game_unfreeze_all
567   0000              	GLOBAL _game_freeze_all
568   0000              	GLOBAL _game_freeze
569   0000              	GLOBAL _game_enemy_add_get_index
570   0000              	GLOBAL _game_check_maze_floor
571   0000              	GLOBAL _game_check_maze
572   0000              	GLOBAL _game_loop
573   0000              	GLOBAL _game_phase_init
574   0000              	GLOBAL _game_start_timer
575   0000              	GLOBAL _game_tick
576   0000              	GLOBAL _game_print_lives
577   0000              	GLOBAL _game_print_footer
578   0000              	GLOBAL _game_fill_row
579   0000              	GLOBAL _enemy_ugly_fix
580   0000              	GLOBAL _enemy_kill
581   0000              	GLOBAL _enemy_init
582   0000              	GLOBAL _enemy_walk
583   0000              	GLOBAL _enemy_upgrade
584   0000              	GLOBAL _enemy_evolve
585   0000              	GLOBAL _enemy_standard_hit
586   0000              	GLOBAL _enemy_fighterfly
587   0000              	GLOBAL _enemy_fireball_green
588   0000              	GLOBAL _enemy_fireball_red
589   0000              	GLOBAL _enemy_slipice
590   0000              	GLOBAL _enemy_standard
591   0000              	GLOBAL _enemy_turn
592   0000              	GLOBAL _enemy_flip_sidestepper
593   0000              	GLOBAL _enemy_flip
594   0000              	GLOBAL _enemy_flip_change_dir
595   0000              	GLOBAL _enemy_hit
596   0000              	GLOBAL _enemy_collision_turn_dir
597   0000              	GLOBAL _enemy_collision
598   0000              	GLOBAL _enemy_coin1
599   0000              	GLOBAL _ay_fx_play
600   0000              	GLOBAL _ay_midi_play
601   0000              	GLOBAL _ay_is_playing
602   0000              	GLOBAL _ay_reset
603   0000              	GLOBAL _test_func
604   0000              	GLOBAL _in_mouse_kempston_wheel_delta
605   0000              	GLOBAL _in_mouse_kempston_wheel
606   0000              	GLOBAL _in_mouse_kempston_callee
607   0000              	GLOBAL _in_mouse_kempston
608   0000              	GLOBAL _in_mouse_kempston_setpos_callee
609   0000              	GLOBAL _in_mouse_kempston_setpos
610   0000              	GLOBAL _in_mouse_kempston_reset
611   0000              	GLOBAL _in_mouse_kempston_init
612   0000              	GLOBAL _in_mouse_amx_wheel_delta
613   0000              	GLOBAL _in_mouse_amx_wheel
614   0000              	GLOBAL _in_mouse_amx_callee
615   0000              	GLOBAL _in_mouse_amx
616   0000              	GLOBAL _in_mouse_amx_setpos_callee
617   0000              	GLOBAL _in_mouse_amx_setpos
618   0000              	GLOBAL _in_mouse_amx_reset
619   0000              	GLOBAL _in_mouse_amx_init_callee
620   0000              	GLOBAL _in_mouse_amx_init
621   0000              	GLOBAL _in_stick_sinclair2
622   0000              	GLOBAL _in_stick_sinclair1
623   0000              	GLOBAL _in_stick_kempston
624   0000              	GLOBAL _in_stick_fuller
625   0000              	GLOBAL _in_stick_cursor
626   0000              	GLOBAL _in_stick_keyboard_fastcall
627   0000              	GLOBAL _in_stick_keyboard
628   0000              	GLOBAL _in_wait_nokey
629   0000              	GLOBAL _in_wait_key
630   0000              	GLOBAL _in_test_key
631   0000              	GLOBAL _in_pause_fastcall
632   0000              	GLOBAL _in_pause
633   0000              	GLOBAL _in_key_scancode_fastcall
634   0000              	GLOBAL _in_key_scancode
635   0000              	GLOBAL _in_key_pressed_fastcall
636   0000              	GLOBAL _in_key_pressed
637   0000              	GLOBAL _in_inkey
638   0000              	GLOBAL _NIRVANAP_CHAR_TABLE
639   0000              	GLOBAL _NIRVANAP_WIDE_IMAGES
640   0000              	GLOBAL _NIRVANAP_TILE_IMAGES
641   0000              	GLOBAL _NIRVANAP_HOLE
642   0000              	GLOBAL _NIRVANAP_ISR_HOOK
643   0000              	GLOBAL _g_player_hit_right
644   0000              	GLOBAL _g_player_hit_left
645   0000              	GLOBAL _joynames
646   0000              	GLOBAL _initials
647   0000              	GLOBAL _score_osd_tile
648   0000              	GLOBAL _score_osd_update_time
649   0000              	GLOBAL _score_osd_col
650   0000              	GLOBAL _score_osd_lin
651   0000              	GLOBAL _phase_angry
652   0000              	GLOBAL _phase_curr
653   0000              	GLOBAL _phase_end
654   0000              	GLOBAL _phase_coins
655   0000              	GLOBAL _phase_pop
656   0000              	GLOBAL _phase_tot
657   0000              	GLOBAL _map_heigth
658   0000              	GLOBAL _map_width
659   0000              	GLOBAL _scr_curr
660   0000              	GLOBAL _scr_7
661   0000              	GLOBAL _scr_6
662   0000              	GLOBAL _scr_5
663   0000              	GLOBAL _scr_4
664   0000              	GLOBAL _scr_3
665   0000              	GLOBAL _scr_2
666   0000              	GLOBAL _scr_1
667   0000              	GLOBAL _scr_0
668   0000              	GLOBAL _scr_map
669   0000              	GLOBAL _sprite_speed_alt
670   0000              	GLOBAL _sprite_speed
671   0000              	GLOBAL _screen_ink
672   0000              	GLOBAL _screen_paper
673   0000              	GLOBAL _game_menu_sel
674   0000              	GLOBAL _game_type
675   0000              	GLOBAL _game_osd
676   0000              	GLOBAL _game_score_top
677   0000              	GLOBAL _player_lives
678   0000              	GLOBAL _game_over
679   0000              	GLOBAL _game_sound
680   0000              	GLOBAL _game_inmune
681   0000              	GLOBAL _game_god_mode
682   0000              	GLOBAL _game_start_phase
683   0000              	GLOBAL _game_two_player
684   0000              	GLOBAL _game_brick_tile
685   0000              	GLOBAL _sprite_curr_index
686   0000              	GLOBAL _spr_count
687   0000              	GLOBAL _osd_show_time
688   0000              	GLOBAL _osd_update_time
689   0000              	GLOBAL _frame_time
690   0000              	GLOBAL _entry_time
691   0000              	GLOBAL _curr_time
692   0000              	GLOBAL _s_state
693   0000              	GLOBAL _attrib_hl
694   0000              	GLOBAL _attrib
695   0000              	GLOBAL _zx_val_asm
696   0000              	GLOBAL _enemies
697   0000              	GLOBAL _tmp_ui
698   0000              	GLOBAL _tmp_sc
699   0000              	GLOBAL _tmp_uc
700   0000              	GLOBAL _tmp1
701   0000              	GLOBAL _tmp0
702   0000              	GLOBAL _tmp
703   0000              	GLOBAL _index1
704   0000              	GLOBAL _loop_count
705   0000              	GLOBAL _sprite_lin_inc_mul
706   0000              	GLOBAL _s_col1
707   0000              	GLOBAL _s_col0
708   0000              	GLOBAL _s_lin1
709   0000              	GLOBAL _s_lin0
710   0000              	GLOBAL _s_tile1
711   0000              	GLOBAL _s_tile0
712   0000              	GLOBAL _player_hit_count
713   0000              	GLOBAL _sprite
714   0000              	GLOBAL _game_gravity
715   0000              	GLOBAL _player_vel_y0
716   0000              	GLOBAL _player_vel_y
717   0000              	GLOBAL _player_vel_x
718   0000              	GLOBAL _player_joy
719   0000              	GLOBAL _player_score
720   0000              	GLOBAL _last_time
721   0000              	GLOBAL _player_slide
722   0000              	GLOBAL _spr_timer
723   0000              	GLOBAL _jump_lin
724   0000              	GLOBAL _player_hit_col
725   0000              	GLOBAL _player_hit_lin
726   0000              	GLOBAL _colint
727   0000              	GLOBAL _col
728   0000              	GLOBAL _lin
729   0000              	GLOBAL _tile
730   0000              	GLOBAL _state_a
731   0000              	GLOBAL _state
732   0000              	GLOBAL _class
733   0000              	GLOBAL _tbuffer
734   0000              	GLOBAL _dirs
735   0000              	GLOBAL _k1
736   0000              	GLOBAL _joyfunc1
737   0000              	GLOBAL _btiles
738   0000              	GLOBAL _spec128
739   0000              	GLOBAL _GLOBAL_ZX_PORT_7FFD
740   0000              	GLOBAL _GLOBAL_ZX_PORT_1FFD
741   0000              	GLOBAL _GLOBAL_ZX_PORT_FE
742   0000              	GLOBAL _ay_effect_20
743   0000              	GLOBAL _ay_effect_19
744   0000              	GLOBAL _ay_effect_18
745   0000              	GLOBAL _ay_effect_17
746   0000              	GLOBAL _ay_effect_16
747   0000              	GLOBAL _ay_effect_15
748   0000              	GLOBAL _ay_effect_14
749   0000              	GLOBAL _ay_effect_13
750   0000              	GLOBAL _ay_effect_12
751   0000              	GLOBAL _ay_effect_11
752   0000              	GLOBAL _ay_effect_10
753   0000              	GLOBAL _ay_effect_09
754   0000              	GLOBAL _ay_effect_08
755   0000              	GLOBAL _ay_effect_07
756   0000              	GLOBAL _ay_effect_06
757   0000              	GLOBAL _ay_effect_05
758   0000              	GLOBAL _ay_effect_04
759   0000              	GLOBAL _ay_effect_03
760   0000              	GLOBAL _ay_effect_02
761   0000              	GLOBAL _ay_effect_01
762   0000              	GLOBAL _pb_midi_phase_1
763   0000              	GLOBAL _pb_midi_title
764   0000              	GLOBAL _control_method
765   0000              ;--------------------------------------------------------
766   0000              ; special function registers
767   0000              ;--------------------------------------------------------
768   0000              defc _IO_FE	=	0x00fe
769   0000              defc _IO_1FFD	=	0x1ffd
770   0000              defc _IO_7FFD	=	0x7ffd
771   0000              ;--------------------------------------------------------
772   0000              ; ram data
773   0000              ;--------------------------------------------------------
774   0000              	SECTION bss_compiler
775   0000              ;--------------------------------------------------------
776   0000              ; ram data
777   0000              ;--------------------------------------------------------
778   0000              
779   0000              IF 0
780   0000              
781   0000              ; .area _INITIALIZED removed by z88dk
782   0000              
783   0000              
784   0000              ENDIF
785   0000              
786   0000              ;--------------------------------------------------------
787   0000              ; absolute external ram data
788   0000              ;--------------------------------------------------------
789   0000              	SECTION IGNORE
790   0000              ;--------------------------------------------------------
791   0000              ; global & static initialisations
792   0000              ;--------------------------------------------------------
793   0000              	SECTION code_crt_init
794   0000              ;--------------------------------------------------------
795   0000              ; Home
796   0000              ;--------------------------------------------------------
797   0000              	SECTION IGNORE
798   0000              ;--------------------------------------------------------
799   0000              ; code
800   0000              ;--------------------------------------------------------
801   0000              	SECTION code_compiler
802   0000              ;	---------------------------------
803   0000              ; Function spr_calc_index
804   0000              ; ---------------------------------
805   0000              _spr_calc_index:
806   0000  CD 00 00    	call	___sdcc_enter_ix
807   0003  DD 4E 05    	ld	c,(ix+5)
808   0006  CB 39       	srl	c
809   0008  06 00       	ld	b,0x00
810   000A  DD 7E 04    	ld	a,(ix+4)
811   000D  07          	rlca
812   000E  07          	rlca
813   000F  07          	rlca
814   0010  07          	rlca
815   0011  E6 0F       	and	a,0x0f
816   0013  6F          	ld	l, a
817   0014  26 00       	ld	h,0x00
818   0016  29          	add	hl, hl
819   0017  29          	add	hl, hl
820   0018  29          	add	hl, hl
821   0019  29          	add	hl, hl
822   001A  09          	add	hl, bc
823   001B  DD E1       	pop	ix
824   001D  C9          	ret
825   001E              	SECTION code_compiler
826   001E              ;	---------------------------------
827   001E              ; Function spr_check_map
828   001E              ; ---------------------------------
829   001E              _spr_check_map:
830   001E  CD 00 00    	call	___sdcc_enter_ix
831   0021  DD CB 05 46 	bit	0,(ix+5)
832   0025  20 15       	jr	NZ,l_spr_check_map_00106
833   0027  DD 66 05    	ld	h,(ix+5)
834   002A  DD 6E 04    	ld	l,(ix+4)
835   002D  E5          	push	hl
836   002E  CD 00 00    	call	_spr_calc_index
837   0031  F1          	pop	af
838   0032  22 00 00    	ld	(_index1),hl
839   0035  CD 00 00    	call	_game_check_maze
840   0038  26 00       	ld	h,0x00
841   003A  18 4B       	jr	l_spr_check_map_00108
842   003C              l_spr_check_map_00106:
843   003C  DD 46 05    	ld	b,(ix+5)
844   003F  05          	dec	b
845   0040  DD 4E 04    	ld	c,(ix+4)
846   0043  C5          	push	bc
847   0044  CD 00 00    	call	_spr_calc_index
848   0047  F1          	pop	af
849   0048  22 00 00    	ld	(_index1),hl
850   004B  21 00 00    	ld	hl,_g_player_hit_left
851   004E  36 00       	ld	(hl),0x00
852   0050  21 00 00    	ld	hl,_g_player_hit_right
853   0053  36 00       	ld	(hl),0x00
854   0055  2A 00 00    	ld	hl,(_index1)
855   0058  CD 00 00    	call	_game_check_maze
856   005B  7D          	ld	a, l
857   005C  B7          	or	a, a
858   005D  28 05       	jr	Z,l_spr_check_map_00102
859   005F  21 00 00    	ld	hl,_g_player_hit_left
860   0062  36 01       	ld	(hl),0x01
861   0064              l_spr_check_map_00102:
862   0064  2A 00 00    	ld	hl,(_index1)
863   0067  23          	inc	hl
864   0068  CD 00 00    	call	_game_check_maze
865   006B  7D          	ld	a, l
866   006C  B7          	or	a, a
867   006D  28 05       	jr	Z,l_spr_check_map_00104
868   006F  21 00 00    	ld	hl,_g_player_hit_right
869   0072  36 01       	ld	(hl),0x01
870   0074              l_spr_check_map_00104:
871   0074  3A 00 00    	ld	a,(_g_player_hit_left)
872   0077  B7          	or	a, a
873   0078  20 09       	jr	NZ,l_spr_check_map_00111
874   007A  3A 00 00    	ld	a,(_g_player_hit_right)
875   007D  B7          	or	a,a
876   007E  20 03       	jr	NZ,l_spr_check_map_00111
877   0080  6F          	ld	l,a
878   0081  18 02       	jr	l_spr_check_map_00112
879   0083              l_spr_check_map_00111:
880   0083  2E 01       	ld	l,0x01
881   0085              l_spr_check_map_00112:
882   0085  26 00       	ld	h,0x00
883   0087              l_spr_check_map_00108:
884   0087  DD E1       	pop	ix
885   0089  C9          	ret
886   008A              	SECTION code_compiler
887   008A              ;	---------------------------------
888   008A              ; Function spr_check_map_fall
889   008A              ; ---------------------------------
890   008A              _spr_check_map_fall:
891   008A  CD 00 00    	call	___sdcc_enter_ix
892   008D  DD CB 05 46 	bit	0,(ix+5)
893   0091  20 15       	jr	NZ,l_spr_check_map_fall_00106
894   0093  DD 66 05    	ld	h,(ix+5)
895   0096  DD 6E 04    	ld	l,(ix+4)
896   0099  E5          	push	hl
897   009A  CD 00 00    	call	_spr_calc_index
898   009D  F1          	pop	af
899   009E  22 00 00    	ld	(_index1),hl
900   00A1  CD 00 00    	call	_game_check_maze_floor
901   00A4  26 00       	ld	h,0x00
902   00A6  18 4B       	jr	l_spr_check_map_fall_00108
903   00A8              l_spr_check_map_fall_00106:
904   00A8  DD 46 05    	ld	b,(ix+5)
905   00AB  05          	dec	b
906   00AC  DD 4E 04    	ld	c,(ix+4)
907   00AF  C5          	push	bc
908   00B0  CD 00 00    	call	_spr_calc_index
909   00B3  F1          	pop	af
910   00B4  22 00 00    	ld	(_index1),hl
911   00B7  21 00 00    	ld	hl,_g_player_hit_left
912   00BA  36 00       	ld	(hl),0x00
913   00BC  21 00 00    	ld	hl,_g_player_hit_right
914   00BF  36 00       	ld	(hl),0x00
915   00C1  2A 00 00    	ld	hl,(_index1)
916   00C4  CD 00 00    	call	_game_check_maze_floor
917   00C7  7D          	ld	a, l
918   00C8  B7          	or	a, a
919   00C9  28 05       	jr	Z,l_spr_check_map_fall_00102
920   00CB  21 00 00    	ld	hl,_g_player_hit_left
921   00CE  36 01       	ld	(hl),0x01
922   00D0              l_spr_check_map_fall_00102:
923   00D0  2A 00 00    	ld	hl,(_index1)
924   00D3  23          	inc	hl
925   00D4  CD 00 00    	call	_game_check_maze_floor
926   00D7  7D          	ld	a, l
927   00D8  B7          	or	a, a
928   00D9  28 05       	jr	Z,l_spr_check_map_fall_00104
929   00DB  21 00 00    	ld	hl,_g_player_hit_right
930   00DE  36 01       	ld	(hl),0x01
931   00E0              l_spr_check_map_fall_00104:
932   00E0  3A 00 00    	ld	a,(_g_player_hit_left)
933   00E3  B7          	or	a, a
934   00E4  20 09       	jr	NZ,l_spr_check_map_fall_00111
935   00E6  3A 00 00    	ld	a,(_g_player_hit_right)
936   00E9  B7          	or	a,a
937   00EA  20 03       	jr	NZ,l_spr_check_map_fall_00111
938   00EC  6F          	ld	l,a
939   00ED  18 02       	jr	l_spr_check_map_fall_00112
940   00EF              l_spr_check_map_fall_00111:
941   00EF  2E 01       	ld	l,0x01
942   00F1              l_spr_check_map_fall_00112:
943   00F1  26 00       	ld	h,0x00
944   00F3              l_spr_check_map_fall_00108:
945   00F3  DD E1       	pop	ix
946   00F5  C9          	ret
947   00F6              	SECTION code_compiler
948   00F6              ;	---------------------------------
949   00F6              ; Function spr_chktime
950   00F6              ; ---------------------------------
951   00F6              _spr_chktime:
952   00F6  CD 00 00    	call	___sdcc_enter_ix
953   00F9  F5          	push	af
954   00FA  DD 75 FE    	ld	(ix-2),l
955   00FD  DD 74 FF    	ld	(ix-1),h
956   0100  E1          	pop	hl
957   0101  01 00 00    	ld	bc,_sprite_speed_alt+0
958   0104  5E          	ld	e,(hl)
959   0105  E5          	push	hl
960   0106  6B          	ld	l,e
961   0107  26 00       	ld	h,0x00
962   0109  09          	add	hl, bc
963   010A  7E          	ld	a, (hl)
964   010B  B7          	or	a, a
965   010C  20 13       	jr	NZ,l_spr_chktime_00102
966   010E  01 00 00    	ld	bc,_sprite_speed+0
967   0111  16 00       	ld	d,0x00
968   0113  21 00 00    	ld	hl,_class
969   0116  19          	add	hl, de
970   0117  6E          	ld	l, (hl)
971   0118  26 00       	ld	h,0x00
972   011A  09          	add	hl, bc
973   011B  7E          	ld	a, (hl)
974   011C  32 00 00    	ld	(_tmp),a
975   011F  18 03       	jr	l_spr_chktime_00103
976   0121              l_spr_chktime_00102:
977   0121  32 00 00    	ld	(_tmp),a
978   0124              l_spr_chktime_00103:
979   0124  3A 00 00    	ld	a,(_tmp)
980   0127  4F          	ld	c,a
981   0128  06 00       	ld	b,0x00
982   012A  60          	ld	h,b
983   012B  6B          	ld	l, e
984   012C  29          	add	hl, hl
985   012D  11 00 00    	ld	de,_last_time
986   0130  19          	add	hl, de
987   0131  5E          	ld	e, (hl)
988   0132  23          	inc	hl
989   0133  56          	ld	d, (hl)
990   0134  C5          	push	bc
991   0135  D5          	push	de
992   0136  CD 00 00    	call	_game_check_time
993   0139  F1          	pop	af
994   013A  F1          	pop	af
995   013B  7D          	ld	a, l
996   013C  B7          	or	a, a
997   013D  28 15       	jr	Z,l_spr_chktime_00105
998   013F  E1          	pop	hl
999   0140  E5          	push	hl
1000  0141  6E          	ld	l, (hl)
1001  0142  26 00       	ld	h,0x00
1002  0144  29          	add	hl, hl
1003  0145  01 00 00    	ld	bc,_last_time
1004  0148  09          	add	hl,bc
1005  0149  ED 5B 00 00 	ld	de,(_curr_time)
1006  014D  73          	ld	(hl),e
1007  014E  23          	inc	hl
1008  014F  72          	ld	(hl),d
1009  0150  2E 01       	ld	l,0x01
1010  0152  18 02       	jr	l_spr_chktime_00106
1011  0154              l_spr_chktime_00105:
1012  0154  2E 00       	ld	l,0x00
1013  0156              l_spr_chktime_00106:
1014  0156  F1          	pop	af
1015  0157  DD E1       	pop	ix
1016  0159  C9          	ret
1017  015A              	SECTION code_compiler
1018  015A              ;	---------------------------------
1019  015A              ; Function spr_move_jump
1020  015A              ; ---------------------------------
1021  015A              _spr_move_jump:
1022  015A  3A 00 00    	ld	a,(_player_vel_y)
1023  015D  21 00 00    	ld	hl,_game_gravity
1024  0160  86          	add	a, (hl)
1025  0161  32 00 00    	ld	(_player_vel_y),a
1026  0164  6F          	ld	l,a
1027  0165  26 0A       	ld	h,0x0a
1028  0167  E5          	push	hl
1029  0168  CD 00 00    	call	__divuschar_callee
1030  016B  4D          	ld	c,l
1031  016C  CB 45       	bit	0,l
1032  016E  28 01       	jr	Z,l_spr_move_jump_00102
1033  0170  0C          	inc	c
1034  0171              l_spr_move_jump_00102:
1035  0171  2A 00 00    	ld	hl,(_sprite)
1036  0174  26 00       	ld	h,0x00
1037  0176  11 00 00    	ld	de,_lin
1038  0179  19          	add	hl,de
1039  017A  7E          	ld	a,(hl)
1040  017B  EB          	ex	de,hl
1041  017C  81          	add	a,c
1042  017D  12          	ld	(de),a
1043  017E  2A 00 00    	ld	hl,(_sprite)
1044  0181  26 00       	ld	h,0x00
1045  0183  11 00 00    	ld	de,_lin
1046  0186  19          	add	hl,de
1047  0187  46          	ld	b, (hl)
1048  0188  CB 79       	bit	7,c
1049  018A  28 2F       	jr	Z,l_spr_move_jump_00109
1050  018C  3A 00 00    	ld	a,(_sprite)
1051  018F  5F          	ld	e,a
1052  0190  16 00       	ld	d,0x00
1053  0192  21 00 00    	ld	hl,_col
1054  0195  19          	add	hl,de
1055  0196  56          	ld	d, (hl)
1056  0197  C5          	push	bc
1057  0198  58          	ld	e,b
1058  0199  D5          	push	de
1059  019A  CD 1E 00    	call	_spr_check_map
1060  019D  F1          	pop	af
1061  019E  C1          	pop	bc
1062  019F  7C          	ld	a,h
1063  01A0  B5          	or	a,l
1064  01A1  CA 26 02    	jp	Z, l_spr_move_jump_00110
1065  01A4  2A 00 00    	ld	hl,(_sprite)
1066  01A7  26 00       	ld	h,0x00
1067  01A9  11 00 00    	ld	de,_lin
1068  01AC  19          	add	hl,de
1069  01AD  7E          	ld	a,(hl)
1070  01AE  EB          	ex	de,hl
1071  01AF  91          	sub	a, c
1072  01B0  12          	ld	(de), a
1073  01B1  CD 00 00    	call	_player_hit_brck
1074  01B4  21 00 00    	ld	hl,_player_vel_y
1075  01B7  36 00       	ld	(hl),0x00
1076  01B9  18 6B       	jr	l_spr_move_jump_00110
1077  01BB              l_spr_move_jump_00109:
1078  01BB  2A 00 00    	ld	hl,(_sprite)
1079  01BE  26 00       	ld	h,0x00
1080  01C0  11 00 00    	ld	de,_col
1081  01C3  19          	add	hl,de
1082  01C4  56          	ld	d, (hl)
1083  01C5  78          	ld	a, b
1084  01C6  C6 10       	add	a,0x10
1085  01C8  5F          	ld	e, a
1086  01C9  D5          	push	de
1087  01CA  CD 8A 00    	call	_spr_check_map_fall
1088  01CD  F1          	pop	af
1089  01CE  4D          	ld	c,l
1090  01CF  44          	ld	b,h
1091  01D0  2A 00 00    	ld	hl,(_sprite)
1092  01D3  26 00       	ld	h,0x00
1093  01D5  11 00 00    	ld	de,_lin
1094  01D8  19          	add	hl,de
1095  01D9  5E          	ld	e, (hl)
1096  01DA  78          	ld	a,b
1097  01DB  EB          	ex	de,hl
1098  01DC  B1          	or	a,c
1099  01DD  20 05       	jr	NZ,l_spr_move_jump_00105
1100  01DF  3E 90       	ld	a,0x90
1101  01E1  95          	sub	a, l
1102  01E2  30 42       	jr	NC,l_spr_move_jump_00110
1103  01E4              l_spr_move_jump_00105:
1104  01E4  7D          	ld	a, l
1105  01E5  07          	rlca
1106  01E6  07          	rlca
1107  01E7  07          	rlca
1108  01E8  07          	rlca
1109  01E9  E6 0F       	and	a,0x0f
1110  01EB  07          	rlca
1111  01EC  07          	rlca
1112  01ED  07          	rlca
1113  01EE  07          	rlca
1114  01EF  E6 F0       	and	a,0xf0
1115  01F1  12          	ld	(de), a
1116  01F2  21 00 00    	ld	hl,_player_vel_y
1117  01F5  36 00       	ld	(hl),0x00
1118  01F7  21 00 00    	ld	hl,_s_state
1119  01FA  7E          	ld	a,(hl)
1120  01FB  E6 FC       	and	a,+(0xfd&0xfe)
1121  01FD  77          	ld	(hl),a
1122  01FE  2A 00 00    	ld	hl,(_sprite)
1123  0201  26 00       	ld	h,0x00
1124  0203  01 00 00    	ld	bc,_colint
1125  0206  09          	add	hl,bc
1126  0207  AF          	xor	a,a
1127  0208  77          	ld	(hl),a
1128  0209  2A 00 00    	ld	hl,(_sprite)
1129  020C  26 00       	ld	h,0x00
1130  020E  01 00 00    	ld	bc,_tile
1131  0211  09          	add	hl,bc
1132  0212  E5          	push	hl
1133  0213  3E 01       	ld	a,0x01
1134  0215  21 00 00    	ld	hl,_sprite
1135  0218  F5          	push	af
1136  0219  33          	inc	sp
1137  021A  56          	ld	d, (hl)
1138  021B  1E 64       	ld	e,0x64
1139  021D  D5          	push	de
1140  021E  CD 34 09    	call	_spr_tile_dir
1141  0221  F1          	pop	af
1142  0222  33          	inc	sp
1143  0223  C1          	pop	bc
1144  0224  7D          	ld	a,l
1145  0225  02          	ld	(bc), a
1146  0226              l_spr_move_jump_00110:
1147  0226  C3 31 03    	jp  _spr_move_horizontal
1148  0229              	SECTION code_compiler
1149  0229              ;	---------------------------------
1150  0229              ; Function spr_move_up
1151  0229              ; ---------------------------------
1152  0229              _spr_move_up:
1153  0229  2A 00 00    	ld	hl,(_sprite)
1154  022C  26 00       	ld	h,0x00
1155  022E  01 00 00    	ld	bc,_lin
1156  0231  09          	add	hl,bc
1157  0232  4E          	ld	c,(hl)
1158  0233  21 00 00    	ld	hl,_sprite_lin_inc_mul
1159  0236  46          	ld	b, (hl)
1160  0237  1E 02       	ld	e,0x02
1161  0239  04          	inc	b
1162  023A  18 02       	jr	l_spr_move_up_00134
1163  023C              l_spr_move_up_00133:
1164  023C  CB 23       	sla	e
1165  023E              l_spr_move_up_00134:
1166  023E  10 FC       	djnz	l_spr_move_up_00133
1167  0240  79          	ld	a, c
1168  0241  93          	sub	a, e
1169  0242  32 00 00    	ld	(_tmp1),a
1170  0245  2A 00 00    	ld	hl,(_sprite)
1171  0248  26 00       	ld	h,0x00
1172  024A  01 00 00    	ld	bc,_class
1173  024D  09          	add	hl,bc
1174  024E  7E          	ld	a,(hl)
1175  024F  D6 10       	sub	a,0x10
1176  0251  20 2D       	jr	NZ,l_spr_move_up_00107
1177  0253  2A 00 00    	ld	hl,(_sprite)
1178  0256  26 00       	ld	h,0x00
1179  0258  01 00 00    	ld	bc,_col
1180  025B  09          	add	hl,bc
1181  025C  7E          	ld	a,(hl)
1182  025D  F5          	push	af
1183  025E  33          	inc	sp
1184  025F  3A 00 00    	ld	a,(_tmp1)
1185  0262  F5          	push	af
1186  0263  33          	inc	sp
1187  0264  CD 1E 00    	call	_spr_check_map
1188  0267  F1          	pop	af
1189  0268  7C          	ld	a,h
1190  0269  B5          	or	a,l
1191  026A  28 14       	jr	Z,l_spr_move_up_00107
1192  026C  3A 00 00    	ld	a,(_sprite)
1193  026F  D6 07       	sub	a,0x07
1194  0271  20 09       	jr	NZ,l_spr_move_up_00102
1195  0273  3A 07 00    	ld	a,(_state_a + 0x0007)
1196  0276  07          	rlca
1197  0277  38 03       	jr	C,l_spr_move_up_00102
1198  0279  CD 00 00    	call	_player_hit_brck
1199  027C              l_spr_move_up_00102:
1200  027C  2E 01       	ld	l,0x01
1201  027E  18 39       	jr	l_spr_move_up_00111
1202  0280              l_spr_move_up_00107:
1203  0280  2A 00 00    	ld	hl,(_sprite)
1204  0283  26 00       	ld	h,0x00
1205  0285  01 00 00    	ld	bc,_lin
1206  0288  09          	add	hl,bc
1207  0289  3A 00 00    	ld	a,(_tmp1)
1208  028C  77          	ld	(hl),a
1209  028D  2A 00 00    	ld	hl,(_sprite)
1210  0290  26 00       	ld	h,0x00
1211  0292  01 00 00    	ld	bc,_lin
1212  0295  09          	add	hl,bc
1213  0296  7E          	ld	a,(hl)
1214  0297  5F          	ld	e,a
1215  0298  B7          	or	a,a
1216  0299  4D          	ld	c,l
1217  029A  44          	ld	b,h
1218  029B  28 05       	jr	Z,l_spr_move_up_00108
1219  029D  3E 90       	ld	a,0x90
1220  029F  93          	sub	a, e
1221  02A0  30 15       	jr	NC,l_spr_move_up_00109
1222  02A2              l_spr_move_up_00108:
1223  02A2  AF          	xor	a, a
1224  02A3  02          	ld	(bc), a
1225  02A4  3A 00 00    	ld	a,(_s_col0)
1226  02A7  F5          	push	af
1227  02A8  33          	inc	sp
1228  02A9  3A 00 00    	ld	a,(_s_lin0)
1229  02AC  57          	ld	d,a
1230  02AD  1E 12       	ld	e,0x12
1231  02AF  D5          	push	de
1232  02B0  CD 00 00    	call	_NIRVANAP_fillT_callee
1233  02B3  2E 01       	ld	l,0x01
1234  02B5  18 02       	jr	l_spr_move_up_00111
1235  02B7              l_spr_move_up_00109:
1236  02B7  2E 00       	ld	l,0x00
1237  02B9              l_spr_move_up_00111:
1238  02B9  C9          	ret
1239  02BA              	SECTION code_compiler
1240  02BA              ;	---------------------------------
1241  02BA              ; Function spr_move_down
1242  02BA              ; ---------------------------------
1243  02BA              _spr_move_down:
1244  02BA  2A 00 00    	ld	hl,(_sprite)
1245  02BD  26 00       	ld	h,0x00
1246  02BF  01 00 00    	ld	bc,_lin
1247  02C2  09          	add	hl,bc
1248  02C3  4E          	ld	c,(hl)
1249  02C4  21 00 00    	ld	hl,_sprite_lin_inc_mul
1250  02C7  46          	ld	b, (hl)
1251  02C8  1E 02       	ld	e,0x02
1252  02CA  04          	inc	b
1253  02CB  18 02       	jr	l_spr_move_down_00116
1254  02CD              l_spr_move_down_00115:
1255  02CD  CB 23       	sla	e
1256  02CF              l_spr_move_down_00116:
1257  02CF  10 FC       	djnz	l_spr_move_down_00115
1258  02D1  79          	ld	a, c
1259  02D2  83          	add	a, e
1260  02D3  32 00 00    	ld	(_tmp1),a
1261  02D6  2A 00 00    	ld	hl,(_sprite)
1262  02D9  26 00       	ld	h,0x00
1263  02DB  01 00 00    	ld	bc,_col
1264  02DE  09          	add	hl,bc
1265  02DF  56          	ld	d, (hl)
1266  02E0  3A 00 00    	ld	a,(_tmp1)
1267  02E3  C6 10       	add	a,0x10
1268  02E5  5F          	ld	e, a
1269  02E6  D5          	push	de
1270  02E7  CD 8A 00    	call	_spr_check_map_fall
1271  02EA  F1          	pop	af
1272  02EB  4D          	ld	c,l
1273  02EC  44          	ld	b,h
1274  02ED  2A 00 00    	ld	hl,(_sprite)
1275  02F0  26 00       	ld	h,0x00
1276  02F2  11 00 00    	ld	de,_lin
1277  02F5  19          	add	hl,de
1278  02F6  78          	ld	a,b
1279  02F7  EB          	ex	de,hl
1280  02F8  B1          	or	a,c
1281  02F9  28 12       	jr	Z,l_spr_move_down_00102
1282  02FB  3A 00 00    	ld	a,(_tmp1)
1283  02FE  0F          	rrca
1284  02FF  0F          	rrca
1285  0300  0F          	rrca
1286  0301  E6 1F       	and	a,0x1f
1287  0303  07          	rlca
1288  0304  07          	rlca
1289  0305  07          	rlca
1290  0306  E6 F8       	and	a,0xf8
1291  0308  12          	ld	(de), a
1292  0309  2E 01       	ld	l,0x01
1293  030B  18 23       	jr	l_spr_move_down_00105
1294  030D              l_spr_move_down_00102:
1295  030D  3A 00 00    	ld	a,(_tmp1)
1296  0310  12          	ld	(de), a
1297  0311  2A 00 00    	ld	hl,(_sprite)
1298  0314  26 00       	ld	h,0x00
1299  0316  01 00 00    	ld	bc,_lin
1300  0319  09          	add	hl,bc
1301  031A  5E          	ld	e,(hl)
1302  031B  3E 90       	ld	a,0x90
1303  031D  93          	sub	a,e
1304  031E  30 0E       	jr	NC,l_spr_move_down_00104
1305  0320  4D          	ld	c,l
1306  0321  44          	ld	b,h
1307  0322  21 00 00    	ld	hl,_s_state
1308  0325  CB 8E       	res	1, (hl)
1309  0327  3E 90       	ld	a,0x90
1310  0329  02          	ld	(bc), a
1311  032A  2E 01       	ld	l,0x01
1312  032C  18 02       	jr	l_spr_move_down_00105
1313  032E              l_spr_move_down_00104:
1314  032E  2E 00       	ld	l,0x00
1315  0330              l_spr_move_down_00105:
1316  0330  C9          	ret
1317  0331              	SECTION code_compiler
1318  0331              ;	---------------------------------
1319  0331              ; Function spr_move_horizontal
1320  0331              ; ---------------------------------
1321  0331              _spr_move_horizontal:
1322  0331  2A 00 00    	ld	hl,(_sprite)
1323  0334  26 00       	ld	h,0x00
1324  0336  01 00 00    	ld	bc,_state
1325  0339  09          	add	hl,bc
1326  033A  7E          	ld	a,(hl)
1327  033B  CB 57       	bit	2, a
1328  033D  28 05       	jr	Z,l_spr_move_horizontal_00104
1329  033F  CD 50 03    	call	_spr_move_right
1330  0342  18 0B       	jr	l_spr_move_horizontal_00106
1331  0344              l_spr_move_horizontal_00104:
1332  0344  CB 5F       	bit	3, a
1333  0346  28 05       	jr	Z,l_spr_move_horizontal_00105
1334  0348  CD 0E 04    	call	_spr_move_left
1335  034B  18 02       	jr	l_spr_move_horizontal_00106
1336  034D              l_spr_move_horizontal_00105:
1337  034D  2E 00       	ld	l,0x00
1338  034F              l_spr_move_horizontal_00106:
1339  034F  C9          	ret
1340  0350              	SECTION code_compiler
1341  0350              ;	---------------------------------
1342  0350              ; Function spr_move_right
1343  0350              ; ---------------------------------
1344  0350              _spr_move_right:
1345  0350  01 00 00    	ld	bc,_colint+0
1346  0353  79          	ld	a, c
1347  0354  21 00 00    	ld	hl,_sprite
1348  0357  86          	add	a, (hl)
1349  0358  5F          	ld	e, a
1350  0359  78          	ld	a, b
1351  035A  CE 00       	adc	a,0x00
1352  035C  57          	ld	d, a
1353  035D  1A          	ld	a, (de)
1354  035E  3C          	inc	a
1355  035F  12          	ld	(de), a
1356  0360  79          	ld	a, c
1357  0361  86          	add	a, (hl)
1358  0362  5F          	ld	e, a
1359  0363  78          	ld	a, b
1360  0364  CE 00       	adc	a,0x00
1361  0366  57          	ld	d, a
1362  0367  1A          	ld	a, (de)
1363  0368  D6 04       	sub	a,0x04
1364  036A  C2 0B 04    	jp	NZ,l_spr_move_right_00112
1365  036D  5E          	ld	e,(hl)
1366  036E  16 00       	ld	d,0x00
1367  0370  21 00 00    	ld	hl,_lin
1368  0373  19          	add	hl,de
1369  0374  7E          	ld	a,(hl)
1370  0375  32 00 00    	ld	(_s_lin1),a
1371  0378  2A 00 00    	ld	hl,(_sprite)
1372  037B  26 00       	ld	h,0x00
1373  037D  11 00 00    	ld	de,_col
1374  0380  19          	add	hl,de
1375  0381  7E          	ld	a,(hl)
1376  0382  FE 1E       	cp	a,0x1e
1377  0384  30 48       	jr	NC,l_spr_move_right_00105
1378  0386  3C          	inc	a
1379  0387  32 00 00    	ld	(_s_col1),a
1380  038A  C5          	push	bc
1381  038B  F5          	push	af
1382  038C  33          	inc	sp
1383  038D  3A 00 00    	ld	a,(_s_lin1)
1384  0390  F5          	push	af
1385  0391  33          	inc	sp
1386  0392  CD 1E 00    	call	_spr_check_map
1387  0395  F1          	pop	af
1388  0396  C1          	pop	bc
1389  0397  7C          	ld	a,h
1390  0398  B5          	or	a,l
1391  0399  20 16       	jr	NZ,l_spr_move_right_00101
1392  039B  3A 00 00    	ld	a,(_s_lin1)
1393  039E  C6 0F       	add	a,0x0f
1394  03A0  57          	ld	d, a
1395  03A1  3A 00 00    	ld	a,(_s_col1)
1396  03A4  C5          	push	bc
1397  03A5  5A          	ld	e,d
1398  03A6  57          	ld	d,a
1399  03A7  D5          	push	de
1400  03A8  CD 1E 00    	call	_spr_check_map
1401  03AB  F1          	pop	af
1402  03AC  C1          	pop	bc
1403  03AD  7C          	ld	a,h
1404  03AE  B5          	or	a,l
1405  03AF  28 1D       	jr	Z,l_spr_move_right_00105
1406  03B1              l_spr_move_right_00101:
1407  03B1  79          	ld	a, c
1408  03B2  21 00 00    	ld	hl,_sprite
1409  03B5  86          	add	a, (hl)
1410  03B6  5F          	ld	e, a
1411  03B7  78          	ld	a, b
1412  03B8  CE 00       	adc	a,0x00
1413  03BA  57          	ld	d, a
1414  03BB  1A          	ld	a, (de)
1415  03BC  C6 FF       	add	a,0xff
1416  03BE  12          	ld	(de), a
1417  03BF  79          	ld	a, c
1418  03C0  86          	add	a, (hl)
1419  03C1  4F          	ld	c, a
1420  03C2  78          	ld	a, b
1421  03C3  CE 00       	adc	a,0x00
1422  03C5  47          	ld	b, a
1423  03C6  0A          	ld	a, (bc)
1424  03C7  C6 FF       	add	a,0xff
1425  03C9  02          	ld	(bc), a
1426  03CA  2E 01       	ld	l,0x01
1427  03CC  18 3F       	jr	l_spr_move_right_00113
1428  03CE              l_spr_move_right_00105:
1429  03CE  2A 00 00    	ld	hl,(_sprite)
1430  03D1  26 00       	ld	h,0x00
1431  03D3  11 00 00    	ld	de,_col
1432  03D6  19          	add	hl,de
1433  03D7  34          	inc	(hl)
1434  03D8  79          	ld	a,c
1435  03D9  21 00 00    	ld	hl,_sprite
1436  03DC  86          	add	a, (hl)
1437  03DD  4F          	ld	c, a
1438  03DE  78          	ld	a, b
1439  03DF  CE 00       	adc	a,0x00
1440  03E1  47          	ld	b, a
1441  03E2  AF          	xor	a, a
1442  03E3  02          	ld	(bc), a
1443  03E4  4E          	ld	c,(hl)
1444  03E5  06 00       	ld	b,0x00
1445  03E7  21 00 00    	ld	hl,_col
1446  03EA  09          	add	hl,bc
1447  03EB  4E          	ld	c, (hl)
1448  03EC  3E 1E       	ld	a,0x1e
1449  03EE  91          	sub	a, c
1450  03EF  30 1A       	jr	NC,l_spr_move_right_00112
1451  03F1  CD CD 04    	call	_spr_page_right
1452  03F4  3A 00 00    	ld	a,(_sprite)
1453  03F7  C6 00       	add	a,+((_col) & 0xFF)
1454  03F9  4D          	ld	c,l
1455  03FA  5F          	ld	e,a
1456  03FB  3E 00       	ld	a,+((_col) / 256)
1457  03FD  CE 00       	adc	a,0x00
1458  03FF  57          	ld	d,a
1459  0400  79          	ld	a, c
1460  0401  B7          	or	a, a
1461  0402  28 04       	jr	Z,l_spr_move_right_00107
1462  0404  AF          	xor	a, a
1463  0405  12          	ld	(de), a
1464  0406  18 03       	jr	l_spr_move_right_00112
1465  0408              l_spr_move_right_00107:
1466  0408  3E 1E       	ld	a,0x1e
1467  040A  12          	ld	(de), a
1468  040B              l_spr_move_right_00112:
1469  040B  2E 00       	ld	l,0x00
1470  040D              l_spr_move_right_00113:
1471  040D  C9          	ret
1472  040E              	SECTION code_compiler
1473  040E              ;	---------------------------------
1474  040E              ; Function spr_move_left
1475  040E              ; ---------------------------------
1476  040E              _spr_move_left:
1477  040E  01 00 00    	ld	bc,_colint+0
1478  0411  79          	ld	a, c
1479  0412  21 00 00    	ld	hl,_sprite
1480  0415  86          	add	a, (hl)
1481  0416  5F          	ld	e, a
1482  0417  78          	ld	a, b
1483  0418  CE 00       	adc	a,0x00
1484  041A  57          	ld	d, a
1485  041B  1A          	ld	a, (de)
1486  041C  C6 FF       	add	a,0xff
1487  041E  12          	ld	(de), a
1488  041F  79          	ld	a, c
1489  0420  86          	add	a, (hl)
1490  0421  5F          	ld	e, a
1491  0422  78          	ld	a, b
1492  0423  CE 00       	adc	a,0x00
1493  0425  57          	ld	d, a
1494  0426  1A          	ld	a, (de)
1495  0427  3C          	inc	a
1496  0428  C2 CA 04    	jp	NZ,l_spr_move_left_00112
1497  042B  5E          	ld	e,(hl)
1498  042C  16 00       	ld	d,0x00
1499  042E  21 00 00    	ld	hl,_lin
1500  0431  19          	add	hl,de
1501  0432  7E          	ld	a,(hl)
1502  0433  32 00 00    	ld	(_s_lin1),a
1503  0436  2A 00 00    	ld	hl,(_sprite)
1504  0439  26 00       	ld	h,0x00
1505  043B  11 00 00    	ld	de,_col
1506  043E  19          	add	hl,de
1507  043F  7E          	ld	a,(hl)
1508  0440  B7          	or	a, a
1509  0441  28 47       	jr	Z,l_spr_move_left_00105
1510  0443  C6 FF       	add	a,0xff
1511  0445  32 00 00    	ld	(_s_col1),a
1512  0448  C5          	push	bc
1513  0449  F5          	push	af
1514  044A  33          	inc	sp
1515  044B  3A 00 00    	ld	a,(_s_lin1)
1516  044E  F5          	push	af
1517  044F  33          	inc	sp
1518  0450  CD 1E 00    	call	_spr_check_map
1519  0453  F1          	pop	af
1520  0454  C1          	pop	bc
1521  0455  7C          	ld	a,h
1522  0456  B5          	or	a,l
1523  0457  20 16       	jr	NZ,l_spr_move_left_00101
1524  0459  3A 00 00    	ld	a,(_s_lin1)
1525  045C  C6 0F       	add	a,0x0f
1526  045E  57          	ld	d, a
1527  045F  3A 00 00    	ld	a,(_s_col1)
1528  0462  C5          	push	bc
1529  0463  5A          	ld	e,d
1530  0464  57          	ld	d,a
1531  0465  D5          	push	de
1532  0466  CD 1E 00    	call	_spr_check_map
1533  0469  F1          	pop	af
1534  046A  C1          	pop	bc
1535  046B  7C          	ld	a,h
1536  046C  B5          	or	a,l
1537  046D  28 1B       	jr	Z,l_spr_move_left_00105
1538  046F              l_spr_move_left_00101:
1539  046F  79          	ld	a, c
1540  0470  21 00 00    	ld	hl,_sprite
1541  0473  86          	add	a, (hl)
1542  0474  5F          	ld	e, a
1543  0475  78          	ld	a, b
1544  0476  CE 00       	adc	a,0x00
1545  0478  57          	ld	d, a
1546  0479  1A          	ld	a, (de)
1547  047A  3C          	inc	a
1548  047B  12          	ld	(de), a
1549  047C  79          	ld	a, c
1550  047D  86          	add	a, (hl)
1551  047E  4F          	ld	c, a
1552  047F  78          	ld	a, b
1553  0480  CE 00       	adc	a,0x00
1554  0482  47          	ld	b, a
1555  0483  0A          	ld	a, (bc)
1556  0484  3C          	inc	a
1557  0485  02          	ld	(bc), a
1558  0486  2E 01       	ld	l,0x01
1559  0488  18 42       	jr	l_spr_move_left_00113
1560  048A              l_spr_move_left_00105:
1561  048A  2A 00 00    	ld	hl,(_sprite)
1562  048D  26 00       	ld	h,0x00
1563  048F  11 00 00    	ld	de,_col
1564  0492  19          	add	hl,de
1565  0493  7E          	ld	a,(hl)
1566  0494  EB          	ex	de,hl
1567  0495  C6 FF       	add	a,0xff
1568  0497  12          	ld	(de),a
1569  0498  79          	ld	a,c
1570  0499  21 00 00    	ld	hl,_sprite
1571  049C  86          	add	a, (hl)
1572  049D  4F          	ld	c, a
1573  049E  78          	ld	a, b
1574  049F  CE 00       	adc	a,0x00
1575  04A1  47          	ld	b, a
1576  04A2  3E 03       	ld	a,0x03
1577  04A4  02          	ld	(bc), a
1578  04A5  4E          	ld	c,(hl)
1579  04A6  06 00       	ld	b,0x00
1580  04A8  21 00 00    	ld	hl,_col
1581  04AB  09          	add	hl,bc
1582  04AC  7E          	ld	a,(hl)
1583  04AD  3C          	inc	a
1584  04AE  20 1A       	jr	NZ,l_spr_move_left_00112
1585  04B0  CD F9 04    	call	_spr_page_left
1586  04B3  3A 00 00    	ld	a,(_sprite)
1587  04B6  C6 00       	add	a,+((_col) & 0xFF)
1588  04B8  4D          	ld	c,l
1589  04B9  5F          	ld	e,a
1590  04BA  3E 00       	ld	a,+((_col) / 256)
1591  04BC  CE 00       	adc	a,0x00
1592  04BE  57          	ld	d,a
1593  04BF  79          	ld	a, c
1594  04C0  B7          	or	a, a
1595  04C1  28 05       	jr	Z,l_spr_move_left_00107
1596  04C3  3E 1E       	ld	a,0x1e
1597  04C5  12          	ld	(de), a
1598  04C6  18 02       	jr	l_spr_move_left_00112
1599  04C8              l_spr_move_left_00107:
1600  04C8  AF          	xor	a, a
1601  04C9  12          	ld	(de), a
1602  04CA              l_spr_move_left_00112:
1603  04CA  2E 00       	ld	l,0x00
1604  04CC              l_spr_move_left_00113:
1605  04CC  C9          	ret
1606  04CD              	SECTION code_compiler
1607  04CD              ;	---------------------------------
1608  04CD              ; Function spr_page_right
1609  04CD              ; ---------------------------------
1610  04CD              _spr_page_right:
1611  04CD  2A 00 00    	ld	hl,(_sprite)
1612  04D0  26 00       	ld	h,0x00
1613  04D2  01 00 00    	ld	bc,_class
1614  04D5  09          	add	hl,bc
1615  04D6  7E          	ld	a,(hl)
1616  04D7  D6 10       	sub	a,0x10
1617  04D9  28 04       	jr	Z,l_spr_page_right_00102
1618  04DB  2E 00       	ld	l,0x00
1619  04DD  18 19       	jr	l_spr_page_right_00105
1620  04DF              l_spr_page_right_00102:
1621  04DF  3A 00 00    	ld	a,(_scr_curr)
1622  04E2  21 00 00    	ld	hl,_map_width
1623  04E5  96          	sub	a, (hl)
1624  04E6  30 0E       	jr	NC,l_spr_page_right_00104
1625  04E8  21 00 00    	ld	hl,_scr_curr
1626  04EB  34          	inc	(hl)
1627  04EC  CD 20 05    	call	_spr_page_map
1628  04EF  CD 95 09    	call	_spr_draw_background
1629  04F2  2E 01       	ld	l,0x01
1630  04F4  18 02       	jr	l_spr_page_right_00105
1631  04F6              l_spr_page_right_00104:
1632  04F6  2E 00       	ld	l,0x00
1633  04F8              l_spr_page_right_00105:
1634  04F8  C9          	ret
1635  04F9              	SECTION code_compiler
1636  04F9              ;	---------------------------------
1637  04F9              ; Function spr_page_left
1638  04F9              ; ---------------------------------
1639  04F9              _spr_page_left:
1640  04F9  2A 00 00    	ld	hl,(_sprite)
1641  04FC  26 00       	ld	h,0x00
1642  04FE  01 00 00    	ld	bc,_class
1643  0501  09          	add	hl,bc
1644  0502  7E          	ld	a,(hl)
1645  0503  D6 10       	sub	a,0x10
1646  0505  28 04       	jr	Z,l_spr_page_left_00102
1647  0507  2E 00       	ld	l,0x00
1648  0509  18 14       	jr	l_spr_page_left_00105
1649  050B              l_spr_page_left_00102:
1650  050B  21 00 00    	ld	hl,_scr_curr
1651  050E  7E          	ld	a, (hl)
1652  050F  B7          	or	a, a
1653  0510  28 0B       	jr	Z,l_spr_page_left_00104
1654  0512  35          	dec	(hl)
1655  0513  CD 20 05    	call	_spr_page_map
1656  0516  CD 95 09    	call	_spr_draw_background
1657  0519  2E 01       	ld	l,0x01
1658  051B  18 02       	jr	l_spr_page_left_00105
1659  051D              l_spr_page_left_00104:
1660  051D  2E 00       	ld	l,0x00
1661  051F              l_spr_page_left_00105:
1662  051F  C9          	ret
1663  0520              	SECTION code_compiler
1664  0520              ;	---------------------------------
1665  0520              ; Function spr_page_map
1666  0520              ; ---------------------------------
1667  0520              _spr_page_map:
1668  0520  CD 00 00    	call	___sdcc_enter_ix
1669  0523  F5          	push	af
1670  0524  3E 10       	ld	a,0x10
1671  0526  F5          	push	af
1672  0527  33          	inc	sp
1673  0528  0E 00       	ld	c,0x00
1674  052A              l_spr_page_map_00122:
1675  052A  3E 07       	ld	a,0x07
1676  052C  21 00 00    	ld	hl,_scr_curr
1677  052F  96          	sub	a, (hl)
1678  0530  DA FA 05    	jp	C, l_spr_page_map_00109
1679  0533  59          	ld	e, c
1680  0534  16 00       	ld	d,0x00
1681  0536  13          	inc	de
1682  0537  D5          	push	de
1683  0538  5E          	ld	e, (hl)
1684  0539  16 00       	ld	d,0x00
1685  053B  21 43 05    	ld	hl,l_spr_page_map_00155
1686  053E  19          	add	hl, de
1687  053F  19          	add	hl, de
1688  0540  19          	add	hl, de
1689  0541  D1          	pop	de
1690  0542  E9          	jp	(hl)
1691  0543              l_spr_page_map_00155:
1692  0543  C3 5B 05    	jp	l_spr_page_map_00101
1693  0546  C3 70 05    	jp	l_spr_page_map_00102
1694  0549  C3 84 05    	jp	l_spr_page_map_00103
1695  054C  C3 98 05    	jp	l_spr_page_map_00104
1696  054F  C3 AC 05    	jp	l_spr_page_map_00105
1697  0552  C3 C0 05    	jp	l_spr_page_map_00106
1698  0555  C3 D4 05    	jp	l_spr_page_map_00107
1699  0558  C3 E8 05    	jp	l_spr_page_map_00108
1700  055B              l_spr_page_map_00101:
1701  055B  06 00       	ld	b,0x00
1702  055D  21 00 00    	ld	hl,_scr_0
1703  0560  09          	add	hl, bc
1704  0561  7E          	ld	a, (hl)
1705  0562  DD 77 FF    	ld	(ix-1),a
1706  0565  21 00 00    	ld	hl,_scr_0
1707  0568  19          	add	hl, de
1708  0569  7E          	ld	a, (hl)
1709  056A  DD 77 FE    	ld	(ix-2),a
1710  056D  C3 FA 05    	jp	l_spr_page_map_00109
1711  0570              l_spr_page_map_00102:
1712  0570  06 00       	ld	b,0x00
1713  0572  21 00 00    	ld	hl,_scr_1
1714  0575  09          	add	hl, bc
1715  0576  7E          	ld	a, (hl)
1716  0577  DD 77 FF    	ld	(ix-1),a
1717  057A  21 00 00    	ld	hl,_scr_1
1718  057D  19          	add	hl, de
1719  057E  7E          	ld	a, (hl)
1720  057F  DD 77 FE    	ld	(ix-2),a
1721  0582  18 76       	jr	l_spr_page_map_00109
1722  0584              l_spr_page_map_00103:
1723  0584  06 00       	ld	b,0x00
1724  0586  21 00 00    	ld	hl,_scr_2
1725  0589  09          	add	hl, bc
1726  058A  7E          	ld	a, (hl)
1727  058B  DD 77 FF    	ld	(ix-1),a
1728  058E  21 00 00    	ld	hl,_scr_2
1729  0591  19          	add	hl, de
1730  0592  7E          	ld	a, (hl)
1731  0593  DD 77 FE    	ld	(ix-2),a
1732  0596  18 62       	jr	l_spr_page_map_00109
1733  0598              l_spr_page_map_00104:
1734  0598  06 00       	ld	b,0x00
1735  059A  21 00 00    	ld	hl,_scr_3
1736  059D  09          	add	hl, bc
1737  059E  7E          	ld	a, (hl)
1738  059F  DD 77 FF    	ld	(ix-1),a
1739  05A2  21 00 00    	ld	hl,_scr_3
1740  05A5  19          	add	hl, de
1741  05A6  7E          	ld	a, (hl)
1742  05A7  DD 77 FE    	ld	(ix-2),a
1743  05AA  18 4E       	jr	l_spr_page_map_00109
1744  05AC              l_spr_page_map_00105:
1745  05AC  06 00       	ld	b,0x00
1746  05AE  21 00 00    	ld	hl,_scr_4
1747  05B1  09          	add	hl, bc
1748  05B2  7E          	ld	a, (hl)
1749  05B3  DD 77 FF    	ld	(ix-1),a
1750  05B6  21 00 00    	ld	hl,_scr_4
1751  05B9  19          	add	hl, de
1752  05BA  7E          	ld	a, (hl)
1753  05BB  DD 77 FE    	ld	(ix-2),a
1754  05BE  18 3A       	jr	l_spr_page_map_00109
1755  05C0              l_spr_page_map_00106:
1756  05C0  06 00       	ld	b,0x00
1757  05C2  21 00 00    	ld	hl,_scr_5
1758  05C5  09          	add	hl, bc
1759  05C6  7E          	ld	a, (hl)
1760  05C7  DD 77 FF    	ld	(ix-1),a
1761  05CA  21 00 00    	ld	hl,_scr_5
1762  05CD  19          	add	hl, de
1763  05CE  7E          	ld	a, (hl)
1764  05CF  DD 77 FE    	ld	(ix-2),a
1765  05D2  18 26       	jr	l_spr_page_map_00109
1766  05D4              l_spr_page_map_00107:
1767  05D4  06 00       	ld	b,0x00
1768  05D6  21 00 00    	ld	hl,_scr_6
1769  05D9  09          	add	hl, bc
1770  05DA  7E          	ld	a, (hl)
1771  05DB  DD 77 FF    	ld	(ix-1),a
1772  05DE  21 00 00    	ld	hl,_scr_6
1773  05E1  19          	add	hl, de
1774  05E2  7E          	ld	a, (hl)
1775  05E3  DD 77 FE    	ld	(ix-2),a
1776  05E6  18 12       	jr	l_spr_page_map_00109
1777  05E8              l_spr_page_map_00108:
1778  05E8  06 00       	ld	b,0x00
1779  05EA  21 00 00    	ld	hl,_scr_7
1780  05ED  09          	add	hl, bc
1781  05EE  7E          	ld	a, (hl)
1782  05EF  DD 77 FF    	ld	(ix-1),a
1783  05F2  21 00 00    	ld	hl,_scr_7
1784  05F5  19          	add	hl, de
1785  05F6  7E          	ld	a, (hl)
1786  05F7  DD 77 FE    	ld	(ix-2),a
1787  05FA              l_spr_page_map_00109:
1788  05FA  DD 7E FF    	ld	a,(ix-1)
1789  05FD  D6 80       	sub	a,0x80
1790  05FF  30 14       	jr	NC,l_spr_page_map_00114
1791  0601  3E 00       	ld	a, +((_scr_map) & 0xFF)
1792  0603  DD 86 FD    	add	a,(ix-3)
1793  0606  5F          	ld	e, a
1794  0607  3E 00       	ld	a, +((_scr_map) / 256)
1795  0609  CE 00       	adc	a,0x00
1796  060B  57          	ld	d, a
1797  060C  DD 7E FF    	ld	a,(ix-1)
1798  060F  12          	ld	(de), a
1799  0610  DD 34 FD    	inc	(ix-3)
1800  0613  18 29       	jr	l_spr_page_map_00115
1801  0615              l_spr_page_map_00114:
1802  0615  DD 7E FF    	ld	a,(ix-1)
1803  0618  C6 80       	add	a,0x80
1804  061A  47          	ld	b, a
1805  061B  DD 5E FD    	ld	e,(ix-3)
1806  061E  16 00       	ld	d,0x00
1807  0620              l_spr_page_map_00120:
1808  0620  7A          	ld	a, d
1809  0621  90          	sub	a, b
1810  0622  30 16       	jr	NC,l_spr_page_map_00133
1811  0624  3E 00       	ld	a, +((_scr_map) & 0xFF)
1812  0626  83          	add	a, e
1813  0627  6F          	ld	l, a
1814  0628  3E 00       	ld	a, +((_scr_map) / 256)
1815  062A  CE 00       	adc	a,0x00
1816  062C  67          	ld	h, a
1817  062D  DD 7E FE    	ld	a,(ix-2)
1818  0630  77          	ld	(hl), a
1819  0631  1C          	inc	e
1820  0632  7B          	ld	a, e
1821  0633  D6 A0       	sub	a,0xa0
1822  0635  30 03       	jr	NC,l_spr_page_map_00133
1823  0637  14          	inc	d
1824  0638  18 E6       	jr	l_spr_page_map_00120
1825  063A              l_spr_page_map_00133:
1826  063A  DD 73 FD    	ld	(ix-3),e
1827  063D  0C          	inc	c
1828  063E              l_spr_page_map_00115:
1829  063E  DD 7E FD    	ld	a,(ix-3)
1830  0641  D6 A0       	sub	a,0xa0
1831  0643  30 07       	jr	NC,l_spr_page_map_00124
1832  0645  0C          	inc	c
1833  0646  79          	ld	a, c
1834  0647  D6 A0       	sub	a,0xa0
1835  0649  DA 2A 05    	jp	C, l_spr_page_map_00122
1836  064C              l_spr_page_map_00124:
1837  064C  DD F9       	ld	sp, ix
1838  064E  DD E1       	pop	ix
1839  0650  C9          	ret
1840  0651              	SECTION code_compiler
1841  0651              ;	---------------------------------
1842  0651              ; Function spr_redraw
1843  0651              ; ---------------------------------
1844  0651              _spr_redraw:
1845  0651  2A 00 00    	ld	hl,(_sprite)
1846  0654  26 00       	ld	h,0x00
1847  0656  01 00 00    	ld	bc,_tile
1848  0659  09          	add	hl,bc
1849  065A  4E          	ld	c, (hl)
1850  065B  3A 00 00    	ld	a,(_sprite)
1851  065E  5F          	ld	e,a
1852  065F  16 00       	ld	d,0x00
1853  0661  21 00 00    	ld	hl,_colint
1854  0664  19          	add	hl,de
1855  0665  7E          	ld	a,(hl)
1856  0666  81          	add	a,c
1857  0667  32 00 00    	ld	(_s_tile1),a
1858  066A  2A 00 00    	ld	hl,(_sprite)
1859  066D  26 00       	ld	h,0x00
1860  066F  01 00 00    	ld	bc,_col
1861  0672  09          	add	hl,bc
1862  0673  7E          	ld	a,(hl)
1863  0674  32 00 00    	ld	(_s_col1),a
1864  0677  2A 00 00    	ld	hl,(_sprite)
1865  067A  26 00       	ld	h,0x00
1866  067C  01 00 00    	ld	bc,_lin
1867  067F  09          	add	hl,bc
1868  0680  7E          	ld	a,(hl)
1869  0681  32 00 00    	ld	(_s_lin1),a
1870  0684  21 00 00    	ld	hl,_s_lin0
1871  0687  96          	sub	a, (hl)
1872  0688  20 09       	jr	NZ,l_spr_redraw_00105
1873  068A  3A 00 00    	ld	a,(_s_col1)
1874  068D  21 00 00    	ld	hl,_s_col0
1875  0690  96          	sub	a, (hl)
1876  0691  28 2E       	jr	Z,l_spr_redraw_00106
1877  0693              l_spr_redraw_00105:
1878  0693  3E 10       	ld	a,0x10
1879  0695  21 00 00    	ld	hl,_s_lin0
1880  0698  96          	sub	a, (hl)
1881  0699  38 0E       	jr	C,l_spr_redraw_00102
1882  069B  F3          	di
1883  069C  3A 00 00    	ld	a,(_s_col0)
1884  069F  F5          	push	af
1885  06A0  33          	inc	sp
1886  06A1  21 49 08    	ld	hl,0x0849
1887  06A4  E5          	push	hl
1888  06A5  CD 00 00    	call	_NIRVANAP_fillT_raw_callee
1889  06A8  FB          	ei
1890  06A9              l_spr_redraw_00102:
1891  06A9  2A FF FF    	ld	hl,(_s_col1 - 1)
1892  06AC  3A 00 00    	ld	a,(_s_lin1)
1893  06AF  6F          	ld	l,a
1894  06B0  E5          	push	hl
1895  06B1  2A FF FF    	ld	hl,(_s_tile1 - 1)
1896  06B4  3A 00 00    	ld	a,(_sprite)
1897  06B7  6F          	ld	l,a
1898  06B8  E5          	push	hl
1899  06B9  CD 00 00    	call	_NIRVANAP_spriteT_callee
1900  06BC  CD AB 0C    	call	_spr_back_clr
1901  06BF  18 1C       	jr	l_spr_redraw_00107
1902  06C1              l_spr_redraw_00106:
1903  06C1  3A 00 00    	ld	a,(_s_tile1)
1904  06C4  21 00 00    	ld	hl,_s_tile0
1905  06C7  96          	sub	a, (hl)
1906  06C8  28 13       	jr	Z,l_spr_redraw_00107
1907  06CA  2A FF FF    	ld	hl,(_s_col1 - 1)
1908  06CD  3A 00 00    	ld	a,(_s_lin1)
1909  06D0  6F          	ld	l,a
1910  06D1  E5          	push	hl
1911  06D2  2A FF FF    	ld	hl,(_s_tile1 - 1)
1912  06D5  3A 00 00    	ld	a,(_sprite)
1913  06D8  6F          	ld	l,a
1914  06D9  E5          	push	hl
1915  06DA  CD 00 00    	call	_NIRVANAP_spriteT_callee
1916  06DD              l_spr_redraw_00107:
1917  06DD  2E 00       	ld	l,0x00
1918  06DF  C9          	ret
1919  06E0              	SECTION code_compiler
1920  06E0              ;	---------------------------------
1921  06E0              ; Function spr_killed
1922  06E0              ; ---------------------------------
1923  06E0              _spr_killed:
1924  06E0  45          	ld	b,l
1925  06E1  11 00 00    	ld	de,_class+0
1926  06E4  26 00       	ld	h,0x00
1927  06E6  19          	add	hl, de
1928  06E7  7E          	ld	a, (hl)
1929  06E8  FE 07       	cp	a,0x07
1930  06EA  28 12       	jr	Z,l_spr_killed_00101
1931  06EC  FE 08       	cp	a,0x08
1932  06EE  28 24       	jr	Z,l_spr_killed_00103
1933  06F0  FE 0A       	cp	a,0x0a
1934  06F2  28 2B       	jr	Z,l_spr_killed_00104
1935  06F4  FE 0B       	cp	a,0x0b
1936  06F6  28 39       	jr	Z,l_spr_killed_00105
1937  06F8  D6 0C       	sub	a,0x0c
1938  06FA  28 0D       	jr	Z,l_spr_killed_00102
1939  06FC  18 45       	jr	l_spr_killed_00106
1940  06FE              l_spr_killed_00101:
1941  06FE  3E 81       	ld	a,0x81
1942  0700  48          	ld	c,b
1943  0701  47          	ld	b,a
1944  0702  C5          	push	bc
1945  0703  CD 4F 07    	call	_spr_anim_kill
1946  0706  F1          	pop	af
1947  0707  18 43       	jr	l_spr_killed_00107
1948  0709              l_spr_killed_00102:
1949  0709  3E BA       	ld	a,0xba
1950  070B  48          	ld	c,b
1951  070C  47          	ld	b,a
1952  070D  C5          	push	bc
1953  070E  CD 4F 07    	call	_spr_anim_kill
1954  0711  F1          	pop	af
1955  0712  18 38       	jr	l_spr_killed_00107
1956  0714              l_spr_killed_00103:
1957  0714  3E BA       	ld	a,0xba
1958  0716  48          	ld	c,b
1959  0717  47          	ld	b,a
1960  0718  C5          	push	bc
1961  0719  CD 4F 07    	call	_spr_anim_kill
1962  071C  F1          	pop	af
1963  071D  18 2D       	jr	l_spr_killed_00107
1964  071F              l_spr_killed_00104:
1965  071F  C5          	push	bc
1966  0720  68          	ld	l, b
1967  0721  CD 82 08    	call	_spr_tile
1968  0724  C1          	pop	bc
1969  0725  55          	ld	d,l
1970  0726  14          	inc	d
1971  0727  14          	inc	d
1972  0728  14          	inc	d
1973  0729  58          	ld	e,b
1974  072A  D5          	push	de
1975  072B  CD 4F 07    	call	_spr_anim_kill
1976  072E  F1          	pop	af
1977  072F  18 1B       	jr	l_spr_killed_00107
1978  0731              l_spr_killed_00105:
1979  0731  C5          	push	bc
1980  0732  68          	ld	l, b
1981  0733  CD 82 08    	call	_spr_tile
1982  0736  C1          	pop	bc
1983  0737  55          	ld	d,l
1984  0738  14          	inc	d
1985  0739  14          	inc	d
1986  073A  14          	inc	d
1987  073B  58          	ld	e,b
1988  073C  D5          	push	de
1989  073D  CD 4F 07    	call	_spr_anim_kill
1990  0740  F1          	pop	af
1991  0741  18 09       	jr	l_spr_killed_00107
1992  0743              l_spr_killed_00106:
1993  0743  3E BA       	ld	a,0xba
1994  0745  48          	ld	c,b
1995  0746  47          	ld	b,a
1996  0747  C5          	push	bc
1997  0748  CD 4F 07    	call	_spr_anim_kill
1998  074B  F1          	pop	af
1999  074C              l_spr_killed_00107:
2000  074C  2E 00       	ld	l,0x00
2001  074E  C9          	ret
2002  074F              	SECTION code_compiler
2003  074F              ;	---------------------------------
2004  074F              ; Function spr_anim_kill
2005  074F              ; ---------------------------------
2006  074F              _spr_anim_kill:
2007  074F  CD 00 00    	call	___sdcc_enter_ix
2008  0752  F5          	push	af
2009  0753  DD 6E 04    	ld	l,(ix+4)
2010  0756  26 00       	ld	h,0x00
2011  0758  29          	add	hl,hl
2012  0759  4D          	ld	c,l
2013  075A  44          	ld	b,h
2014  075B  21 00 00    	ld	hl,_last_time
2015  075E  09          	add	hl,bc
2016  075F  E3          	ex	(sp), hl
2017  0760  E1          	pop	hl
2018  0761  ED 5B 00 00 	ld	de,(_curr_time)
2019  0765  E5          	push	hl
2020  0766  73          	ld	(hl), e
2021  0767  23          	inc	hl
2022  0768  72          	ld	(hl), d
2023  0769  2A 00 00    	ld	hl,(_curr_time)
2024  076C  5D          	ld	e,l
2025  076D  21 00 00    	ld	hl,_spr_timer
2026  0770  09          	add	hl, bc
2027  0771  4E          	ld	c, (hl)
2028  0772  7B          	ld	a, e
2029  0773  91          	sub	a, c
2030  0774  32 00 00    	ld	(_tmp0),a
2031  0777  21 00 00    	ld	hl,_tmp
2032  077A  36 02       	ld	(hl),0x02
2033  077C  3E 28       	ld	a,0x28
2034  077E  21 00 00    	ld	hl,_tmp0
2035  0781  96          	sub	a, (hl)
2036  0782  38 05       	jr	C,l_spr_anim_kill_00102
2037  0784  21 00 00    	ld	hl,_tmp
2038  0787  36 01       	ld	(hl),0x01
2039  0789              l_spr_anim_kill_00102:
2040  0789  3E 14       	ld	a,0x14
2041  078B  21 00 00    	ld	hl,_tmp0
2042  078E  96          	sub	a, (hl)
2043  078F  38 05       	jr	C,l_spr_anim_kill_00104
2044  0791  21 00 00    	ld	hl,_tmp
2045  0794  36 00       	ld	(hl),0x00
2046  0796              l_spr_anim_kill_00104:
2047  0796  3E 3C       	ld	a,0x3c
2048  0798  21 00 00    	ld	hl,_tmp0
2049  079B  96          	sub	a, (hl)
2050  079C  38 2F       	jr	C,l_spr_anim_kill_00106
2051  079E  3E 00       	ld	a, +((_col) & 0xFF)
2052  07A0  DD 86 04    	add	a,(ix+4)
2053  07A3  4F          	ld	c, a
2054  07A4  3E 00       	ld	a, +((_col) / 256)
2055  07A6  CE 00       	adc	a,0x00
2056  07A8  47          	ld	b, a
2057  07A9  0A          	ld	a, (bc)
2058  07AA  47          	ld	b, a
2059  07AB  3E 00       	ld	a, +((_lin) & 0xFF)
2060  07AD  DD 86 04    	add	a,(ix+4)
2061  07B0  5F          	ld	e, a
2062  07B1  3E 00       	ld	a, +((_lin) / 256)
2063  07B3  CE 00       	adc	a,0x00
2064  07B5  57          	ld	d, a
2065  07B6  1A          	ld	a, (de)
2066  07B7  57          	ld	d, a
2067  07B8  DD 7E 05    	ld	a,(ix+5)
2068  07BB  21 00 00    	ld	hl,_tmp
2069  07BE  86          	add	a, (hl)
2070  07BF  4A          	ld	c, d
2071  07C0  C5          	push	bc
2072  07C1  F5          	push	af
2073  07C2  33          	inc	sp
2074  07C3  DD 7E 04    	ld	a,(ix+4)
2075  07C6  F5          	push	af
2076  07C7  33          	inc	sp
2077  07C8  CD 00 00    	call	_NIRVANAP_spriteT_callee
2078  07CB  18 06       	jr	l_spr_anim_kill_00108
2079  07CD              l_spr_anim_kill_00106:
2080  07CD  DD 6E 04    	ld	l,(ix+4)
2081  07D0  CD D7 07    	call	_spr_destroy
2082  07D3              l_spr_anim_kill_00108:
2083  07D3  F1          	pop	af
2084  07D4  DD E1       	pop	ix
2085  07D6  C9          	ret
2086  07D7              	SECTION code_compiler
2087  07D7              ;	---------------------------------
2088  07D7              ; Function spr_destroy
2089  07D7              ; ---------------------------------
2090  07D7              _spr_destroy:
2091  07D7  CD 00 00    	call	___sdcc_enter_ix
2092  07DA  F5          	push	af
2093  07DB  4D          	ld	c, l
2094  07DC  21 00 00    	ld	hl,_spr_count
2095  07DF  35          	dec	(hl)
2096  07E0  3E 00       	ld	a, +((_lin) & 0xFF)
2097  07E2  81          	add	a, c
2098  07E3  DD 77 FE    	ld	(ix-2),a
2099  07E6  3E 00       	ld	a, +((_lin) / 256)
2100  07E8  CE 00       	adc	a,0x00
2101  07EA  DD 77 FF    	ld	(ix-1),a
2102  07ED  E1          	pop	hl
2103  07EE  7E          	ld	a,(hl)
2104  07EF  E5          	push	hl
2105  07F0  32 00 00    	ld	(_s_lin0),a
2106  07F3  3E 00       	ld	a, +((_col) & 0xFF)
2107  07F5  81          	add	a, c
2108  07F6  5F          	ld	e, a
2109  07F7  3E 00       	ld	a, +((_col) / 256)
2110  07F9  CE 00       	adc	a,0x00
2111  07FB  57          	ld	d, a
2112  07FC  1A          	ld	a, (de)
2113  07FD  32 00 00    	ld	(_s_col0),a
2114  0800  06 00       	ld	b,0x00
2115  0802  21 00 00    	ld	hl,_tile
2116  0805  09          	add	hl, bc
2117  0806  AF          	xor	a,a
2118  0807  77          	ld	(hl),a
2119  0808  E1          	pop	hl
2120  0809  12          	ld	(de),a
2121  080A  E5          	push	hl
2122  080B  36 00       	ld	(hl),0x00
2123  080D  11 00 00    	ld	de,_class+0
2124  0810  69          	ld	l,c
2125  0811  26 00       	ld	h,0x00
2126  0813  19          	add	hl, de
2127  0814  36 00       	ld	(hl),0x00
2128  0816  11 00 00    	ld	de,_state+0
2129  0819  69          	ld	l,c
2130  081A  26 00       	ld	h,0x00
2131  081C  19          	add	hl, de
2132  081D  36 00       	ld	(hl),0x00
2133  081F  11 00 00    	ld	de,_state_a+0
2134  0822  69          	ld	l,c
2135  0823  26 00       	ld	h,0x00
2136  0825  19          	add	hl, de
2137  0826  36 00       	ld	(hl),0x00
2138  0828  21 00 00    	ld	hl,0x0000
2139  082B  E5          	push	hl
2140  082C  AF          	xor	a, a
2141  082D  F5          	push	af
2142  082E  33          	inc	sp
2143  082F  79          	ld	a, c
2144  0830  F5          	push	af
2145  0831  33          	inc	sp
2146  0832  CD 00 00    	call	_NIRVANAP_spriteT_callee
2147  0835  76          	halt
2148  0836  3A 00 00    	ld	a,(_s_col0)
2149  0839  F5          	push	af
2150  083A  33          	inc	sp
2151  083B  3A 00 00    	ld	a,(_s_lin0)
2152  083E  57          	ld	d,a
2153  083F  1E 49       	ld	e,0x49
2154  0841  D5          	push	de
2155  0842  CD 00 00    	call	_NIRVANAP_fillT_callee
2156  0845  F1          	pop	af
2157  0846  DD E1       	pop	ix
2158  0848  C9          	ret
2159  0849              	SECTION code_compiler
2160  0849              ;	---------------------------------
2161  0849              ; Function spr_set_fall
2162  0849              ; ---------------------------------
2163  0849              _spr_set_fall:
2164  0849  21 00 00    	ld	hl,_s_state
2165  084C  7E          	ld	a,(hl)
2166  084D  E6 FE       	and	a,0xfe
2167  084F  F6 02       	or	a,0x02
2168  0851  77          	ld	(hl),a
2169  0852  21 00 00    	ld	hl,_sprite
2170  0855  7E          	ld	a, (hl)
2171  0856  D6 06       	sub	a,0x06
2172  0858  38 0E       	jr	C,l_spr_set_fall_00104
2173  085A  3E 00       	ld	a, +((_sprite_speed_alt) & 0xFF)
2174  085C  86          	add	a, (hl)
2175  085D  4F          	ld	c, a
2176  085E  3E 00       	ld	a, +((_sprite_speed_alt) / 256)
2177  0860  CE 00       	adc	a,0x00
2178  0862  47          	ld	b, a
2179  0863  3E 02       	ld	a,0x02
2180  0865  02          	ld	(bc), a
2181  0866  18 19       	jr	l_spr_set_fall_00106
2182  0868              l_spr_set_fall_00104:
2183  0868  2A 00 00    	ld	hl,(_sprite)
2184  086B  26 00       	ld	h,0x00
2185  086D  01 00 00    	ld	bc,_class
2186  0870  09          	add	hl,bc
2187  0871  4E          	ld	c,(hl)
2188  0872  3E 08       	ld	a,0x08
2189  0874  91          	sub	a,c
2190  0875  D8          	ret	C
2191  0876  2A 00 00    	ld	hl,(_sprite)
2192  0879  26 00       	ld	h,0x00
2193  087B  01 00 00    	ld	bc,_sprite_speed_alt
2194  087E  09          	add	hl,bc
2195  087F  36 01       	ld	(hl),0x01
2196  0881              l_spr_set_fall_00106:
2197  0881  C9          	ret
2198  0882              	SECTION code_compiler
2199  0882              ;	---------------------------------
2200  0882              ; Function spr_tile
2201  0882              ; ---------------------------------
2202  0882              _spr_tile:
2203  0882  45          	ld	b, l
2204  0883  0E 00       	ld	c,0x00
2205  0885  11 00 00    	ld	de,_state+0
2206  0888  68          	ld	l,b
2207  0889  26 00       	ld	h,0x00
2208  088B  19          	add	hl, de
2209  088C  5E          	ld	e, (hl)
2210  088D  CB 73       	bit	6, e
2211  088F  28 02       	jr	Z,l_spr_tile_00102
2212  0891  0E 03       	ld	c,0x03
2213  0893              l_spr_tile_00102:
2214  0893  CB 63       	bit	4, e
2215  0895  28 02       	jr	Z,l_spr_tile_00104
2216  0897  0E 06       	ld	c,0x06
2217  0899              l_spr_tile_00104:
2218  0899  11 00 00    	ld	de,_class+0
2219  089C  68          	ld	l,b
2220  089D  26 00       	ld	h,0x00
2221  089F  19          	add	hl, de
2222  08A0  5E          	ld	e, (hl)
2223  08A1  3E 0C       	ld	a,0x0c
2224  08A3  93          	sub	a, e
2225  08A4  DA 31 09    	jp	C, l_spr_tile_00117
2226  08A7  16 00       	ld	d,0x00
2227  08A9  21 B0 08    	ld	hl,l_spr_tile_00134
2228  08AC  19          	add	hl, de
2229  08AD  19          	add	hl, de
2230  08AE  19          	add	hl, de
2231  08AF  E9          	jp	(hl)
2232  08B0              l_spr_tile_00134:
2233  08B0  C3 31 09    	jp	l_spr_tile_00117
2234  08B3  C3 D7 08    	jp	l_spr_tile_00105
2235  08B6  C3 E7 08    	jp	l_spr_tile_00106
2236  08B9  C3 F7 08    	jp	l_spr_tile_00107
2237  08BC  C3 07 09    	jp	l_spr_tile_00108
2238  08BF  C3 0D 09    	jp	l_spr_tile_00109
2239  08C2  C3 13 09    	jp	l_spr_tile_00110
2240  08C5  C3 19 09    	jp	l_spr_tile_00111
2241  08C8  C3 1D 09    	jp	l_spr_tile_00112
2242  08CB  C3 25 09    	jp	l_spr_tile_00114
2243  08CE  C3 29 09    	jp	l_spr_tile_00115
2244  08D1  C3 2D 09    	jp	l_spr_tile_00116
2245  08D4  C3 21 09    	jp	l_spr_tile_00113
2246  08D7              l_spr_tile_00105:
2247  08D7  3E 03       	ld	a,0x03
2248  08D9  48          	ld	c,b
2249  08DA  47          	ld	b,a
2250  08DB  C5          	push	bc
2251  08DC  3E 30       	ld	a,0x30
2252  08DE  F5          	push	af
2253  08DF  33          	inc	sp
2254  08E0  CD 34 09    	call	_spr_tile_dir
2255  08E3  F1          	pop	af
2256  08E4  33          	inc	sp
2257  08E5  18 4C       	jr	l_spr_tile_00118
2258  08E7              l_spr_tile_00106:
2259  08E7  3E 03       	ld	a,0x03
2260  08E9  48          	ld	c,b
2261  08EA  47          	ld	b,a
2262  08EB  C5          	push	bc
2263  08EC  3E 3C       	ld	a,0x3c
2264  08EE  F5          	push	af
2265  08EF  33          	inc	sp
2266  08F0  CD 34 09    	call	_spr_tile_dir
2267  08F3  F1          	pop	af
2268  08F4  33          	inc	sp
2269  08F5  18 3C       	jr	l_spr_tile_00118
2270  08F7              l_spr_tile_00107:
2271  08F7  3E 03       	ld	a,0x03
2272  08F9  48          	ld	c,b
2273  08FA  47          	ld	b,a
2274  08FB  C5          	push	bc
2275  08FC  3E 48       	ld	a,0x48
2276  08FE  F5          	push	af
2277  08FF  33          	inc	sp
2278  0900  CD 34 09    	call	_spr_tile_dir
2279  0903  F1          	pop	af
2280  0904  33          	inc	sp
2281  0905  18 2C       	jr	l_spr_tile_00118
2282  0907              l_spr_tile_00108:
2283  0907  79          	ld	a, c
2284  0908  C6 54       	add	a,0x54
2285  090A  6F          	ld	l, a
2286  090B  18 26       	jr	l_spr_tile_00118
2287  090D              l_spr_tile_00109:
2288  090D  79          	ld	a, c
2289  090E  C6 60       	add	a,0x60
2290  0910  6F          	ld	l, a
2291  0911  18 20       	jr	l_spr_tile_00118
2292  0913              l_spr_tile_00110:
2293  0913  79          	ld	a, c
2294  0914  C6 6C       	add	a,0x6c
2295  0916  6F          	ld	l, a
2296  0917  18 1A       	jr	l_spr_tile_00118
2297  0919              l_spr_tile_00111:
2298  0919  2E 7B       	ld	l,0x7b
2299  091B  18 16       	jr	l_spr_tile_00118
2300  091D              l_spr_tile_00112:
2301  091D  2E B4       	ld	l,0xb4
2302  091F  18 12       	jr	l_spr_tile_00118
2303  0921              l_spr_tile_00113:
2304  0921  2E B7       	ld	l,0xb7
2305  0923  18 0E       	jr	l_spr_tile_00118
2306  0925              l_spr_tile_00114:
2307  0925  2E 78       	ld	l,0x78
2308  0927  18 0A       	jr	l_spr_tile_00118
2309  0929              l_spr_tile_00115:
2310  0929  2E 90       	ld	l,0x90
2311  092B  18 06       	jr	l_spr_tile_00118
2312  092D              l_spr_tile_00116:
2313  092D  2E 96       	ld	l,0x96
2314  092F  18 02       	jr	l_spr_tile_00118
2315  0931              l_spr_tile_00117:
2316  0931  2E 00       	ld	l,0x00
2317  0933              l_spr_tile_00118:
2318  0933  C9          	ret
2319  0934              	SECTION code_compiler
2320  0934              ;	---------------------------------
2321  0934              ; Function spr_tile_dir
2322  0934              ; ---------------------------------
2323  0934              _spr_tile_dir:
2324  0934  CD 00 00    	call	___sdcc_enter_ix
2325  0937  3E 00       	ld	a, +((_state) & 0xFF)
2326  0939  DD 86 05    	add	a,(ix+5)
2327  093C  4F          	ld	c, a
2328  093D  3E 00       	ld	a, +((_state) / 256)
2329  093F  CE 00       	adc	a,0x00
2330  0941  47          	ld	b, a
2331  0942  0A          	ld	a, (bc)
2332  0943  4F          	ld	c,a
2333  0944  CB 67       	bit	4,a
2334  0946  28 08       	jr	Z,l_spr_tile_dir_00102
2335  0948  DD 7E 04    	ld	a,(ix+4)
2336  094B  C6 06       	add	a,0x06
2337  094D  6F          	ld	l, a
2338  094E  18 42       	jr	l_spr_tile_dir_00113
2339  0950              l_spr_tile_dir_00102:
2340  0950  3E 00       	ld	a, +((_state_a) & 0xFF)
2341  0952  DD 86 05    	add	a,(ix+5)
2342  0955  5F          	ld	e, a
2343  0956  3E 00       	ld	a, +((_state_a) / 256)
2344  0958  CE 00       	adc	a,0x00
2345  095A  57          	ld	d, a
2346  095B  1A          	ld	a, (de)
2347  095C  47          	ld	b,a
2348  095D  CB 4F       	bit	1,a
2349  095F  28 08       	jr	Z,l_spr_tile_dir_00104
2350  0961  DD 7E 04    	ld	a,(ix+4)
2351  0964  C6 09       	add	a,0x09
2352  0966  6F          	ld	l, a
2353  0967  18 29       	jr	l_spr_tile_dir_00113
2354  0969              l_spr_tile_dir_00104:
2355  0969  CB 51       	bit	2, c
2356  096B  28 05       	jr	Z,l_spr_tile_dir_00106
2357  096D  DD 6E 04    	ld	l,(ix+4)
2358  0970  18 20       	jr	l_spr_tile_dir_00113
2359  0972              l_spr_tile_dir_00106:
2360  0972  DD 7E 04    	ld	a,(ix+4)
2361  0975  DD 86 06    	add	a,(ix+6)
2362  0978  CB 59       	bit	3, c
2363  097A  28 03       	jr	Z,l_spr_tile_dir_00108
2364  097C  6F          	ld	l, a
2365  097D  18 13       	jr	l_spr_tile_dir_00113
2366  097F              l_spr_tile_dir_00108:
2367  097F  CB 60       	bit	4, b
2368  0981  28 05       	jr	Z,l_spr_tile_dir_00110
2369  0983  DD 6E 04    	ld	l,(ix+4)
2370  0986  18 0A       	jr	l_spr_tile_dir_00113
2371  0988              l_spr_tile_dir_00110:
2372  0988  CB 58       	bit	3, b
2373  098A  28 03       	jr	Z,l_spr_tile_dir_00112
2374  098C  6F          	ld	l, a
2375  098D  18 03       	jr	l_spr_tile_dir_00113
2376  098F              l_spr_tile_dir_00112:
2377  098F  DD 6E 04    	ld	l,(ix+4)
2378  0992              l_spr_tile_dir_00113:
2379  0992  DD E1       	pop	ix
2380  0994  C9          	ret
2381  0995              	SECTION code_compiler
2382  0995              ;	---------------------------------
2383  0995              ; Function spr_draw_background
2384  0995              ; ---------------------------------
2385  0995              _spr_draw_background:
2386  0995  76          	halt
2387  0996  21 10 00    	ld	hl,0x0010
2388  0999  22 00 00    	ld	(_index1),hl
2389  099C  21 00 00    	ld	hl,_s_lin1
2390  099F  36 00       	ld	(hl),0x00
2391  09A1  21 00 00    	ld	hl,_s_col1
2392  09A4  36 02       	ld	(hl),0x02
2393  09A6              l_spr_draw_background_00103:
2394  09A6  21 00 00    	ld	hl,_index1
2395  09A9  7E          	ld	a, (hl)
2396  09AA  D6 A0       	sub	a,0xa0
2397  09AC  23          	inc	hl
2398  09AD  7E          	ld	a, (hl)
2399  09AE  DE 00       	sbc	a,0x00
2400  09B0  30 37       	jr	NC,l_spr_draw_background_00106
2401  09B2  2B          	dec	hl
2402  09B3  7E          	ld	a, (hl)
2403  09B4  E6 0F       	and	a,0x0f
2404  09B6  20 0C       	jr	NZ,l_spr_draw_background_00102
2405  09B8  21 00 00    	ld	hl,_s_lin1
2406  09BB  7E          	ld	a, (hl)
2407  09BC  C6 10       	add	a,0x10
2408  09BE  77          	ld	(hl), a
2409  09BF  21 00 00    	ld	hl,_s_col1
2410  09C2  36 00       	ld	(hl),0x00
2411  09C4              l_spr_draw_background_00102:
2412  09C4  01 00 00    	ld	bc,_scr_map
2413  09C7  2A 00 00    	ld	hl,(_index1)
2414  09CA  09          	add	hl,bc
2415  09CB  46          	ld	b, (hl)
2416  09CC  3A 00 00    	ld	a,(_s_col1)
2417  09CF  F5          	push	af
2418  09D0  33          	inc	sp
2419  09D1  3A 00 00    	ld	a,(_s_lin1)
2420  09D4  48          	ld	c,b
2421  09D5  47          	ld	b,a
2422  09D6  C5          	push	bc
2423  09D7  CD 00 00    	call	_NIRVANAP_drawT_callee
2424  09DA  21 00 00    	ld	hl,_s_col1
2425  09DD  34          	inc	(hl)
2426  09DE  34          	inc	(hl)
2427  09DF  21 00 00    	ld	hl,_index1
2428  09E2  34          	inc	(hl)
2429  09E3  20 C1       	jr	NZ,l_spr_draw_background_00103
2430  09E5  23          	inc	hl
2431  09E6  34          	inc	(hl)
2432  09E7  18 BD       	jr	l_spr_draw_background_00103
2433  09E9              l_spr_draw_background_00106:
2434  09E9  C9          	ret
2435  09EA              	SECTION code_compiler
2436  09EA              ;	---------------------------------
2437  09EA              ; Function spr_draw_clear
2438  09EA              ; ---------------------------------
2439  09EA              _spr_draw_clear:
2440  09EA  F3          	di
2441  09EB  2E 00       	ld	l,0x00
2442  09ED  CD 00 00    	call	_zx_cls_fastcall
2443  09F0  21 00 00    	ld	hl,_s_lin1
2444  09F3  36 10       	ld	(hl),0x10
2445  09F5              l_spr_draw_clear_00105:
2446  09F5  21 00 00    	ld	hl,_s_col1
2447  09F8  36 00       	ld	(hl),0x00
2448  09FA              l_spr_draw_clear_00103:
2449  09FA  2A FF FF    	ld	hl,(_s_col1 - 1)
2450  09FD  3A 00 00    	ld	a,(_s_lin1)
2451  0A00  6F          	ld	l,a
2452  0A01  E5          	push	hl
2453  0A02  AF          	xor	a, a
2454  0A03  F5          	push	af
2455  0A04  33          	inc	sp
2456  0A05  CD 00 00    	call	_NIRVANAP_drawT_raw_callee
2457  0A08  21 00 00    	ld	hl,_s_col1
2458  0A0B  7E          	ld	a,(hl)
2459  0A0C  C6 02       	add	a,0x02
2460  0A0E  77          	ld	(hl),a
2461  0A0F  D6 20       	sub	a,0x20
2462  0A11  38 E7       	jr	C,l_spr_draw_clear_00103
2463  0A13  21 00 00    	ld	hl,_s_lin1
2464  0A16  7E          	ld	a, (hl)
2465  0A17  C6 10       	add	a,0x10
2466  0A19  77          	ld	(hl), a
2467  0A1A  3E A2       	ld	a,0xa2
2468  0A1C  96          	sub	a, (hl)
2469  0A1D  30 D6       	jr	NC,l_spr_draw_clear_00105
2470  0A1F  FB          	ei
2471  0A20  C9          	ret
2472  0A21              	SECTION code_compiler
2473  0A21              ;	---------------------------------
2474  0A21              ; Function spr_back_paint
2475  0A21              ; ---------------------------------
2476  0A21              _spr_back_paint:
2477  0A21  CD 00 00    	call	___sdcc_enter_ix
2478  0A24  76          	halt
2479  0A25  F3          	di
2480  0A26  DD 7E 04    	ld	a,(ix+4)
2481  0A29  C6 40       	add	a,0x40
2482  0A2B  4F          	ld	c, a
2483  0A2C  DD 7E 05    	ld	a,(ix+5)
2484  0A2F  CE 00       	adc	a,0x00
2485  0A31  47          	ld	b, a
2486  0A32  C5          	push	bc
2487  0A33  CD 1D 0B    	call	_spr_draw_index
2488  0A36  F1          	pop	af
2489  0A37  DD 7E 04    	ld	a,(ix+4)
2490  0A3A  C6 42       	add	a,0x42
2491  0A3C  4F          	ld	c, a
2492  0A3D  DD 7E 05    	ld	a,(ix+5)
2493  0A40  CE 00       	adc	a,0x00
2494  0A42  47          	ld	b, a
2495  0A43  C5          	push	bc
2496  0A44  CD 1D 0B    	call	_spr_draw_index
2497  0A47  F1          	pop	af
2498  0A48  DD 7E 04    	ld	a,(ix+4)
2499  0A4B  C6 44       	add	a,0x44
2500  0A4D  4F          	ld	c, a
2501  0A4E  DD 7E 05    	ld	a,(ix+5)
2502  0A51  CE 00       	adc	a,0x00
2503  0A53  47          	ld	b, a
2504  0A54  C5          	push	bc
2505  0A55  CD 1D 0B    	call	_spr_draw_index
2506  0A58  F1          	pop	af
2507  0A59  DD 7E 04    	ld	a,(ix+4)
2508  0A5C  C6 80       	add	a,0x80
2509  0A5E  4F          	ld	c, a
2510  0A5F  DD 7E 05    	ld	a,(ix+5)
2511  0A62  CE 00       	adc	a,0x00
2512  0A64  47          	ld	b, a
2513  0A65  C5          	push	bc
2514  0A66  CD 1D 0B    	call	_spr_draw_index
2515  0A69  F1          	pop	af
2516  0A6A  DD 7E 04    	ld	a,(ix+4)
2517  0A6D  C6 82       	add	a,0x82
2518  0A6F  4F          	ld	c, a
2519  0A70  DD 7E 05    	ld	a,(ix+5)
2520  0A73  CE 00       	adc	a,0x00
2521  0A75  47          	ld	b, a
2522  0A76  C5          	push	bc
2523  0A77  CD 1D 0B    	call	_spr_draw_index
2524  0A7A  F1          	pop	af
2525  0A7B  DD 7E 04    	ld	a,(ix+4)
2526  0A7E  C6 84       	add	a,0x84
2527  0A80  4F          	ld	c, a
2528  0A81  DD 7E 05    	ld	a,(ix+5)
2529  0A84  CE 00       	adc	a,0x00
2530  0A86  47          	ld	b, a
2531  0A87  C5          	push	bc
2532  0A88  CD 1D 0B    	call	_spr_draw_index
2533  0A8B  F1          	pop	af
2534  0A8C  FB          	ei
2535  0A8D  DD E1       	pop	ix
2536  0A8F  C9          	ret
2537  0A90              	SECTION code_compiler
2538  0A90              ;	---------------------------------
2539  0A90              ; Function spr_brick_anim
2540  0A90              ; ---------------------------------
2541  0A90              _spr_brick_anim:
2542  0A90  CD 00 00    	call	___sdcc_enter_ix
2543  0A93  F5          	push	af
2544  0A94  DD 75 FF    	ld	(ix-1),l
2545  0A97  21 00 00    	ld	hl,_player_hit_col
2546  0A9A  56          	ld	d, (hl)
2547  0A9B  21 00 00    	ld	hl,_player_hit_lin
2548  0A9E  5E          	ld	e, (hl)
2549  0A9F  D5          	push	de
2550  0AA0  D5          	push	de
2551  0AA1  CD 00 00    	call	_spr_calc_index
2552  0AA4  F1          	pop	af
2553  0AA5  D1          	pop	de
2554  0AA6  22 00 00    	ld	(_index1),hl
2555  0AA9  01 F0 FF    	ld	bc,0xfff0
2556  0AAC  09          	add	hl,bc
2557  0AAD  01 00 00    	ld	bc,_scr_map
2558  0AB0  09          	add	hl,bc
2559  0AB1  7E          	ld	a, (hl)
2560  0AB2  DD 77 FE    	ld	(ix-2),a
2561  0AB5  01 00 00    	ld	bc,_scr_map
2562  0AB8  2A 00 00    	ld	hl,(_index1)
2563  0ABB  09          	add	hl,bc
2564  0ABC  4D          	ld	c,l
2565  0ABD  46          	ld	b, (hl)
2566  0ABE  DD 7E FF    	ld	a,(ix-1)
2567  0AC1  B7          	or	a, a
2568  0AC2  28 08       	jr	Z,l_spr_brick_anim_00102
2569  0AC4  7B          	ld	a, e
2570  0AC5  C6 F6       	add	a,0xf6
2571  0AC7  32 00 00    	ld	(_tmp),a
2572  0ACA  18 06       	jr	l_spr_brick_anim_00103
2573  0ACC              l_spr_brick_anim_00102:
2574  0ACC  7B          	ld	a, e
2575  0ACD  C6 F8       	add	a,0xf8
2576  0ACF  32 00 00    	ld	(_tmp),a
2577  0AD2              l_spr_brick_anim_00103:
2578  0AD2  DD 7E FF    	ld	a,(ix-1)
2579  0AD5  B7          	or	a, a
2580  0AD6  28 23       	jr	Z,l_spr_brick_anim_00105
2581  0AD8  D5          	push	de
2582  0AD9  D5          	push	de
2583  0ADA  33          	inc	sp
2584  0ADB  53          	ld	d, e
2585  0ADC  1E 49       	ld	e,0x49
2586  0ADE  D5          	push	de
2587  0ADF  CD 00 00    	call	_NIRVANAP_fillC_callee
2588  0AE2  D1          	pop	de
2589  0AE3  62          	ld	h, d
2590  0AE4  24          	inc	h
2591  0AE5  D5          	push	de
2592  0AE6  E5          	push	hl
2593  0AE7  33          	inc	sp
2594  0AE8  53          	ld	d, e
2595  0AE9  1E 49       	ld	e,0x49
2596  0AEB  D5          	push	de
2597  0AEC  CD 00 00    	call	_NIRVANAP_fillC_callee
2598  0AEF  33          	inc	sp
2599  0AF0  3A 00 00    	ld	a,(_tmp)
2600  0AF3  48          	ld	c,b
2601  0AF4  47          	ld	b,a
2602  0AF5  C5          	push	bc
2603  0AF6  CD 00 00    	call	_NIRVANAP_drawT_callee
2604  0AF9  18 1E       	jr	l_spr_brick_anim_00107
2605  0AFB              l_spr_brick_anim_00105:
2606  0AFB  3A 00 00    	ld	a,(_tmp)
2607  0AFE  C6 F0       	add	a,0xf0
2608  0B00  C5          	push	bc
2609  0B01  D5          	push	de
2610  0B02  5F          	ld	e,a
2611  0B03  D5          	push	de
2612  0B04  DD 7E FE    	ld	a,(ix-2)
2613  0B07  F5          	push	af
2614  0B08  33          	inc	sp
2615  0B09  CD 00 00    	call	_NIRVANAP_drawT_callee
2616  0B0C  D1          	pop	de
2617  0B0D  C1          	pop	bc
2618  0B0E  D5          	push	de
2619  0B0F  33          	inc	sp
2620  0B10  3A 00 00    	ld	a,(_tmp)
2621  0B13  48          	ld	c,b
2622  0B14  47          	ld	b,a
2623  0B15  C5          	push	bc
2624  0B16  CD 00 00    	call	_NIRVANAP_drawT_callee
2625  0B19              l_spr_brick_anim_00107:
2626  0B19  F1          	pop	af
2627  0B1A  DD E1       	pop	ix
2628  0B1C  C9          	ret
2629  0B1D              	SECTION code_compiler
2630  0B1D              ;	---------------------------------
2631  0B1D              ; Function spr_draw_index
2632  0B1D              ; ---------------------------------
2633  0B1D              _spr_draw_index:
2634  0B1D  CD 00 00    	call	___sdcc_enter_ix
2635  0B20  DD 7E 04    	ld	a,(ix+4)
2636  0B23  E6 1F       	and	a,0x1f
2637  0B25  32 00 00    	ld	(_s_col1),a
2638  0B28  DD 4E 04    	ld	c,(ix+4)
2639  0B2B  DD 5E 05    	ld	e,(ix+5)
2640  0B2E  06 05       	ld	b,0x05
2641  0B30  79          	ld	a,c
2642  0B31              l_spr_draw_index_00103:
2643  0B31  CB 3B       	srl	e
2644  0B33  1F          	rra
2645  0B34  10 FB       	djnz	l_spr_draw_index_00103
2646  0B36  21 00 00    	ld	hl,_s_lin1
2647  0B39  77          	ld	(hl),a
2648  0B3A  07          	rlca
2649  0B3B  07          	rlca
2650  0B3C  07          	rlca
2651  0B3D  E6 F8       	and	a,0xf8
2652  0B3F  77          	ld	(hl), a
2653  0B40  3E 00       	ld	a, +((_scr_map) & 0xFF)
2654  0B42  DD 86 04    	add	a,(ix+4)
2655  0B45  4F          	ld	c, a
2656  0B46  3E 00       	ld	a, +((_scr_map) / 256)
2657  0B48  DD 8E 05    	adc	a,(ix+5)
2658  0B4B  47          	ld	b, a
2659  0B4C  0A          	ld	a, (bc)
2660  0B4D  47          	ld	b, a
2661  0B4E  3A 00 00    	ld	a,(_s_col1)
2662  0B51  F5          	push	af
2663  0B52  33          	inc	sp
2664  0B53  3A 00 00    	ld	a,(_s_lin1)
2665  0B56  48          	ld	c,b
2666  0B57  47          	ld	b,a
2667  0B58  C5          	push	bc
2668  0B59  CD 00 00    	call	_NIRVANAP_drawT_raw_callee
2669  0B5C  DD E1       	pop	ix
2670  0B5E  C9          	ret
2671  0B5F              	SECTION code_compiler
2672  0B5F              ;	---------------------------------
2673  0B5F              ; Function spr_draw_row
2674  0B5F              ; ---------------------------------
2675  0B5F              _spr_draw_row:
2676  0B5F  CD 00 00    	call	___sdcc_enter_ix
2677  0B62  3B          	dec	sp
2678  0B63  F3          	di
2679  0B64  21 00 00    	ld	hl,_tmp
2680  0B67  36 00       	ld	(hl),0x00
2681  0B69  DD 7E 04    	ld	a,(ix+4)
2682  0B6C  07          	rlca
2683  0B6D  07          	rlca
2684  0B6E  07          	rlca
2685  0B6F  E6 F8       	and	a,0xf8
2686  0B71  DD 77 FF    	ld	(ix-1),a
2687  0B74              l_spr_draw_row_00101:
2688  0B74  21 00 00    	ld	hl,_tmp
2689  0B77  7E          	ld	a, (hl)
2690  0B78  D6 20       	sub	a,0x20
2691  0B7A  30 38       	jr	NC,l_spr_draw_row_00103
2692  0B7C  DD 4E 04    	ld	c,(ix+4)
2693  0B7F  3E 00       	ld	a,0x00
2694  0B81  CB 21       	sla	c
2695  0B83  17          	rla
2696  0B84  CB 21       	sla	c
2697  0B86  17          	rla
2698  0B87  CB 21       	sla	c
2699  0B89  17          	rla
2700  0B8A  CB 21       	sla	c
2701  0B8C  17          	rla
2702  0B8D  CB 21       	sla	c
2703  0B8F  17          	rla
2704  0B90  47          	ld	b,a
2705  0B91  5E          	ld	e, (hl)
2706  0B92  16 00       	ld	d,0x00
2707  0B94  79          	ld	a, c
2708  0B95  83          	add	a, e
2709  0B96  21 00 00    	ld	hl,_index1
2710  0B99  77          	ld	(hl), a
2711  0B9A  78          	ld	a, b
2712  0B9B  8A          	adc	a, d
2713  0B9C  23          	inc	hl
2714  0B9D  77          	ld	(hl), a
2715  0B9E  2A FF FF    	ld	hl,(_tmp-1)
2716  0BA1  DD 6E FF    	ld	l,(ix-1)
2717  0BA4  3A 00 00    	ld	a,(_game_brick_tile)
2718  0BA7  E5          	push	hl
2719  0BA8  F5          	push	af
2720  0BA9  33          	inc	sp
2721  0BAA  CD 00 00    	call	_NIRVANAP_drawT_raw_callee
2722  0BAD  21 00 00    	ld	hl,_tmp
2723  0BB0  34          	inc	(hl)
2724  0BB1  34          	inc	(hl)
2725  0BB2  18 C0       	jr	l_spr_draw_row_00101
2726  0BB4              l_spr_draw_row_00103:
2727  0BB4  FB          	ei
2728  0BB5  33          	inc	sp
2729  0BB6  DD E1       	pop	ix
2730  0BB8  C9          	ret
2731  0BB9              	SECTION code_compiler
2732  0BB9              ;	---------------------------------
2733  0BB9              ; Function spr_calc_hor
2734  0BB9              ; ---------------------------------
2735  0BB9              _spr_calc_hor:
2736  0BB9  CD 00 00    	call	___sdcc_enter_ix
2737  0BBC  3E 00       	ld	a, +((_class) & 0xFF)
2738  0BBE  DD 86 04    	add	a,(ix+4)
2739  0BC1  4F          	ld	c, a
2740  0BC2  3E 00       	ld	a, +((_class) / 256)
2741  0BC4  CE 00       	adc	a,0x00
2742  0BC6  47          	ld	b, a
2743  0BC7  0A          	ld	a, (bc)
2744  0BC8  D6 0C       	sub	a,0x0c
2745  0BCA  28 20       	jr	Z,l_spr_calc_hor_00102
2746  0BCC  3E 00       	ld	a, +((_col) & 0xFF)
2747  0BCE  DD 86 04    	add	a,(ix+4)
2748  0BD1  4F          	ld	c, a
2749  0BD2  3E 00       	ld	a, +((_col) / 256)
2750  0BD4  CE 00       	adc	a,0x00
2751  0BD6  47          	ld	b, a
2752  0BD7  0A          	ld	a, (bc)
2753  0BD8  4F          	ld	c, a
2754  0BD9  87          	add	a, a
2755  0BDA  81          	add	a, c
2756  0BDB  4F          	ld	c, a
2757  0BDC  3E 00       	ld	a, +((_colint) & 0xFF)
2758  0BDE  DD 86 04    	add	a,(ix+4)
2759  0BE1  5F          	ld	e, a
2760  0BE2  3E 00       	ld	a, +((_colint) / 256)
2761  0BE4  CE 00       	adc	a,0x00
2762  0BE6  57          	ld	d, a
2763  0BE7  1A          	ld	a, (de)
2764  0BE8  6F          	ld	l, a
2765  0BE9  09          	add	hl, bc
2766  0BEA  18 10       	jr	l_spr_calc_hor_00104
2767  0BEC              l_spr_calc_hor_00102:
2768  0BEC  3E 00       	ld	a, +((_col) & 0xFF)
2769  0BEE  DD 86 04    	add	a,(ix+4)
2770  0BF1  4F          	ld	c, a
2771  0BF2  3E 00       	ld	a, +((_col) / 256)
2772  0BF4  CE 00       	adc	a,0x00
2773  0BF6  47          	ld	b, a
2774  0BF7  0A          	ld	a, (bc)
2775  0BF8  4F          	ld	c, a
2776  0BF9  69          	ld	l, c
2777  0BFA  29          	add	hl, hl
2778  0BFB  09          	add	hl, bc
2779  0BFC              l_spr_calc_hor_00104:
2780  0BFC  DD E1       	pop	ix
2781  0BFE  C9          	ret
2782  0BFF              	SECTION code_compiler
2783  0BFF              ;	---------------------------------
2784  0BFF              ; Function spr_collision_check
2785  0BFF              ; ---------------------------------
2786  0BFF              _spr_collision_check:
2787  0BFF  CD 00 00    	call	___sdcc_enter_ix
2788  0C02  3E 00       	ld	a, +((_class) & 0xFF)
2789  0C04  DD 86 05    	add	a,(ix+5)
2790  0C07  4F          	ld	c, a
2791  0C08  3E 00       	ld	a, +((_class) / 256)
2792  0C0A  CE 00       	adc	a,0x00
2793  0C0C  47          	ld	b, a
2794  0C0D  0A          	ld	a, (bc)
2795  0C0E  B7          	or	a, a
2796  0C0F  28 10       	jr	Z,l_spr_collision_check_00101
2797  0C11  3E 00       	ld	a, +((_state) & 0xFF)
2798  0C13  DD 86 05    	add	a,(ix+5)
2799  0C16  4F          	ld	c, a
2800  0C17  3E 00       	ld	a, +((_state) / 256)
2801  0C19  CE 00       	adc	a,0x00
2802  0C1B  47          	ld	b, a
2803  0C1C  0A          	ld	a, (bc)
2804  0C1D  CB 6F       	bit	5, a
2805  0C1F  28 04       	jr	Z,l_spr_collision_check_00102
2806  0C21              l_spr_collision_check_00101:
2807  0C21  2E 00       	ld	l,0x00
2808  0C23  18 6D       	jr	l_spr_collision_check_00109
2809  0C25              l_spr_collision_check_00102:
2810  0C25  01 00 00    	ld	bc,_lin+0
2811  0C28  79          	ld	a, c
2812  0C29  DD 86 05    	add	a,(ix+5)
2813  0C2C  5F          	ld	e, a
2814  0C2D  78          	ld	a, b
2815  0C2E  CE 00       	adc	a,0x00
2816  0C30  57          	ld	d, a
2817  0C31  1A          	ld	a, (de)
2818  0C32  5F          	ld	e, a
2819  0C33  16 00       	ld	d,0x00
2820  0C35  79          	ld	a, c
2821  0C36  DD 86 04    	add	a,(ix+4)
2822  0C39  4F          	ld	c, a
2823  0C3A  78          	ld	a, b
2824  0C3B  CE 00       	adc	a,0x00
2825  0C3D  47          	ld	b, a
2826  0C3E  0A          	ld	a, (bc)
2827  0C3F  4F          	ld	c, a
2828  0C40  AF          	xor	a,a
2829  0C41  47          	ld	b,a
2830  0C42  EB          	ex	de,hl
2831  0C43  ED 42       	sbc	hl,bc
2832  0C45  CD 00 00    	call	_abs_fastcall
2833  0C48  22 00 00    	ld	(_tmp_ui),hl
2834  0C4B  21 01 00    	ld	hl,_tmp_ui + 1
2835  0C4E  DD 7E 06    	ld	a,(ix+6)
2836  0C51  06 00       	ld	b,0x00
2837  0C53  2B          	dec	hl
2838  0C54  96          	sub	a, (hl)
2839  0C55  78          	ld	a, b
2840  0C56  23          	inc	hl
2841  0C57  9E          	sbc	a, (hl)
2842  0C58  30 04       	jr	NC,l_spr_collision_check_00105
2843  0C5A  2E 00       	ld	l,0x00
2844  0C5C  18 34       	jr	l_spr_collision_check_00109
2845  0C5E              l_spr_collision_check_00105:
2846  0C5E  DD 7E 04    	ld	a,(ix+4)
2847  0C61  F5          	push	af
2848  0C62  33          	inc	sp
2849  0C63  CD B9 0B    	call	_spr_calc_hor
2850  0C66  33          	inc	sp
2851  0C67  4D          	ld	c, l
2852  0C68  C5          	push	bc
2853  0C69  DD 7E 05    	ld	a,(ix+5)
2854  0C6C  F5          	push	af
2855  0C6D  33          	inc	sp
2856  0C6E  CD B9 0B    	call	_spr_calc_hor
2857  0C71  33          	inc	sp
2858  0C72  C1          	pop	bc
2859  0C73  5D          	ld	e,l
2860  0C74  69          	ld	l, c
2861  0C75  AF          	xor	a,a
2862  0C76  67          	ld	h,a
2863  0C77  57          	ld	d,a
2864  0C78  ED 52       	sbc	hl,de
2865  0C7A  CD 00 00    	call	_abs_fastcall
2866  0C7D  22 00 00    	ld	(_tmp_ui),hl
2867  0C80  3E 03       	ld	a,0x03
2868  0C82  21 00 00    	ld	hl,_tmp_ui
2869  0C85  BE          	cp	a, (hl)
2870  0C86  3E 00       	ld	a,0x00
2871  0C88  23          	inc	hl
2872  0C89  9E          	sbc	a, (hl)
2873  0C8A  30 04       	jr	NC,l_spr_collision_check_00107
2874  0C8C  2E 00       	ld	l,0x00
2875  0C8E  18 02       	jr	l_spr_collision_check_00109
2876  0C90              l_spr_collision_check_00107:
2877  0C90  2E 01       	ld	l,0x01
2878  0C92              l_spr_collision_check_00109:
2879  0C92  DD E1       	pop	ix
2880  0C94  C9          	ret
2881  0C95              	SECTION code_compiler
2882  0C95              ;	---------------------------------
2883  0C95              ; Function spr_kill_all
2884  0C95              ; ---------------------------------
2885  0C95              _spr_kill_all:
2886  0C95  21 00 00    	ld	hl,_sprite
2887  0C98  36 00       	ld	(hl),0x00
2888  0C9A              l_spr_kill_all_00102:
2889  0C9A  2A 00 00    	ld	hl,(_sprite)
2890  0C9D  CD D7 07    	call	_spr_destroy
2891  0CA0  21 00 00    	ld	hl,_sprite
2892  0CA3  7E          	ld	a,(hl)
2893  0CA4  3C          	inc	a
2894  0CA5  77          	ld	(hl),a
2895  0CA6  D6 08       	sub	a,0x08
2896  0CA8  38 F0       	jr	C,l_spr_kill_all_00102
2897  0CAA  C9          	ret
2898  0CAB              	SECTION code_compiler
2899  0CAB              ;	---------------------------------
2900  0CAB              ; Function spr_back_clr
2901  0CAB              ; ---------------------------------
2902  0CAB              _spr_back_clr:
2903  0CAB  2A FF FF    	ld	hl,(_s_col0 - 1)
2904  0CAE  3A 00 00    	ld	a,(_s_lin0)
2905  0CB1  6F          	ld	l,a
2906  0CB2  E5          	push	hl
2907  0CB3  CD 00 00    	call	_spr_calc_index
2908  0CB6  F1          	pop	af
2909  0CB7  22 00 00    	ld	(_sprite_curr_index),hl
2910  0CBA  21 00 00    	ld	hl,_s_lin0
2911  0CBD  7E          	ld	a, (hl)
2912  0CBE  E6 0F       	and	a,0x0f
2913  0CC0  4F          	ld	c, a
2914  0CC1  7E          	ld	a, (hl)
2915  0CC2  07          	rlca
2916  0CC3  07          	rlca
2917  0CC4  07          	rlca
2918  0CC5  07          	rlca
2919  0CC6  E6 0F       	and	a,0x0f
2920  0CC8  47          	ld	b, a
2921  0CC9  21 00 00    	ld	hl,_s_col0
2922  0CCC  CB 46       	bit	0, (hl)
2923  0CCE  20 6B       	jr	NZ,l_spr_back_clr_00108
2924  0CD0  79          	ld	a, c
2925  0CD1  B7          	or	a, a
2926  0CD2  20 1E       	jr	NZ,l_spr_back_clr_00102
2927  0CD4  01 00 00    	ld	bc,_scr_map
2928  0CD7  2A 00 00    	ld	hl,(_sprite_curr_index)
2929  0CDA  09          	add	hl,bc
2930  0CDB  46          	ld	b, (hl)
2931  0CDC  3A 00 00    	ld	a,(_s_col0)
2932  0CDF  F5          	push	af
2933  0CE0  33          	inc	sp
2934  0CE1  3A 00 00    	ld	a,(_s_lin0)
2935  0CE4  48          	ld	c,b
2936  0CE5  47          	ld	b,a
2937  0CE6  C5          	push	bc
2938  0CE7  CD 18 0E    	call	_spr_tile_paint
2939  0CEA  F1          	pop	af
2940  0CEB  33          	inc	sp
2941  0CEC  CD 00 00    	call	_player_pick_item
2942  0CEF  C3 17 0E    	jp	l_spr_back_clr_00110
2943  0CF2              l_spr_back_clr_00102:
2944  0CF2  78          	ld	a, b
2945  0CF3  07          	rlca
2946  0CF4  07          	rlca
2947  0CF5  07          	rlca
2948  0CF6  07          	rlca
2949  0CF7  E6 F0       	and	a,0xf0
2950  0CF9  47          	ld	b, a
2951  0CFA  11 00 00    	ld	de,_scr_map
2952  0CFD  2A 00 00    	ld	hl,(_sprite_curr_index)
2953  0D00  19          	add	hl,de
2954  0D01  66          	ld	h, (hl)
2955  0D02  3A 00 00    	ld	a,(_s_col0)
2956  0D05  EB          	ex	de,hl
2957  0D06  C5          	push	bc
2958  0D07  F5          	push	af
2959  0D08  33          	inc	sp
2960  0D09  4A          	ld	c, d
2961  0D0A  C5          	push	bc
2962  0D0B  CD 18 0E    	call	_spr_tile_paint
2963  0D0E  F1          	pop	af
2964  0D0F  33          	inc	sp
2965  0D10  CD 00 00    	call	_player_pick_item
2966  0D13  C1          	pop	bc
2967  0D14  78          	ld	a, b
2968  0D15  C6 10       	add	a,0x10
2969  0D17  57          	ld	d, a
2970  0D18  2A 00 00    	ld	hl,(_sprite_curr_index)
2971  0D1B  01 10 00    	ld	bc,0x0010
2972  0D1E  09          	add	hl,bc
2973  0D1F  22 00 00    	ld	(_sprite_curr_index),hl
2974  0D22  01 00 00    	ld	bc,_scr_map
2975  0D25  09          	add	hl,bc
2976  0D26  4D          	ld	c,l
2977  0D27  46          	ld	b, (hl)
2978  0D28  3A 00 00    	ld	a,(_s_col0)
2979  0D2B  5A          	ld	e,d
2980  0D2C  57          	ld	d,a
2981  0D2D  D5          	push	de
2982  0D2E  C5          	push	bc
2983  0D2F  33          	inc	sp
2984  0D30  CD 18 0E    	call	_spr_tile_paint
2985  0D33  F1          	pop	af
2986  0D34  33          	inc	sp
2987  0D35  CD 00 00    	call	_player_pick_item
2988  0D38  C3 17 0E    	jp	l_spr_back_clr_00110
2989  0D3B              l_spr_back_clr_00108:
2990  0D3B  21 00 00    	ld	hl,_s_col0
2991  0D3E  56          	ld	d, (hl)
2992  0D3F  15          	dec	d
2993  0D40  79          	ld	a, c
2994  0D41  B7          	or	a, a
2995  0D42  20 41       	jr	NZ,l_spr_back_clr_00105
2996  0D44  01 00 00    	ld	bc,_scr_map
2997  0D47  2A 00 00    	ld	hl,(_sprite_curr_index)
2998  0D4A  09          	add	hl,bc
2999  0D4B  46          	ld	b, (hl)
3000  0D4C  D5          	push	de
3001  0D4D  33          	inc	sp
3002  0D4E  3A 00 00    	ld	a,(_s_lin0)
3003  0D51  48          	ld	c,b
3004  0D52  47          	ld	b,a
3005  0D53  C5          	push	bc
3006  0D54  CD 18 0E    	call	_spr_tile_paint
3007  0D57  F1          	pop	af
3008  0D58  33          	inc	sp
3009  0D59  CD 00 00    	call	_player_pick_item
3010  0D5C  21 00 00    	ld	hl,_sprite_curr_index
3011  0D5F  34          	inc	(hl)
3012  0D60  20 02       	jr	NZ,l_spr_back_clr_00126
3013  0D62  23          	inc	hl
3014  0D63  34          	inc	(hl)
3015  0D64              l_spr_back_clr_00126:
3016  0D64  21 00 00    	ld	hl,_s_col0
3017  0D67  46          	ld	b, (hl)
3018  0D68  04          	inc	b
3019  0D69  11 00 00    	ld	de,_scr_map
3020  0D6C  2A 00 00    	ld	hl,(_sprite_curr_index)
3021  0D6F  19          	add	hl,de
3022  0D70  66          	ld	h, (hl)
3023  0D71  EB          	ex	de,hl
3024  0D72  C5          	push	bc
3025  0D73  33          	inc	sp
3026  0D74  3A 00 00    	ld	a,(_s_lin0)
3027  0D77  5A          	ld	e,d
3028  0D78  57          	ld	d,a
3029  0D79  D5          	push	de
3030  0D7A  CD 18 0E    	call	_spr_tile_paint
3031  0D7D  F1          	pop	af
3032  0D7E  33          	inc	sp
3033  0D7F  CD 00 00    	call	_player_pick_item
3034  0D82  C3 17 0E    	jp	l_spr_back_clr_00110
3035  0D85              l_spr_back_clr_00105:
3036  0D85  78          	ld	a, b
3037  0D86  07          	rlca
3038  0D87  07          	rlca
3039  0D88  07          	rlca
3040  0D89  07          	rlca
3041  0D8A  E6 F0       	and	a,0xf0
3042  0D8C  47          	ld	b, a
3043  0D8D  3E 00       	ld	a, +((_scr_map) & 0xFF)
3044  0D8F  21 00 00    	ld	hl,_sprite_curr_index
3045  0D92  86          	add	a, (hl)
3046  0D93  4F          	ld	c, a
3047  0D94  3E 00       	ld	a, +((_scr_map) / 256)
3048  0D96  23          	inc	hl
3049  0D97  8E          	adc	a, (hl)
3050  0D98  67          	ld	h, a
3051  0D99  69          	ld	l, c
3052  0D9A  7E          	ld	a, (hl)
3053  0D9B  C5          	push	bc
3054  0D9C  58          	ld	e,b
3055  0D9D  D5          	push	de
3056  0D9E  F5          	push	af
3057  0D9F  33          	inc	sp
3058  0DA0  CD 18 0E    	call	_spr_tile_paint
3059  0DA3  F1          	pop	af
3060  0DA4  33          	inc	sp
3061  0DA5  CD 00 00    	call	_player_pick_item
3062  0DA8  C1          	pop	bc
3063  0DA9  21 00 00    	ld	hl,_sprite_curr_index
3064  0DAC  34          	inc	(hl)
3065  0DAD  20 02       	jr	NZ,l_spr_back_clr_00127
3066  0DAF  23          	inc	hl
3067  0DB0  34          	inc	(hl)
3068  0DB1              l_spr_back_clr_00127:
3069  0DB1  21 00 00    	ld	hl,_s_col0
3070  0DB4  4E          	ld	c, (hl)
3071  0DB5  0C          	inc	c
3072  0DB6  11 00 00    	ld	de,_scr_map
3073  0DB9  2A 00 00    	ld	hl,(_sprite_curr_index)
3074  0DBC  19          	add	hl,de
3075  0DBD  66          	ld	h, (hl)
3076  0DBE  EB          	ex	de,hl
3077  0DBF  C5          	push	bc
3078  0DC0  79          	ld	a, c
3079  0DC1  F5          	push	af
3080  0DC2  33          	inc	sp
3081  0DC3  4A          	ld	c, d
3082  0DC4  C5          	push	bc
3083  0DC5  CD 18 0E    	call	_spr_tile_paint
3084  0DC8  F1          	pop	af
3085  0DC9  33          	inc	sp
3086  0DCA  CD 00 00    	call	_player_pick_item
3087  0DCD  C1          	pop	bc
3088  0DCE  78          	ld	a, b
3089  0DCF  C6 10       	add	a,0x10
3090  0DD1  4F          	ld	c, a
3091  0DD2  2A 00 00    	ld	hl,(_sprite_curr_index)
3092  0DD5  11 0F 00    	ld	de,0x000f
3093  0DD8  19          	add	hl,de
3094  0DD9  22 00 00    	ld	(_sprite_curr_index),hl
3095  0DDC  21 00 00    	ld	hl,_s_col0
3096  0DDF  46          	ld	b, (hl)
3097  0DE0  05          	dec	b
3098  0DE1  11 00 00    	ld	de,_scr_map
3099  0DE4  2A 00 00    	ld	hl,(_sprite_curr_index)
3100  0DE7  19          	add	hl,de
3101  0DE8  66          	ld	h, (hl)
3102  0DE9  EB          	ex	de,hl
3103  0DEA  C5          	push	bc
3104  0DEB  C5          	push	bc
3105  0DEC  D5          	push	de
3106  0DED  33          	inc	sp
3107  0DEE  CD 18 0E    	call	_spr_tile_paint
3108  0DF1  F1          	pop	af
3109  0DF2  33          	inc	sp
3110  0DF3  CD 00 00    	call	_player_pick_item
3111  0DF6  C1          	pop	bc
3112  0DF7  21 00 00    	ld	hl,_sprite_curr_index
3113  0DFA  34          	inc	(hl)
3114  0DFB  20 02       	jr	NZ,l_spr_back_clr_00128
3115  0DFD  23          	inc	hl
3116  0DFE  34          	inc	(hl)
3117  0DFF              l_spr_back_clr_00128:
3118  0DFF  21 00 00    	ld	hl,_s_col0
3119  0E02  46          	ld	b, (hl)
3120  0E03  04          	inc	b
3121  0E04  11 00 00    	ld	de,_scr_map
3122  0E07  2A 00 00    	ld	hl,(_sprite_curr_index)
3123  0E0A  19          	add	hl,de
3124  0E0B  66          	ld	h, (hl)
3125  0E0C  C5          	push	bc
3126  0E0D  E5          	push	hl
3127  0E0E  33          	inc	sp
3128  0E0F  CD 18 0E    	call	_spr_tile_paint
3129  0E12  F1          	pop	af
3130  0E13  33          	inc	sp
3131  0E14  CD 00 00    	call	_player_pick_item
3132  0E17              l_spr_back_clr_00110:
3133  0E17  C9          	ret
3134  0E18              	SECTION code_compiler
3135  0E18              ;	---------------------------------
3136  0E18              ; Function spr_tile_paint
3137  0E18              ; ---------------------------------
3138  0E18              _spr_tile_paint:
3139  0E18  CD 00 00    	call	___sdcc_enter_ix
3140  0E1B  DD 7E 04    	ld	a,(ix+4)
3141  0E1E  B7          	or	a, a
3142  0E1F  20 3E       	jr	NZ,l_spr_tile_paint_00102
3143  0E21  DD 7E 06    	ld	a,(ix+6)
3144  0E24  F5          	push	af
3145  0E25  33          	inc	sp
3146  0E26  DD 56 05    	ld	d,(ix+5)
3147  0E29  1E 49       	ld	e,0x49
3148  0E2B  D5          	push	de
3149  0E2C  CD 00 00    	call	_NIRVANAP_fillC_callee
3150  0E2F  DD 7E 05    	ld	a,(ix+5)
3151  0E32  C6 08       	add	a,0x08
3152  0E34  47          	ld	b, a
3153  0E35  DD 7E 06    	ld	a,(ix+6)
3154  0E38  F5          	push	af
3155  0E39  33          	inc	sp
3156  0E3A  C5          	push	bc
3157  0E3B  33          	inc	sp
3158  0E3C  3E 49       	ld	a,0x49
3159  0E3E  F5          	push	af
3160  0E3F  33          	inc	sp
3161  0E40  CD 00 00    	call	_NIRVANAP_fillC_callee
3162  0E43  DD 56 06    	ld	d,(ix+6)
3163  0E46  14          	inc	d
3164  0E47  D5          	push	de
3165  0E48  D5          	push	de
3166  0E49  33          	inc	sp
3167  0E4A  DD 56 05    	ld	d,(ix+5)
3168  0E4D  1E 49       	ld	e,0x49
3169  0E4F  D5          	push	de
3170  0E50  CD 00 00    	call	_NIRVANAP_fillC_callee
3171  0E53  33          	inc	sp
3172  0E54  C5          	push	bc
3173  0E55  33          	inc	sp
3174  0E56  3E 49       	ld	a,0x49
3175  0E58  F5          	push	af
3176  0E59  33          	inc	sp
3177  0E5A  CD 00 00    	call	_NIRVANAP_fillC_callee
3178  0E5D  18 0F       	jr	l_spr_tile_paint_00104
3179  0E5F              l_spr_tile_paint_00102:
3180  0E5F  DD 66 06    	ld	h,(ix+6)
3181  0E62  DD 6E 05    	ld	l,(ix+5)
3182  0E65  E5          	push	hl
3183  0E66  DD 7E 04    	ld	a,(ix+4)
3184  0E69  F5          	push	af
3185  0E6A  33          	inc	sp
3186  0E6B  CD 00 00    	call	_NIRVANAP_drawT_callee
3187  0E6E              l_spr_tile_paint_00104:
3188  0E6E  DD E1       	pop	ix
3189  0E70  C9          	ret
3190  0E71              	SECTION IGNORE
3191  0000              
