1     0000              MODULE game_player_c
2     0000              
3     0000              ;--------------------------------------------------------
4     0000              ; File Created by SDCC : free open source ANSI-C Compiler
5     0000              ; Version 3.6.5 #9958 (Mac OS X i386)
6     0000              ;--------------------------------------------------------
7     0000              ; Processed by Z88DK
8     0000              ;--------------------------------------------------------
9     0000              
10    0000              	EXTERN __divschar
11    0000              	EXTERN __divschar_callee
12    0000              	EXTERN __divsint
13    0000              	EXTERN __divsint_callee
14    0000              	EXTERN __divslong
15    0000              	EXTERN __divslong_callee
16    0000              	EXTERN __divslonglong
17    0000              	EXTERN __divslonglong_callee
18    0000              	EXTERN __divsuchar
19    0000              	EXTERN __divsuchar_callee
20    0000              	EXTERN __divuchar
21    0000              	EXTERN __divuchar_callee
22    0000              	EXTERN __divuint
23    0000              	EXTERN __divuint_callee
24    0000              	EXTERN __divulong
25    0000              	EXTERN __divulong_callee
26    0000              	EXTERN __divulonglong
27    0000              	EXTERN __divulonglong_callee
28    0000              	EXTERN __divuschar
29    0000              	EXTERN __divuschar_callee
30    0000              	EXTERN __modschar
31    0000              	EXTERN __modschar_callee
32    0000              	EXTERN __modsint
33    0000              	EXTERN __modsint_callee
34    0000              	EXTERN __modslong
35    0000              	EXTERN __modslong_callee
36    0000              	EXTERN __modslonglong
37    0000              	EXTERN __modslonglong_callee
38    0000              	EXTERN __modsuchar
39    0000              	EXTERN __modsuchar_callee
40    0000              	EXTERN __moduchar
41    0000              	EXTERN __moduchar_callee
42    0000              	EXTERN __moduint
43    0000              	EXTERN __moduint_callee
44    0000              	EXTERN __modulong
45    0000              	EXTERN __modulong_callee
46    0000              	EXTERN __modulonglong
47    0000              	EXTERN __modulonglong_callee
48    0000              	EXTERN __moduschar
49    0000              	EXTERN __moduschar_callee
50    0000              	EXTERN __mulint
51    0000              	EXTERN __mulint_callee
52    0000              	EXTERN __mullong
53    0000              	EXTERN __mullong_callee
54    0000              	EXTERN __mullonglong
55    0000              	EXTERN __mullonglong_callee
56    0000              	EXTERN __mulschar
57    0000              	EXTERN __mulschar_callee
58    0000              	EXTERN __mulsuchar
59    0000              	EXTERN __mulsuchar_callee
60    0000              	EXTERN __muluschar
61    0000              	EXTERN __muluschar_callee
62    0000              	EXTERN __rlslonglong
63    0000              	EXTERN __rlslonglong_callee
64    0000              	EXTERN __rlulonglong
65    0000              	EXTERN __rlulonglong_callee
66    0000              	EXTERN __rrslonglong
67    0000              	EXTERN __rrslonglong_callee
68    0000              	EXTERN __rrulonglong
69    0000              	EXTERN __rrulonglong_callee
70    0000              	EXTERN ___sdcc_call_hl
71    0000              	EXTERN ___sdcc_call_iy
72    0000              	EXTERN ___sdcc_enter_ix
73    0000              	EXTERN _banked_call
74    0000              	EXTERN _banked_ret
75    0000              	EXTERN ___fs2schar
76    0000              	EXTERN ___fs2schar_callee
77    0000              	EXTERN ___fs2sint
78    0000              	EXTERN ___fs2sint_callee
79    0000              	EXTERN ___fs2slong
80    0000              	EXTERN ___fs2slong_callee
81    0000              	EXTERN ___fs2slonglong
82    0000              	EXTERN ___fs2slonglong_callee
83    0000              	EXTERN ___fs2uchar
84    0000              	EXTERN ___fs2uchar_callee
85    0000              	EXTERN ___fs2uint
86    0000              	EXTERN ___fs2uint_callee
87    0000              	EXTERN ___fs2ulong
88    0000              	EXTERN ___fs2ulong_callee
89    0000              	EXTERN ___fs2ulonglong
90    0000              	EXTERN ___fs2ulonglong_callee
91    0000              	EXTERN ___fsadd
92    0000              	EXTERN ___fsadd_callee
93    0000              	EXTERN ___fsdiv
94    0000              	EXTERN ___fsdiv_callee
95    0000              	EXTERN ___fseq
96    0000              	EXTERN ___fseq_callee
97    0000              	EXTERN ___fsgt
98    0000              	EXTERN ___fsgt_callee
99    0000              	EXTERN ___fslt
100   0000              	EXTERN ___fslt_callee
101   0000              	EXTERN ___fsmul
102   0000              	EXTERN ___fsmul_callee
103   0000              	EXTERN ___fsneq
104   0000              	EXTERN ___fsneq_callee
105   0000              	EXTERN ___fssub
106   0000              	EXTERN ___fssub_callee
107   0000              	EXTERN ___schar2fs
108   0000              	EXTERN ___schar2fs_callee
109   0000              	EXTERN ___sint2fs
110   0000              	EXTERN ___sint2fs_callee
111   0000              	EXTERN ___slong2fs
112   0000              	EXTERN ___slong2fs_callee
113   0000              	EXTERN ___slonglong2fs
114   0000              	EXTERN ___slonglong2fs_callee
115   0000              	EXTERN ___uchar2fs
116   0000              	EXTERN ___uchar2fs_callee
117   0000              	EXTERN ___uint2fs
118   0000              	EXTERN ___uint2fs_callee
119   0000              	EXTERN ___ulong2fs
120   0000              	EXTERN ___ulong2fs_callee
121   0000              	EXTERN ___ulonglong2fs
122   0000              	EXTERN ___ulonglong2fs_callee
123   0000              	EXTERN ____sdcc_2_copy_src_mhl_dst_deix
124   0000              	EXTERN ____sdcc_2_copy_src_mhl_dst_bcix
125   0000              	EXTERN ____sdcc_4_copy_src_mhl_dst_deix
126   0000              	EXTERN ____sdcc_4_copy_src_mhl_dst_bcix
127   0000              	EXTERN ____sdcc_4_copy_src_mhl_dst_mbc
128   0000              	EXTERN ____sdcc_4_ldi_nosave_bc
129   0000              	EXTERN ____sdcc_4_ldi_save_bc
130   0000              	EXTERN ____sdcc_4_push_hlix
131   0000              	EXTERN ____sdcc_4_push_mhl
132   0000              	EXTERN ____sdcc_lib_setmem_hl
133   0000              	EXTERN ____sdcc_ll_add_de_bc_hl
134   0000              	EXTERN ____sdcc_ll_add_de_bc_hlix
135   0000              	EXTERN ____sdcc_ll_add_de_hlix_bc
136   0000              	EXTERN ____sdcc_ll_add_de_hlix_bcix
137   0000              	EXTERN ____sdcc_ll_add_deix_bc_hl
138   0000              	EXTERN ____sdcc_ll_add_deix_hlix
139   0000              	EXTERN ____sdcc_ll_add_hlix_bc_deix
140   0000              	EXTERN ____sdcc_ll_add_hlix_deix_bc
141   0000              	EXTERN ____sdcc_ll_add_hlix_deix_bcix
142   0000              	EXTERN ____sdcc_ll_asr_hlix_a
143   0000              	EXTERN ____sdcc_ll_asr_mbc_a
144   0000              	EXTERN ____sdcc_ll_copy_src_de_dst_hlix
145   0000              	EXTERN ____sdcc_ll_copy_src_de_dst_hlsp
146   0000              	EXTERN ____sdcc_ll_copy_src_deix_dst_hl
147   0000              	EXTERN ____sdcc_ll_copy_src_deix_dst_hlix
148   0000              	EXTERN ____sdcc_ll_copy_src_deixm_dst_hlsp
149   0000              	EXTERN ____sdcc_ll_copy_src_desp_dst_hlsp
150   0000              	EXTERN ____sdcc_ll_copy_src_hl_dst_de
151   0000              	EXTERN ____sdcc_ll_copy_src_hlsp_dst_de
152   0000              	EXTERN ____sdcc_ll_copy_src_hlsp_dst_deixm
153   0000              	EXTERN ____sdcc_ll_lsl_hlix_a
154   0000              	EXTERN ____sdcc_ll_lsl_mbc_a
155   0000              	EXTERN ____sdcc_ll_lsr_hlix_a
156   0000              	EXTERN ____sdcc_ll_lsr_mbc_a
157   0000              	EXTERN ____sdcc_ll_push_hlix
158   0000              	EXTERN ____sdcc_ll_push_mhl
159   0000              	EXTERN ____sdcc_ll_sub_de_bc_hl
160   0000              	EXTERN ____sdcc_ll_sub_de_bc_hlix
161   0000              	EXTERN ____sdcc_ll_sub_de_hlix_bc
162   0000              	EXTERN ____sdcc_ll_sub_de_hlix_bcix
163   0000              	EXTERN ____sdcc_ll_sub_deix_bc_hl
164   0000              	EXTERN ____sdcc_ll_sub_deix_hlix
165   0000              	EXTERN ____sdcc_ll_sub_hlix_bc_deix
166   0000              	EXTERN ____sdcc_ll_sub_hlix_deix_bc
167   0000              	EXTERN ____sdcc_ll_sub_hlix_deix_bcix
168   0000              	EXTERN ____sdcc_load_debc_deix
169   0000              	EXTERN ____sdcc_load_dehl_deix
170   0000              	EXTERN ____sdcc_load_debc_mhl
171   0000              	EXTERN ____sdcc_load_hlde_mhl
172   0000              	EXTERN ____sdcc_store_dehl_bcix
173   0000              	EXTERN ____sdcc_store_debc_hlix
174   0000              	EXTERN ____sdcc_store_debc_mhl
175   0000              	EXTERN ____sdcc_cpu_pop_ei
176   0000              	EXTERN ____sdcc_cpu_pop_ei_jp
177   0000              	EXTERN ____sdcc_cpu_push_di
178   0000              	EXTERN ____sdcc_outi
179   0000              	EXTERN ____sdcc_outi_128
180   0000              	EXTERN ____sdcc_outi_256
181   0000              	EXTERN ____sdcc_ldi
182   0000              	EXTERN ____sdcc_ldi_128
183   0000              	EXTERN ____sdcc_ldi_256
184   0000              
185   0000              ;--------------------------------------------------------
186   0000              ; Public variables in this module
187   0000              ;--------------------------------------------------------
188   0000              	GLOBAL _player_check_map
189   0000              	GLOBAL _player_init
190   0000              	GLOBAL _player_check_input
191   0000              	GLOBAL _player_collision
192   0000              	GLOBAL _player_kill
193   0000              	GLOBAL _player_restart
194   0000              	GLOBAL _player_lost_life
195   0000              	GLOBAL _player_turn
196   0000              	GLOBAL _player_move
197   0000              	GLOBAL _player_check_stairs_down
198   0000              	GLOBAL _player_check_stairs
199   0000              	GLOBAL _player_tile
200   0000              	GLOBAL _player_move_input
201   0000              	GLOBAL _player_fire
202   0000              	GLOBAL _player_pick_item
203   0000              	GLOBAL _player_hit_platform
204   0000              	GLOBAL _player_hit_platform_clear
205   0000              	GLOBAL _player_score_add
206   0000              	GLOBAL _player_check_floor
207   0000              	GLOBAL _player_move_jump
208   0000              	GLOBAL _player_open_door
209   0000              ;--------------------------------------------------------
210   0000              ; Externals used
211   0000              ;--------------------------------------------------------
212   0000              	GLOBAL _ulltoa_callee
213   0000              	GLOBAL _ulltoa
214   0000              	GLOBAL _strtoull_callee
215   0000              	GLOBAL _strtoull
216   0000              	GLOBAL _strtoll_callee
217   0000              	GLOBAL _strtoll
218   0000              	GLOBAL _lltoa_callee
219   0000              	GLOBAL _lltoa
220   0000              	GLOBAL _llabs_callee
221   0000              	GLOBAL _llabs
222   0000              	GLOBAL __lldivu__callee
223   0000              	GLOBAL __lldivu_
224   0000              	GLOBAL __lldiv__callee
225   0000              	GLOBAL __lldiv_
226   0000              	GLOBAL _atoll_callee
227   0000              	GLOBAL _atoll
228   0000              	GLOBAL _realloc_unlocked_callee
229   0000              	GLOBAL _realloc_unlocked
230   0000              	GLOBAL _malloc_unlocked_fastcall
231   0000              	GLOBAL _malloc_unlocked
232   0000              	GLOBAL _free_unlocked_fastcall
233   0000              	GLOBAL _free_unlocked
234   0000              	GLOBAL _calloc_unlocked_callee
235   0000              	GLOBAL _calloc_unlocked
236   0000              	GLOBAL _aligned_alloc_unlocked_callee
237   0000              	GLOBAL _aligned_alloc_unlocked
238   0000              	GLOBAL _realloc_callee
239   0000              	GLOBAL _realloc
240   0000              	GLOBAL _malloc_fastcall
241   0000              	GLOBAL _malloc
242   0000              	GLOBAL _free_fastcall
243   0000              	GLOBAL _free
244   0000              	GLOBAL _calloc_callee
245   0000              	GLOBAL _calloc
246   0000              	GLOBAL _aligned_alloc_callee
247   0000              	GLOBAL _aligned_alloc
248   0000              	GLOBAL _utoa_callee
249   0000              	GLOBAL _utoa
250   0000              	GLOBAL _ultoa_callee
251   0000              	GLOBAL _ultoa
252   0000              	GLOBAL _system_fastcall
253   0000              	GLOBAL _system
254   0000              	GLOBAL _strtoul_callee
255   0000              	GLOBAL _strtoul
256   0000              	GLOBAL _strtol_callee
257   0000              	GLOBAL _strtol
258   0000              	GLOBAL _strtof_callee
259   0000              	GLOBAL _strtof
260   0000              	GLOBAL _strtod_callee
261   0000              	GLOBAL _strtod
262   0000              	GLOBAL _srand_fastcall
263   0000              	GLOBAL _srand
264   0000              	GLOBAL _rand
265   0000              	GLOBAL _quick_exit_fastcall
266   0000              	GLOBAL _quick_exit
267   0000              	GLOBAL _qsort_callee
268   0000              	GLOBAL _qsort
269   0000              	GLOBAL _ltoa_callee
270   0000              	GLOBAL _ltoa
271   0000              	GLOBAL _labs_fastcall
272   0000              	GLOBAL _labs
273   0000              	GLOBAL _itoa_callee
274   0000              	GLOBAL _itoa
275   0000              	GLOBAL _ftoh_callee
276   0000              	GLOBAL _ftoh
277   0000              	GLOBAL _ftog_callee
278   0000              	GLOBAL _ftog
279   0000              	GLOBAL _ftoe_callee
280   0000              	GLOBAL _ftoe
281   0000              	GLOBAL _ftoa_callee
282   0000              	GLOBAL _ftoa
283   0000              	GLOBAL _exit_fastcall
284   0000              	GLOBAL _exit
285   0000              	GLOBAL _dtoh_callee
286   0000              	GLOBAL _dtoh
287   0000              	GLOBAL _dtog_callee
288   0000              	GLOBAL _dtog
289   0000              	GLOBAL _dtoe_callee
290   0000              	GLOBAL _dtoe
291   0000              	GLOBAL _dtoa_callee
292   0000              	GLOBAL _dtoa
293   0000              	GLOBAL _bsearch_callee
294   0000              	GLOBAL _bsearch
295   0000              	GLOBAL _atol_fastcall
296   0000              	GLOBAL _atol
297   0000              	GLOBAL _atoi_fastcall
298   0000              	GLOBAL _atoi
299   0000              	GLOBAL _atof_fastcall
300   0000              	GLOBAL _atof
301   0000              	GLOBAL _atexit_fastcall
302   0000              	GLOBAL _atexit
303   0000              	GLOBAL _at_quick_exit_fastcall
304   0000              	GLOBAL _at_quick_exit
305   0000              	GLOBAL _abs_fastcall
306   0000              	GLOBAL _abs
307   0000              	GLOBAL _abort
308   0000              	GLOBAL __strtou__callee
309   0000              	GLOBAL __strtou_
310   0000              	GLOBAL __strtoi__callee
311   0000              	GLOBAL __strtoi_
312   0000              	GLOBAL __random_uniform_xor_8__fastcall
313   0000              	GLOBAL __random_uniform_xor_8_
314   0000              	GLOBAL __random_uniform_xor_32__fastcall
315   0000              	GLOBAL __random_uniform_xor_32_
316   0000              	GLOBAL __random_uniform_cmwc_8__fastcall
317   0000              	GLOBAL __random_uniform_cmwc_8_
318   0000              	GLOBAL __shellsort__callee
319   0000              	GLOBAL __shellsort_
320   0000              	GLOBAL __quicksort__callee
321   0000              	GLOBAL __quicksort_
322   0000              	GLOBAL __insertion_sort__callee
323   0000              	GLOBAL __insertion_sort_
324   0000              	GLOBAL __ldivu__callee
325   0000              	GLOBAL __ldivu_
326   0000              	GLOBAL __ldiv__callee
327   0000              	GLOBAL __ldiv_
328   0000              	GLOBAL __divu__callee
329   0000              	GLOBAL __divu_
330   0000              	GLOBAL __div__callee
331   0000              	GLOBAL __div_
332   0000              	GLOBAL _NIRVANAP_drawTW_raw_callee
333   0000              	GLOBAL _NIRVANAP_drawTW_raw
334   0000              	GLOBAL _NIRVANAP_drawTW_callee
335   0000              	GLOBAL _NIRVANAP_drawTW
336   0000              	GLOBAL _NIRVANAP_drawW_raw_callee
337   0000              	GLOBAL _NIRVANAP_drawW_raw
338   0000              	GLOBAL _NIRVANAP_drawW_callee
339   0000              	GLOBAL _NIRVANAP_drawW
340   0000              	GLOBAL _NIRVANAP_spriteT_callee
341   0000              	GLOBAL _NIRVANAP_spriteT
342   0000              	GLOBAL _NIRVANAP_fillC_callee
343   0000              	GLOBAL _NIRVANAP_fillC
344   0000              	GLOBAL _NIRVANAP_readC_callee
345   0000              	GLOBAL _NIRVANAP_readC
346   0000              	GLOBAL _NIRVANAP_paintC_callee
347   0000              	GLOBAL _NIRVANAP_paintC
348   0000              	GLOBAL _NIRVANAP_printC_callee
349   0000              	GLOBAL _NIRVANAP_printC
350   0000              	GLOBAL _NIRVANAP_fillT_raw_callee
351   0000              	GLOBAL _NIRVANAP_fillT_raw
352   0000              	GLOBAL _NIRVANAP_fillT_callee
353   0000              	GLOBAL _NIRVANAP_fillT
354   0000              	GLOBAL _NIRVANAP_drawT_raw_callee
355   0000              	GLOBAL _NIRVANAP_drawT_raw
356   0000              	GLOBAL _NIRVANAP_drawT_callee
357   0000              	GLOBAL _NIRVANAP_drawT
358   0000              	GLOBAL _NIRVANAP_stop
359   0000              	GLOBAL _NIRVANAP_start
360   0000              	GLOBAL _debug3
361   0000              	GLOBAL _debug2
362   0000              	GLOBAL _debug
363   0000              	GLOBAL _zx_print_str
364   0000              	GLOBAL _zx_print_int
365   0000              	GLOBAL _zx_print_chr
366   0000              	GLOBAL _zx_print_bonus_time
367   0000              	GLOBAL _zx_isr
368   0000              	GLOBAL _z80_otdr_callee
369   0000              	GLOBAL _z80_otdr
370   0000              	GLOBAL _z80_otir_callee
371   0000              	GLOBAL _z80_otir
372   0000              	GLOBAL _z80_outp_callee
373   0000              	GLOBAL _z80_outp
374   0000              	GLOBAL _z80_indr_callee
375   0000              	GLOBAL _z80_indr
376   0000              	GLOBAL _z80_inir_callee
377   0000              	GLOBAL _z80_inir
378   0000              	GLOBAL _z80_inp_fastcall
379   0000              	GLOBAL _z80_inp
380   0000              	GLOBAL _z80_set_int_state_fastcall
381   0000              	GLOBAL _z80_set_int_state
382   0000              	GLOBAL _z80_get_int_state
383   0000              	GLOBAL _z80_delay_tstate_fastcall
384   0000              	GLOBAL _z80_delay_tstate
385   0000              	GLOBAL _z80_delay_ms_fastcall
386   0000              	GLOBAL _z80_delay_ms
387   0000              	GLOBAL _im2_remove_generic_callback_callee
388   0000              	GLOBAL _im2_remove_generic_callback
389   0000              	GLOBAL _im2_prepend_generic_callback_callee
390   0000              	GLOBAL _im2_prepend_generic_callback
391   0000              	GLOBAL _im2_append_generic_callback_callee
392   0000              	GLOBAL _im2_append_generic_callback
393   0000              	GLOBAL _im2_create_generic_isr_8080_callee
394   0000              	GLOBAL _im2_create_generic_isr_8080
395   0000              	GLOBAL _im2_create_generic_isr_callee
396   0000              	GLOBAL _im2_create_generic_isr
397   0000              	GLOBAL _im2_install_isr_callee
398   0000              	GLOBAL _im2_install_isr
399   0000              	GLOBAL _im2_init_fastcall
400   0000              	GLOBAL _im2_init
401   0000              	GLOBAL _intrinsic_swap_word_32_fastcall
402   0000              	GLOBAL _intrinsic_swap_word_32
403   0000              	GLOBAL _intrinsic_swap_endian_32_fastcall
404   0000              	GLOBAL _intrinsic_swap_endian_32
405   0000              	GLOBAL _intrinsic_swap_endian_16_fastcall
406   0000              	GLOBAL _intrinsic_swap_endian_16
407   0000              	GLOBAL _intrinsic_return_de
408   0000              	GLOBAL _intrinsic_return_bc
409   0000              	GLOBAL _intrinsic_exx
410   0000              	GLOBAL _intrinsic_ex_de_hl
411   0000              	GLOBAL _intrinsic_nop
412   0000              	GLOBAL _intrinsic_im_2
413   0000              	GLOBAL _intrinsic_im_1
414   0000              	GLOBAL _intrinsic_im_0
415   0000              	GLOBAL _intrinsic_retn
416   0000              	GLOBAL _intrinsic_reti
417   0000              	GLOBAL _intrinsic_halt
418   0000              	GLOBAL _intrinsic_ei
419   0000              	GLOBAL _intrinsic_di
420   0000              	GLOBAL _intrinsic_stub
421   0000              	GLOBAL _intrinsic_outi
422   0000              	GLOBAL _intrinsic_ldi
423   0000              	GLOBAL _zx_pattern_fill_callee
424   0000              	GLOBAL _zx_pattern_fill
425   0000              	GLOBAL _zx_saddrpup_fastcall
426   0000              	GLOBAL _zx_saddrpup
427   0000              	GLOBAL _zx_saddrpright_callee
428   0000              	GLOBAL _zx_saddrpright
429   0000              	GLOBAL _zx_saddrpleft_callee
430   0000              	GLOBAL _zx_saddrpleft
431   0000              	GLOBAL _zx_saddrpdown_fastcall
432   0000              	GLOBAL _zx_saddrpdown
433   0000              	GLOBAL _zx_saddrcup_fastcall
434   0000              	GLOBAL _zx_saddrcup
435   0000              	GLOBAL _zx_saddrcright_fastcall
436   0000              	GLOBAL _zx_saddrcright
437   0000              	GLOBAL _zx_saddrcleft_fastcall
438   0000              	GLOBAL _zx_saddrcleft
439   0000              	GLOBAL _zx_saddrcdown_fastcall
440   0000              	GLOBAL _zx_saddrcdown
441   0000              	GLOBAL _zx_saddr2py_fastcall
442   0000              	GLOBAL _zx_saddr2py
443   0000              	GLOBAL _zx_saddr2px_fastcall
444   0000              	GLOBAL _zx_saddr2px
445   0000              	GLOBAL _zx_saddr2cy_fastcall
446   0000              	GLOBAL _zx_saddr2cy
447   0000              	GLOBAL _zx_saddr2cx_fastcall
448   0000              	GLOBAL _zx_saddr2cx
449   0000              	GLOBAL _zx_saddr2aaddr_fastcall
450   0000              	GLOBAL _zx_saddr2aaddr
451   0000              	GLOBAL _zx_py2saddr_fastcall
452   0000              	GLOBAL _zx_py2saddr
453   0000              	GLOBAL _zx_py2aaddr_fastcall
454   0000              	GLOBAL _zx_py2aaddr
455   0000              	GLOBAL _zx_pxy2saddr_callee
456   0000              	GLOBAL _zx_pxy2saddr
457   0000              	GLOBAL _zx_pxy2aaddr_callee
458   0000              	GLOBAL _zx_pxy2aaddr
459   0000              	GLOBAL _zx_px2bitmask_fastcall
460   0000              	GLOBAL _zx_px2bitmask
461   0000              	GLOBAL _zx_cy2saddr_fastcall
462   0000              	GLOBAL _zx_cy2saddr
463   0000              	GLOBAL _zx_cy2aaddr_fastcall
464   0000              	GLOBAL _zx_cy2aaddr
465   0000              	GLOBAL _zx_cxy2saddr_callee
466   0000              	GLOBAL _zx_cxy2saddr
467   0000              	GLOBAL _zx_cxy2aaddr_callee
468   0000              	GLOBAL _zx_cxy2aaddr
469   0000              	GLOBAL _zx_bitmask2px_fastcall
470   0000              	GLOBAL _zx_bitmask2px
471   0000              	GLOBAL _zx_aaddrcup_fastcall
472   0000              	GLOBAL _zx_aaddrcup
473   0000              	GLOBAL _zx_aaddrcright_fastcall
474   0000              	GLOBAL _zx_aaddrcright
475   0000              	GLOBAL _zx_aaddrcleft_fastcall
476   0000              	GLOBAL _zx_aaddrcleft
477   0000              	GLOBAL _zx_aaddrcdown_fastcall
478   0000              	GLOBAL _zx_aaddrcdown
479   0000              	GLOBAL _zx_aaddr2saddr_fastcall
480   0000              	GLOBAL _zx_aaddr2saddr
481   0000              	GLOBAL _zx_aaddr2py_fastcall
482   0000              	GLOBAL _zx_aaddr2py
483   0000              	GLOBAL _zx_aaddr2px_fastcall
484   0000              	GLOBAL _zx_aaddr2px
485   0000              	GLOBAL _zx_aaddr2cy_fastcall
486   0000              	GLOBAL _zx_aaddr2cy
487   0000              	GLOBAL _zx_aaddr2cx_fastcall
488   0000              	GLOBAL _zx_aaddr2cx
489   0000              	GLOBAL _zx_visit_wc_pix_callee
490   0000              	GLOBAL _zx_visit_wc_pix
491   0000              	GLOBAL _zx_visit_wc_attr_callee
492   0000              	GLOBAL _zx_visit_wc_attr
493   0000              	GLOBAL _zx_scroll_wc_up_pix_callee
494   0000              	GLOBAL _zx_scroll_wc_up_pix
495   0000              	GLOBAL _zx_scroll_wc_up_attr_callee
496   0000              	GLOBAL _zx_scroll_wc_up_attr
497   0000              	GLOBAL _zx_scroll_wc_up_callee
498   0000              	GLOBAL _zx_scroll_wc_up
499   0000              	GLOBAL _zx_scroll_up_pix_callee
500   0000              	GLOBAL _zx_scroll_up_pix
501   0000              	GLOBAL _zx_scroll_up_attr_callee
502   0000              	GLOBAL _zx_scroll_up_attr
503   0000              	GLOBAL _zx_scroll_up_callee
504   0000              	GLOBAL _zx_scroll_up
505   0000              	GLOBAL _zx_cls_wc_pix_callee
506   0000              	GLOBAL _zx_cls_wc_pix
507   0000              	GLOBAL _zx_cls_wc_attr_callee
508   0000              	GLOBAL _zx_cls_wc_attr
509   0000              	GLOBAL _zx_cls_wc_callee
510   0000              	GLOBAL _zx_cls_wc
511   0000              	GLOBAL _zx_cls_pix_fastcall
512   0000              	GLOBAL _zx_cls_pix
513   0000              	GLOBAL _zx_cls_attr_fastcall
514   0000              	GLOBAL _zx_cls_attr
515   0000              	GLOBAL _zx_cls_fastcall
516   0000              	GLOBAL _zx_cls
517   0000              	GLOBAL _zx_border_fastcall
518   0000              	GLOBAL _zx_border
519   0000              	GLOBAL _spr_init_anim_bullets
520   0000              	GLOBAL _spr_turn_horizontal
521   0000              	GLOBAL _spr_play_bullets
522   0000              	GLOBAL _spr_play_anim
523   0000              	GLOBAL _spr_add_anim
524   0000              	GLOBAL _spr_page_map
525   0000              	GLOBAL _spr_page_right
526   0000              	GLOBAL _spr_page_left
527   0000              	GLOBAL _spr_tile_paint
528   0000              	GLOBAL _spr_calc_hor
529   0000              	GLOBAL _spr_draw_row
530   0000              	GLOBAL _spr_draw_index
531   0000              	GLOBAL _spr_draw_clear
532   0000              	GLOBAL _spr_brick_anim
533   0000              	GLOBAL _spr_back_repaint
534   0000              	GLOBAL _spr_tile
535   0000              	GLOBAL _spr_destroy
536   0000              	GLOBAL _spr_tile_dir
537   0000              	GLOBAL _spr_redraw
538   0000              	GLOBAL _spr_move_left
539   0000              	GLOBAL _spr_move_right
540   0000              	GLOBAL _spr_move_horizontal
541   0000              	GLOBAL _spr_move_down
542   0000              	GLOBAL _spr_move_up
543   0000              	GLOBAL _spr_calc_index
544   0000              	GLOBAL _spr_chktime
545   0000              	GLOBAL _sound_hit_brick
546   0000              	GLOBAL _sound_hit_enemy
547   0000              	GLOBAL _sound_kill
548   0000              	GLOBAL _sound_enter_enemy
549   0000              	GLOBAL _sound_coin
550   0000              	GLOBAL _sound_jump
551   0000              	GLOBAL _sound_slide
552   0000              	GLOBAL _player_player_hit_pow
553   0000              	GLOBAL _game_joystick_set_menu
554   0000              	GLOBAL _game_joystick_set
555   0000              	GLOBAL _game_joystick_change
556   0000              	GLOBAL _game_print_header
557   0000              	GLOBAL _game_end
558   0000              	GLOBAL _game_phase_print_score_back
559   0000              	GLOBAL _game_check_time
560   0000              	GLOBAL _game_rotate_attrib
561   0000              	GLOBAL _game_colour_message
562   0000              	GLOBAL _game_paint_attrib_lin_h
563   0000              	GLOBAL _game_paint_attrib_lin
564   0000              	GLOBAL _game_paint_attrib
565   0000              	GLOBAL _game_print_score
566   0000              	GLOBAL _game_unfreeze_all
567   0000              	GLOBAL _game_freeze_all
568   0000              	GLOBAL _game_freeze
569   0000              	GLOBAL _game_enemy_add_get_index
570   0000              	GLOBAL _game_check_cell
571   0000              	GLOBAL _game_check_map
572   0000              	GLOBAL _game_loop
573   0000              	GLOBAL _game_phase_init
574   0000              	GLOBAL _game_start_timer
575   0000              	GLOBAL _game_tick
576   0000              	GLOBAL _game_print_lives
577   0000              	GLOBAL _game_print_footer
578   0000              	GLOBAL _game_fill_row
579   0000              	GLOBAL _game_draw_screen
580   0000              	GLOBAL _enemy_avoid_edge
581   0000              	GLOBAL _enemy_kill
582   0000              	GLOBAL _enemy_init
583   0000              	GLOBAL _enemy_move
584   0000              	GLOBAL _enemy_turn
585   0000              	GLOBAL _enemy_hit
586   0000              	GLOBAL _enemy_coin1
587   0000              	GLOBAL _enemy_static
588   0000              	GLOBAL _enemy_walk
589   0000              	GLOBAL _enemy_vertical
590   0000              	GLOBAL _ay_fx_play
591   0000              	GLOBAL _ay_midi_play
592   0000              	GLOBAL _ay_is_playing
593   0000              	GLOBAL _ay_reset
594   0000              	GLOBAL _test_func
595   0000              	GLOBAL _test_proc
596   0000              	GLOBAL _in_mouse_kempston_wheel_delta
597   0000              	GLOBAL _in_mouse_kempston_wheel
598   0000              	GLOBAL _in_mouse_kempston_callee
599   0000              	GLOBAL _in_mouse_kempston
600   0000              	GLOBAL _in_mouse_kempston_setpos_callee
601   0000              	GLOBAL _in_mouse_kempston_setpos
602   0000              	GLOBAL _in_mouse_kempston_reset
603   0000              	GLOBAL _in_mouse_kempston_init
604   0000              	GLOBAL _in_mouse_amx_wheel_delta
605   0000              	GLOBAL _in_mouse_amx_wheel
606   0000              	GLOBAL _in_mouse_amx_callee
607   0000              	GLOBAL _in_mouse_amx
608   0000              	GLOBAL _in_mouse_amx_setpos_callee
609   0000              	GLOBAL _in_mouse_amx_setpos
610   0000              	GLOBAL _in_mouse_amx_reset
611   0000              	GLOBAL _in_mouse_amx_init_callee
612   0000              	GLOBAL _in_mouse_amx_init
613   0000              	GLOBAL _in_stick_sinclair2
614   0000              	GLOBAL _in_stick_sinclair1
615   0000              	GLOBAL _in_stick_kempston
616   0000              	GLOBAL _in_stick_fuller
617   0000              	GLOBAL _in_stick_cursor
618   0000              	GLOBAL _in_stick_keyboard_fastcall
619   0000              	GLOBAL _in_stick_keyboard
620   0000              	GLOBAL _in_wait_nokey
621   0000              	GLOBAL _in_wait_key
622   0000              	GLOBAL _in_test_key
623   0000              	GLOBAL _in_pause_fastcall
624   0000              	GLOBAL _in_pause
625   0000              	GLOBAL _in_key_scancode_fastcall
626   0000              	GLOBAL _in_key_scancode
627   0000              	GLOBAL _in_key_pressed_fastcall
628   0000              	GLOBAL _in_key_pressed
629   0000              	GLOBAL _in_inkey
630   0000              	GLOBAL _NIRVANAP_CHAR_TABLE
631   0000              	GLOBAL _NIRVANAP_WIDE_IMAGES
632   0000              	GLOBAL _NIRVANAP_TILE_IMAGES
633   0000              	GLOBAL _NIRVANAP_HOLE
634   0000              	GLOBAL _NIRVANAP_ISR_HOOK
635   0000              	GLOBAL _draw_count
636   0000              	GLOBAL _g_player_hit_right
637   0000              	GLOBAL _g_player_hit_left
638   0000              	GLOBAL _joynames
639   0000              	GLOBAL _initials
640   0000              	GLOBAL _bullet_count
641   0000              	GLOBAL _bullet_frames
642   0000              	GLOBAL _bullet_colint
643   0000              	GLOBAL _bullet_dir
644   0000              	GLOBAL _bullet_tile
645   0000              	GLOBAL _bullet_col
646   0000              	GLOBAL _bullet_lin
647   0000              	GLOBAL _anim_count
648   0000              	GLOBAL _anim_end
649   0000              	GLOBAL _anim_int
650   0000              	GLOBAL _anim_tile
651   0000              	GLOBAL _anim_col
652   0000              	GLOBAL _anim_lin
653   0000              	GLOBAL _phase_curr
654   0000              	GLOBAL _map_heigth
655   0000              	GLOBAL _map_width
656   0000              	GLOBAL _scr_curr
657   0000              	GLOBAL _scr_7
658   0000              	GLOBAL _scr_6
659   0000              	GLOBAL _scr_5
660   0000              	GLOBAL _scr_4
661   0000              	GLOBAL _scr_3
662   0000              	GLOBAL _scr_2
663   0000              	GLOBAL _scr_1
664   0000              	GLOBAL _scr_0
665   0000              	GLOBAL _scr_obj
666   0000              	GLOBAL _scr_map
667   0000              	GLOBAL _sprite_speed_alt
668   0000              	GLOBAL _sprite_frames
669   0000              	GLOBAL _sprite_speed
670   0000              	GLOBAL _screen_ink
671   0000              	GLOBAL _screen_paper
672   0000              	GLOBAL _player_over_stair
673   0000              	GLOBAL _game_menu_sel
674   0000              	GLOBAL _game_score_top
675   0000              	GLOBAL _player_lives
676   0000              	GLOBAL _game_over
677   0000              	GLOBAL _game_sound
678   0000              	GLOBAL _game_inmune
679   0000              	GLOBAL _game_god_mode
680   0000              	GLOBAL _game_two_player
681   0000              	GLOBAL _game_brick_tile
682   0000              	GLOBAL _sprite_curr_index
683   0000              	GLOBAL _spr_count
684   0000              	GLOBAL _bullet_time
685   0000              	GLOBAL _anim_time
686   0000              	GLOBAL _frame_time
687   0000              	GLOBAL _entry_time
688   0000              	GLOBAL _curr_time
689   0000              	GLOBAL _s_state
690   0000              	GLOBAL _attrib_hl
691   0000              	GLOBAL _attrib
692   0000              	GLOBAL _zx_val_asm
693   0000              	GLOBAL _enemies
694   0000              	GLOBAL _tmp_ui
695   0000              	GLOBAL _tmp_sc
696   0000              	GLOBAL _tmp_uc
697   0000              	GLOBAL _tmp1
698   0000              	GLOBAL _tmp0
699   0000              	GLOBAL _tmp
700   0000              	GLOBAL _index1
701   0000              	GLOBAL _index0
702   0000              	GLOBAL _loop_count
703   0000              	GLOBAL _s_col1
704   0000              	GLOBAL _s_col0
705   0000              	GLOBAL _s_lin1
706   0000              	GLOBAL _s_lin0
707   0000              	GLOBAL _s_tile1
708   0000              	GLOBAL _s_tile0
709   0000              	GLOBAL _player_hit_count
710   0000              	GLOBAL _sprite_horizontal_check
711   0000              	GLOBAL _sprite_on_air
712   0000              	GLOBAL _sprite
713   0000              	GLOBAL _game_gravity
714   0000              	GLOBAL _player_keys
715   0000              	GLOBAL _player_vel_inc
716   0000              	GLOBAL _player_vel_y1
717   0000              	GLOBAL _player_vel_y0
718   0000              	GLOBAL _player_vel_y
719   0000              	GLOBAL _player_vel_x
720   0000              	GLOBAL _player_joy
721   0000              	GLOBAL _player_score
722   0000              	GLOBAL _last_time
723   0000              	GLOBAL _player_slide
724   0000              	GLOBAL _spr_timer
725   0000              	GLOBAL _jump_lin
726   0000              	GLOBAL _player_hit_col
727   0000              	GLOBAL _player_hit_lin
728   0000              	GLOBAL _colint
729   0000              	GLOBAL _col
730   0000              	GLOBAL _lin
731   0000              	GLOBAL _tile
732   0000              	GLOBAL _state_a
733   0000              	GLOBAL _state
734   0000              	GLOBAL _class
735   0000              	GLOBAL _tbuffer
736   0000              	GLOBAL _dirs
737   0000              	GLOBAL _k1
738   0000              	GLOBAL _joyfunc1
739   0000              	GLOBAL _btiles
740   0000              	GLOBAL _spec128
741   0000              	GLOBAL _GLOBAL_ZX_PORT_7FFD
742   0000              	GLOBAL _GLOBAL_ZX_PORT_1FFD
743   0000              	GLOBAL _GLOBAL_ZX_PORT_FE
744   0000              	GLOBAL _ay_effect_20
745   0000              	GLOBAL _ay_effect_19
746   0000              	GLOBAL _ay_effect_18
747   0000              	GLOBAL _ay_effect_17
748   0000              	GLOBAL _ay_effect_16
749   0000              	GLOBAL _ay_effect_15
750   0000              	GLOBAL _ay_effect_14
751   0000              	GLOBAL _ay_effect_13
752   0000              	GLOBAL _ay_effect_12
753   0000              	GLOBAL _ay_effect_11
754   0000              	GLOBAL _ay_effect_10
755   0000              	GLOBAL _ay_effect_09
756   0000              	GLOBAL _ay_effect_08
757   0000              	GLOBAL _ay_effect_07
758   0000              	GLOBAL _ay_effect_06
759   0000              	GLOBAL _ay_effect_05
760   0000              	GLOBAL _ay_effect_04
761   0000              	GLOBAL _ay_effect_03
762   0000              	GLOBAL _ay_effect_02
763   0000              	GLOBAL _ay_effect_01
764   0000              	GLOBAL _pb_midi_phase_1
765   0000              	GLOBAL _pb_midi_title
766   0000              	GLOBAL _control_method
767   0000              ;--------------------------------------------------------
768   0000              ; special function registers
769   0000              ;--------------------------------------------------------
770   0000              defc _IO_FE	=	0x00fe
771   0000              defc _IO_1FFD	=	0x1ffd
772   0000              defc _IO_7FFD	=	0x7ffd
773   0000              ;--------------------------------------------------------
774   0000              ; ram data
775   0000              ;--------------------------------------------------------
776   0000              	SECTION bss_compiler
777   0000              ;--------------------------------------------------------
778   0000              ; ram data
779   0000              ;--------------------------------------------------------
780   0000              
781   0000              IF 0
782   0000              
783   0000              ; .area _INITIALIZED removed by z88dk
784   0000              
785   0000              
786   0000              ENDIF
787   0000              
788   0000              ;--------------------------------------------------------
789   0000              ; absolute external ram data
790   0000              ;--------------------------------------------------------
791   0000              	SECTION IGNORE
792   0000              ;--------------------------------------------------------
793   0000              ; global & static initialisations
794   0000              ;--------------------------------------------------------
795   0000              	SECTION code_crt_init
796   0000              ;--------------------------------------------------------
797   0000              ; Home
798   0000              ;--------------------------------------------------------
799   0000              	SECTION IGNORE
800   0000              ;--------------------------------------------------------
801   0000              ; code
802   0000              ;--------------------------------------------------------
803   0000              	SECTION code_compiler
804   0000              ;	---------------------------------
805   0000              ; Function player_init
806   0000              ; ---------------------------------
807   0000              _player_init:
808   0000  CD 00 00    	call	___sdcc_enter_ix
809   0003  F5          	push	af
810   0004  3E 00       	ld	a, +((_class) & 0xFF)
811   0006  DD 86 04    	add	a,(ix+4)
812   0009  4F          	ld	c, a
813   000A  3E 00       	ld	a, +((_class) / 256)
814   000C  CE 00       	adc	a,0x00
815   000E  47          	ld	b, a
816   000F  3E 10       	ld	a,0x10
817   0011  02          	ld	(bc), a
818   0012  3E 00       	ld	a, +((_tile) & 0xFF)
819   0014  DD 86 04    	add	a,(ix+4)
820   0017  4F          	ld	c, a
821   0018  3E 00       	ld	a, +((_tile) / 256)
822   001A  CE 00       	adc	a,0x00
823   001C  47          	ld	b, a
824   001D  DD 7E 07    	ld	a,(ix+7)
825   0020  02          	ld	(bc), a
826   0021  3E 00       	ld	a, +((_lin) & 0xFF)
827   0023  DD 86 04    	add	a,(ix+4)
828   0026  4F          	ld	c, a
829   0027  3E 00       	ld	a, +((_lin) / 256)
830   0029  CE 00       	adc	a,0x00
831   002B  47          	ld	b, a
832   002C  DD 7E 05    	ld	a,(ix+5)
833   002F  02          	ld	(bc), a
834   0030  3E 00       	ld	a, +((_col) & 0xFF)
835   0032  DD 86 04    	add	a,(ix+4)
836   0035  4F          	ld	c, a
837   0036  3E 00       	ld	a, +((_col) / 256)
838   0038  CE 00       	adc	a,0x00
839   003A  47          	ld	b, a
840   003B  DD 7E 06    	ld	a,(ix+6)
841   003E  02          	ld	(bc), a
842   003F  3E 00       	ld	a, +((_colint) & 0xFF)
843   0041  DD 86 04    	add	a,(ix+4)
844   0044  4F          	ld	c, a
845   0045  3E 00       	ld	a, +((_colint) / 256)
846   0047  CE 00       	adc	a,0x00
847   0049  47          	ld	b, a
848   004A  AF          	xor	a, a
849   004B  02          	ld	(bc), a
850   004C  3E 00       	ld	a, +((_state) & 0xFF)
851   004E  DD 86 04    	add	a,(ix+4)
852   0051  4F          	ld	c, a
853   0052  3E 00       	ld	a, +((_state) / 256)
854   0054  CE 00       	adc	a,0x00
855   0056  47          	ld	b, a
856   0057  AF          	xor	a, a
857   0058  02          	ld	(bc), a
858   0059  3E 00       	ld	a, +((_state_a) & 0xFF)
859   005B  DD 86 04    	add	a,(ix+4)
860   005E  4F          	ld	c, a
861   005F  3E 00       	ld	a, +((_state_a) / 256)
862   0061  CE 00       	adc	a,0x00
863   0063  47          	ld	b, a
864   0064  AF          	xor	a, a
865   0065  02          	ld	(bc), a
866   0066  3E 00       	ld	a, +((_jump_lin) & 0xFF)
867   0068  DD 86 04    	add	a,(ix+4)
868   006B  5F          	ld	e, a
869   006C  3E 00       	ld	a, +((_jump_lin) / 256)
870   006E  CE 00       	adc	a,0x00
871   0070  57          	ld	d, a
872   0071  DD 7E 05    	ld	a,(ix+5)
873   0074  12          	ld	(de), a
874   0075  DD 6E 04    	ld	l,(ix+4)
875   0078  26 00       	ld	h,0x00
876   007A  29          	add	hl,hl
877   007B  11 00 00    	ld	de,_last_time
878   007E  19          	add	hl, de
879   007F  E3          	ex	(sp), hl
880   0080  E1          	pop	hl
881   0081  ED 5B 00 00 	ld	de,(_curr_time)
882   0085  E5          	push	hl
883   0086  73          	ld	(hl), e
884   0087  23          	inc	hl
885   0088  72          	ld	(hl), d
886   0089  3E 00       	ld	a, +((_sprite_speed_alt) & 0xFF)
887   008B  DD 86 04    	add	a,(ix+4)
888   008E  5F          	ld	e, a
889   008F  3E 00       	ld	a, +((_sprite_speed_alt) / 256)
890   0091  CE 00       	adc	a,0x00
891   0093  57          	ld	d, a
892   0094  AF          	xor	a, a
893   0095  12          	ld	(de), a
894   0096  0A          	ld	a, (bc)
895   0097  F6 11       	or	a,+(0x01|0x10)
896   0099  02          	ld	(bc),a
897   009A  21 00 00    	ld	hl,_player_hit_col
898   009D  36 00       	ld	(hl),0x00
899   009F  21 00 00    	ld	hl,_player_hit_lin
900   00A2  36 00       	ld	(hl),0x00
901   00A4  21 00 00    	ld	hl,_player_slide
902   00A7  36 00       	ld	(hl),0x00
903   00A9  DD 66 06    	ld	h,(ix+6)
904   00AC  DD 6E 05    	ld	l,(ix+5)
905   00AF  E5          	push	hl
906   00B0  DD 66 07    	ld	h,(ix+7)
907   00B3  DD 6E 04    	ld	l,(ix+4)
908   00B6  E5          	push	hl
909   00B7  CD 00 00    	call	_NIRVANAP_spriteT_callee
910   00BA  F1          	pop	af
911   00BB  DD E1       	pop	ix
912   00BD  C9          	ret
913   00BE              	SECTION code_compiler
914   00BE              ;	---------------------------------
915   00BE              ; Function player_check_input
916   00BE              ; ---------------------------------
917   00BE              _player_check_input:
918   00BE  21 00 00    	ld	hl,_dirs
919   00C1  CB 56       	bit	2, (hl)
920   00C3  28 0C       	jr	Z,l_player_check_input_00102
921   00C5  21 00 00    	ld	hl,_dirs
922   00C8  CB 5E       	bit	3, (hl)
923   00CA  28 05       	jr	Z,l_player_check_input_00102
924   00CC  21 00 00    	ld	hl,_dirs
925   00CF  36 00       	ld	(hl),0x00
926   00D1              l_player_check_input_00102:
927   00D1  21 00 00    	ld	hl,_dirs
928   00D4  7E          	ld	a, (hl)
929   00D5  CB 07       	rlc	a
930   00D7  E6 01       	and	a,0x01
931   00D9  CB 47       	bit	0, a
932   00DB  20 1D       	jr	NZ,l_player_check_input_00107
933   00DD  CB 56       	bit	2, (hl)
934   00DF  20 19       	jr	NZ,l_player_check_input_00107
935   00E1  21 00 00    	ld	hl,_dirs
936   00E4  CB 5E       	bit	3, (hl)
937   00E6  20 12       	jr	NZ,l_player_check_input_00107
938   00E8  21 00 00    	ld	hl,_dirs
939   00EB  CB 46       	bit	0, (hl)
940   00ED  20 0B       	jr	NZ,l_player_check_input_00107
941   00EF  21 00 00    	ld	hl,_dirs
942   00F2  CB 4E       	bit	1, (hl)
943   00F4  20 04       	jr	NZ,l_player_check_input_00107
944   00F6  2E 00       	ld	l,0x00
945   00F8  18 02       	jr	l_player_check_input_00108
946   00FA              l_player_check_input_00107:
947   00FA  2E 01       	ld	l,0x01
948   00FC              l_player_check_input_00108:
949   00FC  C9          	ret
950   00FD              	SECTION code_compiler
951   00FD              ;	---------------------------------
952   00FD              ; Function player_collision
953   00FD              ; ---------------------------------
954   00FD              _player_collision:
955   00FD  21 00 00    	ld	hl,_sprite
956   0100  36 00       	ld	(hl),0x00
957   0102  3A 07 00    	ld	a,(_col + 7)
958   0105  32 00 00    	ld	(_s_col1),a
959   0108  3A 07 00    	ld	a,(_lin + 7)
960   010B  32 00 00    	ld	(_s_lin1),a
961   010E              l_player_collision_00107:
962   010E  21 00 00    	ld	hl,_sprite
963   0111  7E          	ld	a, (hl)
964   0112  D6 07       	sub	a,0x07
965   0114  30 66       	jr	NC,l_player_collision_00109
966   0116  3E 00       	ld	a, +((_class) & 0xFF)
967   0118  86          	add	a, (hl)
968   0119  4F          	ld	c, a
969   011A  3E 00       	ld	a, +((_class) / 256)
970   011C  CE 00       	adc	a,0x00
971   011E  47          	ld	b, a
972   011F  0A          	ld	a, (bc)
973   0120  B7          	or	a, a
974   0121  28 53       	jr	Z,l_player_collision_00106
975   0123  4E          	ld	c,(hl)
976   0124  06 00       	ld	b,0x00
977   0126  21 00 00    	ld	hl,_col
978   0129  09          	add	hl,bc
979   012A  4E          	ld	c, (hl)
980   012B  06 00       	ld	b,0x00
981   012D  3A 00 00    	ld	a,(_s_col1)
982   0130  5F          	ld	e,a
983   0131  16 00       	ld	d,0x00
984   0133  79          	ld	a, c
985   0134  93          	sub	a, e
986   0135  6F          	ld	l, a
987   0136  78          	ld	a, b
988   0137  9A          	sbc	a, d
989   0138  67          	ld	h, a
990   0139  CD 00 00    	call	_abs_fastcall
991   013C  7D          	ld	a,l
992   013D  D6 02       	sub	a,0x02
993   013F  7C          	ld	a,h
994   0140  17          	rla
995   0141  3F          	ccf
996   0142  1F          	rra
997   0143  DE 80       	sbc	a,0x80
998   0145  30 2F       	jr	NC,l_player_collision_00106
999   0147  2A 00 00    	ld	hl,(_sprite)
1000  014A  26 00       	ld	h,0x00
1001  014C  01 00 00    	ld	bc,_lin
1002  014F  09          	add	hl,bc
1003  0150  4E          	ld	c,(hl)
1004  0151  06 00       	ld	b,0x00
1005  0153  3A 00 00    	ld	a,(_s_lin1)
1006  0156  5F          	ld	e,a
1007  0157  16 00       	ld	d,0x00
1008  0159  79          	ld	a, c
1009  015A  93          	sub	a, e
1010  015B  6F          	ld	l, a
1011  015C  78          	ld	a, b
1012  015D  9A          	sbc	a, d
1013  015E  67          	ld	h, a
1014  015F  CD 00 00    	call	_abs_fastcall
1015  0162  7D          	ld	a,l
1016  0163  D6 0E       	sub	a,0x0e
1017  0165  7C          	ld	a,h
1018  0166  17          	rla
1019  0167  3F          	ccf
1020  0168  1F          	rra
1021  0169  DE 80       	sbc	a,0x80
1022  016B  30 09       	jr	NC,l_player_collision_00106
1023  016D  2E 02       	ld	l,0x02
1024  016F  CD 00 00    	call	_zx_border_fastcall
1025  0172  2E 01       	ld	l,0x01
1026  0174  18 08       	jr	l_player_collision_00110
1027  0176              l_player_collision_00106:
1028  0176  21 00 00    	ld	hl,_sprite
1029  0179  34          	inc	(hl)
1030  017A  18 92       	jr	l_player_collision_00107
1031  017C              l_player_collision_00109:
1032  017C  2E 00       	ld	l,0x00
1033  017E              l_player_collision_00110:
1034  017E  C9          	ret
1035  017F              	SECTION code_compiler
1036  017F              ;	---------------------------------
1037  017F              ; Function player_kill
1038  017F              ; ---------------------------------
1039  017F              _player_kill:
1040  017F  01 00 00    	ld	bc,_state+0
1041  0182  2A 00 00    	ld	hl,(_sprite)
1042  0185  26 00       	ld	h,0x00
1043  0187  09          	add	hl,bc
1044  0188  CB 6E       	bit	5,(hl)
1045  018A  C2 51 02    	jp	NZ,l_player_kill_00109
1046  018D  C5          	push	bc
1047  018E  CD 00 00    	call	_sound_hit_brick
1048  0191  C1          	pop	bc
1049  0192  79          	ld	a, c
1050  0193  21 00 00    	ld	hl,_sprite
1051  0196  86          	add	a, (hl)
1052  0197  5F          	ld	e, a
1053  0198  78          	ld	a, b
1054  0199  CE 00       	adc	a,0x00
1055  019B  57          	ld	d, a
1056  019C  1A          	ld	a, (de)
1057  019D  F6 20       	or	a,0x20
1058  019F  12          	ld	(de), a
1059  01A0  3E 00       	ld	a, +((_sprite_speed_alt) & 0xFF)
1060  01A2  86          	add	a, (hl)
1061  01A3  5F          	ld	e, a
1062  01A4  3E 00       	ld	a, +((_sprite_speed_alt) / 256)
1063  01A6  CE 00       	adc	a,0x00
1064  01A8  57          	ld	d, a
1065  01A9  3E 03       	ld	a,0x03
1066  01AB  12          	ld	(de), a
1067  01AC  79          	ld	a, c
1068  01AD  86          	add	a, (hl)
1069  01AE  4F          	ld	c, a
1070  01AF  78          	ld	a, b
1071  01B0  CE 00       	adc	a,0x00
1072  01B2  47          	ld	b, a
1073  01B3  0A          	ld	a, (bc)
1074  01B4  CB 57       	bit	2, a
1075  01B6  28 0D       	jr	Z,l_player_kill_00102
1076  01B8  2A 00 00    	ld	hl,(_sprite)
1077  01BB  26 00       	ld	h,0x00
1078  01BD  01 00 00    	ld	bc,_tile
1079  01C0  09          	add	hl,bc
1080  01C1  36 40       	ld	(hl),0x40
1081  01C3  18 0B       	jr	l_player_kill_00103
1082  01C5              l_player_kill_00102:
1083  01C5  2A 00 00    	ld	hl,(_sprite)
1084  01C8  26 00       	ld	h,0x00
1085  01CA  01 00 00    	ld	bc,_tile
1086  01CD  09          	add	hl,bc
1087  01CE  36 48       	ld	(hl),0x48
1088  01D0              l_player_kill_00103:
1089  01D0  CD 9D 09    	call	_player_hit_platform_clear
1090  01D3  2A 00 00    	ld	hl,(_sprite)
1091  01D6  26 00       	ld	h,0x00
1092  01D8  01 00 00    	ld	bc,_col
1093  01DB  09          	add	hl,bc
1094  01DC  4E          	ld	c, (hl)
1095  01DD  2A 00 00    	ld	hl,(_sprite)
1096  01E0  26 00       	ld	h,0x00
1097  01E2  11 00 00    	ld	de,_lin
1098  01E5  19          	add	hl,de
1099  01E6  46          	ld	b, (hl)
1100  01E7  2A 00 00    	ld	hl,(_sprite)
1101  01EA  26 00       	ld	h,0x00
1102  01EC  11 00 00    	ld	de,_tile
1103  01EF  19          	add	hl,de
1104  01F0  56          	ld	d, (hl)
1105  01F1  79          	ld	a,c
1106  01F2  21 00 00    	ld	hl,_sprite
1107  01F5  F5          	push	af
1108  01F6  33          	inc	sp
1109  01F7  4A          	ld	c, d
1110  01F8  7E          	ld	a,(hl)
1111  01F9  C5          	push	bc
1112  01FA  F5          	push	af
1113  01FB  33          	inc	sp
1114  01FC  CD 00 00    	call	_NIRVANAP_spriteT_callee
1115  01FF  01 00 00    	ld	bc,_spr_timer+0
1116  0202  2A 00 00    	ld	hl,(_sprite)
1117  0205  26 00       	ld	h,0x00
1118  0207  29          	add	hl, hl
1119  0208  09          	add	hl,bc
1120  0209  ED 5B 00 00 	ld	de,(_curr_time)
1121  020D  73          	ld	(hl),e
1122  020E  23          	inc	hl
1123  020F  72          	ld	(hl),d
1124  0210  3A 00 00    	ld	a,(_sprite)
1125  0213  D6 07       	sub	a,0x07
1126  0215  20 1E       	jr	NZ,l_player_kill_00105
1127  0217  01 00 00    	ld	bc,_state_a+0
1128  021A  79          	ld	a, c
1129  021B  21 00 00    	ld	hl,_sprite
1130  021E  86          	add	a, (hl)
1131  021F  5F          	ld	e, a
1132  0220  78          	ld	a, b
1133  0221  CE 00       	adc	a,0x00
1134  0223  57          	ld	d, a
1135  0224  1A          	ld	a, (de)
1136  0225  F6 08       	or	a,0x08
1137  0227  12          	ld	(de), a
1138  0228  79          	ld	a, c
1139  0229  86          	add	a, (hl)
1140  022A  4F          	ld	c, a
1141  022B  78          	ld	a, b
1142  022C  CE 00       	adc	a,0x00
1143  022E  47          	ld	b, a
1144  022F  0A          	ld	a, (bc)
1145  0230  E6 EF       	and	a,0xef
1146  0232  02          	ld	(bc), a
1147  0233  18 1C       	jr	l_player_kill_00109
1148  0235              l_player_kill_00105:
1149  0235  01 00 00    	ld	bc,_state_a+0
1150  0238  79          	ld	a, c
1151  0239  21 00 00    	ld	hl,_sprite
1152  023C  86          	add	a, (hl)
1153  023D  5F          	ld	e, a
1154  023E  78          	ld	a, b
1155  023F  CE 00       	adc	a,0x00
1156  0241  57          	ld	d, a
1157  0242  1A          	ld	a, (de)
1158  0243  F6 10       	or	a,0x10
1159  0245  12          	ld	(de), a
1160  0246  79          	ld	a, c
1161  0247  86          	add	a, (hl)
1162  0248  4F          	ld	c, a
1163  0249  78          	ld	a, b
1164  024A  CE 00       	adc	a,0x00
1165  024C  47          	ld	b, a
1166  024D  0A          	ld	a, (bc)
1167  024E  E6 F7       	and	a,0xf7
1168  0250  02          	ld	(bc), a
1169  0251              l_player_kill_00109:
1170  0251  C9          	ret
1171  0252              	SECTION code_compiler
1172  0252              ;	---------------------------------
1173  0252              ; Function player_restart
1174  0252              ; ---------------------------------
1175  0252              _player_restart:
1176  0252  CD 00 00    	call	___sdcc_enter_ix
1177  0255  F5          	push	af
1178  0256  4D          	ld	c, l
1179  0257  21 00 00    	ld	hl,_ay_effect_15
1180  025A  CD 00 00    	call	_ay_fx_play
1181  025D  C5          	push	bc
1182  025E  21 0E 64    	ld	hl,0x640e
1183  0261  E5          	push	hl
1184  0262  21 07 00    	ld	hl,0x0007
1185  0265  E5          	push	hl
1186  0266  CD 00 00    	call	_player_init
1187  0269  F1          	pop	af
1188  026A  F1          	pop	af
1189  026B  C1          	pop	bc
1190  026C  11 00 00    	ld	de,_state+0
1191  026F  69          	ld	l,c
1192  0270  26 00       	ld	h,0x00
1193  0272  19          	add	hl, de
1194  0273  CB E6       	set	4, (hl)
1195  0275  11 00 00    	ld	de,_state_a+0
1196  0278  69          	ld	l,c
1197  0279  26 00       	ld	h,0x00
1198  027B  19          	add	hl, de
1199  027C  CB C6       	set	0, (hl)
1200  027E  11 00 00    	ld	de,_spr_timer+0
1201  0281  69          	ld	l, c
1202  0282  26 00       	ld	h,0x00
1203  0284  29          	add	hl, hl
1204  0285  19          	add	hl,de
1205  0286  E3          	ex	(sp), hl
1206  0287  E1          	pop	hl
1207  0288  ED 5B 00 00 	ld	de,(_curr_time)
1208  028C  E5          	push	hl
1209  028D  73          	ld	(hl), e
1210  028E  23          	inc	hl
1211  028F  72          	ld	(hl), d
1212  0290  11 00 00    	ld	de,_sprite_speed_alt+0
1213  0293  69          	ld	l,c
1214  0294  26 00       	ld	h,0x00
1215  0296  19          	add	hl, de
1216  0297  F1          	pop	af
1217  0298  36 08       	ld	(hl),0x08
1218  029A  DD E1       	pop	ix
1219  029C  C9          	ret
1220  029D              	SECTION code_compiler
1221  029D              ;	---------------------------------
1222  029D              ; Function player_lost_life
1223  029D              ; ---------------------------------
1224  029D              _player_lost_life:
1225  029D  CD 00 00    	call	_sound_hit_enemy
1226  02A0  21 00 00    	ld	hl,_player_lives
1227  02A3  35          	dec (hl)
1228  02A4  20 09       	jr	NZ,l_player_lost_life_00102
1229  02A6  21 00 00    	ld	hl,_game_over
1230  02A9  36 01       	ld	(hl),0x01
1231  02AB  2E 00       	ld	l,0x00
1232  02AD  18 05       	jr	l_player_lost_life_00103
1233  02AF              l_player_lost_life_00102:
1234  02AF  CD 00 00    	call	_game_print_lives
1235  02B2  2E 01       	ld	l,0x01
1236  02B4              l_player_lost_life_00103:
1237  02B4  C9          	ret
1238  02B5              	SECTION code_compiler
1239  02B5              ;	---------------------------------
1240  02B5              ; Function player_turn
1241  02B5              ; ---------------------------------
1242  02B5              _player_turn:
1243  02B5  2A 00 00    	ld	hl,(_sprite)
1244  02B8  26 00       	ld	h,0x00
1245  02BA  01 00 00    	ld	bc,_class
1246  02BD  09          	add	hl,bc
1247  02BE  7E          	ld	a,(hl)
1248  02BF  D6 10       	sub	a,0x10
1249  02C1  C0          	ret	NZ
1250  02C2  3A 00 00    	ld	a,(_player_lives)
1251  02C5  B7          	or	a, a
1252  02C6  C8          	ret	Z
1253  02C7  21 00 00    	ld	hl,_sprite
1254  02CA  CD 00 00    	call	_spr_chktime
1255  02CD  7D          	ld	a, l
1256  02CE  B7          	or	a, a
1257  02CF  C8          	ret	Z
1258  02D0  2E 00       	ld	l,0x00
1259  02D2  CD 00 00    	call	_zx_border_fastcall
1260  02D5  21 00 00    	ld	hl,_k1
1261  02D8  E5          	push	hl
1262  02D9  2A 00 00    	ld	hl,(_joyfunc1)
1263  02DC  CD 00 00    	call	___sdcc_call_hl
1264  02DF  F1          	pop	af
1265  02E0  7D          	ld	a,l
1266  02E1  32 00 00    	ld	(_dirs),a
1267  02E4  CD EA 02    	call	_player_move
1268  02E7  C3 FD 00    	jp  _player_collision
1269  02EA              	SECTION code_compiler
1270  02EA              ;	---------------------------------
1271  02EA              ; Function player_move
1272  02EA              ; ---------------------------------
1273  02EA              _player_move:
1274  02EA  2A 00 00    	ld	hl,(_sprite)
1275  02ED  26 00       	ld	h,0x00
1276  02EF  01 00 00    	ld	bc,_lin
1277  02F2  09          	add	hl,bc
1278  02F3  7E          	ld	a,(hl)
1279  02F4  32 00 00    	ld	(_s_lin0),a
1280  02F7  2A 00 00    	ld	hl,(_sprite)
1281  02FA  26 00       	ld	h,0x00
1282  02FC  01 00 00    	ld	bc,_col
1283  02FF  09          	add	hl,bc
1284  0300  7E          	ld	a,(hl)
1285  0301  32 00 00    	ld	(_s_col0),a
1286  0304  2A 00 00    	ld	hl,(_sprite)
1287  0307  26 00       	ld	h,0x00
1288  0309  01 00 00    	ld	bc,_tile
1289  030C  09          	add	hl,bc
1290  030D  4E          	ld	c, (hl)
1291  030E  3A 00 00    	ld	a,(_sprite)
1292  0311  5F          	ld	e,a
1293  0312  16 00       	ld	d,0x00
1294  0314  21 00 00    	ld	hl,_colint
1295  0317  19          	add	hl,de
1296  0318  7E          	ld	a,(hl)
1297  0319  81          	add	a,c
1298  031A  32 00 00    	ld	(_s_tile0),a
1299  031D  2A 00 00    	ld	hl,(_sprite)
1300  0320  26 00       	ld	h,0x00
1301  0322  01 00 00    	ld	bc,_state
1302  0325  09          	add	hl,bc
1303  0326  7E          	ld	a,(hl)
1304  0327  CB 47       	bit	0,a
1305  0329  32 00 00    	ld	(_s_state),a
1306  032C  20 07       	jr	NZ,l_player_move_00113
1307  032E  21 00 00    	ld	hl,_s_state
1308  0331  CB 4E       	bit	1, (hl)
1309  0333  28 46       	jr	Z,l_player_move_00114
1310  0335              l_player_move_00113:
1311  0335  CD 74 06    	call	_player_fire
1312  0338  3A 00 00    	ld	a,(_player_vel_y)
1313  033B  21 00 00    	ld	hl,_player_vel_y1
1314  033E  96          	sub	a, (hl)
1315  033F  E2 44 03    	jp	PO, l_player_move_00162
1316  0342  EE 80       	xor	a,0x80
1317  0344              l_player_move_00162:
1318  0344  F2 67 03    	jp	P, l_player_move_00106
1319  0347  21 00 00    	ld	hl,_dirs
1320  034A  CB 56       	bit	2, (hl)
1321  034C  28 09       	jr	Z,l_player_move_00102
1322  034E  21 00 00    	ld	hl,_s_state
1323  0351  7E          	ld	a,(hl)
1324  0352  F6 08       	or	a,0x08
1325  0354  E6 FB       	and	a,0xfb
1326  0356  77          	ld	(hl),a
1327  0357              l_player_move_00102:
1328  0357  21 00 00    	ld	hl,_dirs
1329  035A  CB 4E       	bit	1, (hl)
1330  035C  28 09       	jr	Z,l_player_move_00106
1331  035E  21 00 00    	ld	hl,_s_state
1332  0361  7E          	ld	a,(hl)
1333  0362  F6 04       	or	a,0x04
1334  0364  E6 F7       	and	a,0xf7
1335  0366  77          	ld	(hl),a
1336  0367              l_player_move_00106:
1337  0367  CD 72 0A    	call	_player_move_jump
1338  036A  7D          	ld	a, l
1339  036B  B7          	or	a, a
1340  036C  28 2E       	jr	Z,l_player_move_00115
1341  036E  3A 00 00    	ld	a,(_player_over_stair)
1342  0371  B7          	or	a, a
1343  0372  20 28       	jr	NZ,l_player_move_00115
1344  0374  2E 54       	ld	l,0x54
1345  0376  CD AD 04    	call	_player_tile
1346  0379  18 21       	jr	l_player_move_00115
1347  037B              l_player_move_00114:
1348  037B  CD 03 05    	call	_player_move_input
1349  037E  7D          	ld	a, l
1350  037F  B7          	or	a, a
1351  0380  20 17       	jr	NZ,l_player_move_00112
1352  0382  2A 00 00    	ld	hl,(_sprite)
1353  0385  26 00       	ld	h,0x00
1354  0387  01 00 00    	ld	bc,_colint
1355  038A  09          	add	hl,bc
1356  038B  AF          	xor	a,a
1357  038C  77          	ld	(hl),a
1358  038D  2E 64       	ld	l,0x64
1359  038F  CD AD 04    	call	_player_tile
1360  0392  21 00 00    	ld	hl,_s_state
1361  0395  7E          	ld	a,(hl)
1362  0396  E6 F3       	and	a,+(0xf7&0xfb)
1363  0398  77          	ld	(hl),a
1364  0399              l_player_move_00112:
1365  0399  CD F6 09    	call	_player_check_floor
1366  039C              l_player_move_00115:
1367  039C  CD 00 00    	call	_spr_redraw
1368  039F  7D          	ld	a, l
1369  03A0  B7          	or	a, a
1370  03A1  28 03       	jr	Z,l_player_move_00118
1371  03A3  CD E4 06    	call	_player_check_map
1372  03A6              l_player_move_00118:
1373  03A6  3A 00 00    	ld	a,(_player_hit_lin)
1374  03A9  B7          	or	a, a
1375  03AA  28 03       	jr	Z,l_player_move_00120
1376  03AC  CD 9D 09    	call	_player_hit_platform_clear
1377  03AF              l_player_move_00120:
1378  03AF  2A 00 00    	ld	hl,(_sprite)
1379  03B2  26 00       	ld	h,0x00
1380  03B4  01 00 00    	ld	bc,_state
1381  03B7  09          	add	hl,bc
1382  03B8  3A 00 00    	ld	a,(_s_state)
1383  03BB  77          	ld	(hl),a
1384  03BC  2E 00       	ld	l,0x00
1385  03BE  C9          	ret
1386  03BF              	SECTION code_compiler
1387  03BF              ;	---------------------------------
1388  03BF              ; Function player_check_stairs_down
1389  03BF              ; ---------------------------------
1390  03BF              _player_check_stairs_down:
1391  03BF  CD 00 00    	call	___sdcc_enter_ix
1392  03C2  3B          	dec	sp
1393  03C3  2A 00 00    	ld	hl,(_sprite)
1394  03C6  26 00       	ld	h,0x00
1395  03C8  5D          	ld	e,l
1396  03C9  01 00 00    	ld	bc,_col
1397  03CC  09          	add	hl,bc
1398  03CD  46          	ld	b,(hl)
1399  03CE  16 00       	ld	d,0x00
1400  03D0  21 00 00    	ld	hl,_lin
1401  03D3  19          	add	hl,de
1402  03D4  7E          	ld	a,(hl)
1403  03D5  C6 10       	add	a,0x10
1404  03D7  4F          	ld	c,a
1405  03D8  C5          	push	bc
1406  03D9  CD 00 00    	call	_spr_calc_index
1407  03DC  F1          	pop	af
1408  03DD  7D          	ld	a,l
1409  03DE  32 00 00    	ld	(_sprite_curr_index),a
1410  03E1  4F          	ld	c,a
1411  03E2  06 00       	ld	b,0x00
1412  03E4  21 00 00    	ld	hl,_scr_map
1413  03E7  09          	add	hl,bc
1414  03E8  7E          	ld	a,(hl)
1415  03E9  4F          	ld	c,a
1416  03EA  D6 38       	sub	a,0x38
1417  03EC  38 05       	jr	C,l_player_check_stairs_down_00105
1418  03EE  3E 3C       	ld	a,0x3c
1419  03F0  91          	sub	a, c
1420  03F1  30 04       	jr	NC,l_player_check_stairs_down_00106
1421  03F3              l_player_check_stairs_down_00105:
1422  03F3  3E 00       	ld	a,0x00
1423  03F5  18 02       	jr	l_player_check_stairs_down_00107
1424  03F7              l_player_check_stairs_down_00106:
1425  03F7  3E 01       	ld	a,0x01
1426  03F9              l_player_check_stairs_down_00107:
1427  03F9  B7          	or	a, a
1428  03FA  28 05       	jr	Z,l_player_check_stairs_down_00103
1429  03FC  21 00 00    	ld	hl,_player_over_stair
1430  03FF  36 01       	ld	(hl),0x01
1431  0401              l_player_check_stairs_down_00103:
1432  0401  33          	inc	sp
1433  0402  DD E1       	pop	ix
1434  0404  C9          	ret
1435  0405              	SECTION code_compiler
1436  0405              ;	---------------------------------
1437  0405              ; Function player_check_stairs
1438  0405              ; ---------------------------------
1439  0405              _player_check_stairs:
1440  0405  CD 00 00    	call	___sdcc_enter_ix
1441  0408  3B          	dec	sp
1442  0409  5D          	ld	e, l
1443  040A  2A 00 00    	ld	hl,(_sprite)
1444  040D  26 00       	ld	h,0x00
1445  040F  01 00 00    	ld	bc,_col
1446  0412  09          	add	hl,bc
1447  0413  7E          	ld	a,(hl)
1448  0414  83          	add	a,e
1449  0415  57          	ld	d,a
1450  0416  2A 00 00    	ld	hl,(_sprite)
1451  0419  26 00       	ld	h,0x00
1452  041B  01 00 00    	ld	bc,_lin
1453  041E  09          	add	hl,bc
1454  041F  46          	ld	b, (hl)
1455  0420  D5          	push	de
1456  0421  58          	ld	e,b
1457  0422  D5          	push	de
1458  0423  CD 00 00    	call	_spr_calc_index
1459  0426  F1          	pop	af
1460  0427  D1          	pop	de
1461  0428  7D          	ld	a,l
1462  0429  32 00 00    	ld	(_sprite_curr_index),a
1463  042C  4F          	ld	c,a
1464  042D  06 00       	ld	b,0x00
1465  042F  21 00 00    	ld	hl,_scr_map
1466  0432  09          	add	hl,bc
1467  0433  7E          	ld	a,(hl)
1468  0434  4F          	ld	c,a
1469  0435  D6 38       	sub	a,0x38
1470  0437  38 05       	jr	C,l_player_check_stairs_00111
1471  0439  3E 3C       	ld	a,0x3c
1472  043B  91          	sub	a, c
1473  043C  30 04       	jr	NC,l_player_check_stairs_00112
1474  043E              l_player_check_stairs_00111:
1475  043E  0E 00       	ld	c,0x00
1476  0440  18 02       	jr	l_player_check_stairs_00113
1477  0442              l_player_check_stairs_00112:
1478  0442  0E 01       	ld	c,0x01
1479  0444              l_player_check_stairs_00113:
1480  0444  3E 00       	ld	a, +((_col) & 0xFF)
1481  0446  21 00 00    	ld	hl,_sprite
1482  0449  86          	add	a, (hl)
1483  044A  6F          	ld	l, a
1484  044B  3E 00       	ld	a, +((_col) / 256)
1485  044D  CE 00       	adc	a,0x00
1486  044F  67          	ld	h, a
1487  0450  7E          	ld	a, (hl)
1488  0451  83          	add	a, e
1489  0452  47          	ld	b, a
1490  0453  2A 00 00    	ld	hl,(_sprite)
1491  0456  26 00       	ld	h,0x00
1492  0458  11 00 00    	ld	de,_lin
1493  045B  19          	add	hl,de
1494  045C  7E          	ld	a,(hl)
1495  045D  C6 0F       	add	a,0x0f
1496  045F  57          	ld	d, a
1497  0460  C5          	push	bc
1498  0461  4A          	ld	c, d
1499  0462  C5          	push	bc
1500  0463  CD 00 00    	call	_spr_calc_index
1501  0466  F1          	pop	af
1502  0467  C1          	pop	bc
1503  0468  7D          	ld	a,l
1504  0469  32 00 00    	ld	(_sprite_curr_index),a
1505  046C  5F          	ld	e,a
1506  046D  16 00       	ld	d,0x00
1507  046F  21 00 00    	ld	hl,_scr_map
1508  0472  19          	add	hl,de
1509  0473  7E          	ld	a,(hl)
1510  0474  47          	ld	b,a
1511  0475  D6 38       	sub	a,0x38
1512  0477  38 05       	jr	C,l_player_check_stairs_00114
1513  0479  3E 3C       	ld	a,0x3c
1514  047B  90          	sub	a, b
1515  047C  30 04       	jr	NC,l_player_check_stairs_00115
1516  047E              l_player_check_stairs_00114:
1517  047E  06 00       	ld	b,0x00
1518  0480  18 02       	jr	l_player_check_stairs_00116
1519  0482              l_player_check_stairs_00115:
1520  0482  06 01       	ld	b,0x01
1521  0484              l_player_check_stairs_00116:
1522  0484  79          	ld	a, c
1523  0485  B7          	or	a,a
1524  0486  20 03       	jr	NZ,l_player_check_stairs_00105
1525  0488  B0          	or	a,b
1526  0489  28 10       	jr	Z,l_player_check_stairs_00106
1527  048B              l_player_check_stairs_00105:
1528  048B  21 00 00    	ld	hl,_player_over_stair
1529  048E  7E          	ld	a, (hl)
1530  048F  B7          	or	a, a
1531  0490  20 17       	jr	NZ,l_player_check_stairs_00109
1532  0492  36 01       	ld	(hl),0x01
1533  0494  2E 66       	ld	l,0x66
1534  0496  CD AD 04    	call	_player_tile
1535  0499  18 0E       	jr	l_player_check_stairs_00109
1536  049B              l_player_check_stairs_00106:
1537  049B  21 00 00    	ld	hl,_player_over_stair
1538  049E  7E          	ld	a, (hl)
1539  049F  B7          	or	a, a
1540  04A0  28 07       	jr	Z,l_player_check_stairs_00109
1541  04A2  36 00       	ld	(hl),0x00
1542  04A4  2E 54       	ld	l,0x54
1543  04A6  CD AD 04    	call	_player_tile
1544  04A9              l_player_check_stairs_00109:
1545  04A9  33          	inc	sp
1546  04AA  DD E1       	pop	ix
1547  04AC  C9          	ret
1548  04AD              	SECTION code_compiler
1549  04AD              ;	---------------------------------
1550  04AD              ; Function player_tile
1551  04AD              ; ---------------------------------
1552  04AD              _player_tile:
1553  04AD  45          	ld	b, l
1554  04AE  3A 00 00    	ld	a,(_player_over_stair)
1555  04B1  B7          	or	a, a
1556  04B2  28 0D       	jr	Z,l_player_tile_00105
1557  04B4  2A 00 00    	ld	hl,(_sprite)
1558  04B7  26 00       	ld	h,0x00
1559  04B9  01 00 00    	ld	bc,_tile
1560  04BC  09          	add	hl,bc
1561  04BD  36 66       	ld	(hl),0x66
1562  04BF  18 41       	jr	l_player_tile_00107
1563  04C1              l_player_tile_00105:
1564  04C1  78          	ld	a, b
1565  04C2  D6 64       	sub	a,0x64
1566  04C4  20 1F       	jr	NZ,l_player_tile_00102
1567  04C6  2A 00 00    	ld	hl,(_sprite)
1568  04C9  26 00       	ld	h,0x00
1569  04CB  11 00 00    	ld	de,_tile
1570  04CE  19          	add	hl,de
1571  04CF  E5          	push	hl
1572  04D0  3E 01       	ld	a,0x01
1573  04D2  21 00 00    	ld	hl,_sprite
1574  04D5  F5          	push	af
1575  04D6  33          	inc	sp
1576  04D7  7E          	ld	a, (hl)
1577  04D8  48          	ld	c,b
1578  04D9  47          	ld	b,a
1579  04DA  C5          	push	bc
1580  04DB  CD 00 00    	call	_spr_tile_dir
1581  04DE  F1          	pop	af
1582  04DF  33          	inc	sp
1583  04E0  D1          	pop	de
1584  04E1  7D          	ld	a,l
1585  04E2  12          	ld	(de), a
1586  04E3  18 1D       	jr	l_player_tile_00107
1587  04E5              l_player_tile_00102:
1588  04E5  2A 00 00    	ld	hl,(_sprite)
1589  04E8  26 00       	ld	h,0x00
1590  04EA  11 00 00    	ld	de,_tile
1591  04ED  19          	add	hl,de
1592  04EE  E5          	push	hl
1593  04EF  3E 08       	ld	a,0x08
1594  04F1  21 00 00    	ld	hl,_sprite
1595  04F4  F5          	push	af
1596  04F5  33          	inc	sp
1597  04F6  7E          	ld	a, (hl)
1598  04F7  48          	ld	c,b
1599  04F8  47          	ld	b,a
1600  04F9  C5          	push	bc
1601  04FA  CD 00 00    	call	_spr_tile_dir
1602  04FD  F1          	pop	af
1603  04FE  33          	inc	sp
1604  04FF  D1          	pop	de
1605  0500  7D          	ld	a,l
1606  0501  12          	ld	(de), a
1607  0502              l_player_tile_00107:
1608  0502  C9          	ret
1609  0503              	SECTION code_compiler
1610  0503              ;	---------------------------------
1611  0503              ; Function player_move_input
1612  0503              ; ---------------------------------
1613  0503              _player_move_input:
1614  0503  CD BE 00    	call	_player_check_input
1615  0506  7D          	ld	a, l
1616  0507  B7          	or	a, a
1617  0508  CA 71 06    	jp	Z, l_player_move_input_00136
1618  050B  CD 74 06    	call	_player_fire
1619  050E  7D          	ld	a, l
1620  050F  B7          	or	a, a
1621  0510  28 05       	jr	Z,l_player_move_input_00102
1622  0512  2E 00       	ld	l,0x00
1623  0514  C3 73 06    	jp	l_player_move_input_00137
1624  0517              l_player_move_input_00102:
1625  0517  21 00 00    	ld	hl,_dirs
1626  051A  CB 7E       	bit	7, (hl)
1627  051C  28 67       	jr	Z,l_player_move_input_00106
1628  051E  21 00 00    	ld	hl,_player_vel_inc
1629  0521  36 01       	ld	(hl),0x01
1630  0523  CD 00 00    	call	_ay_is_playing
1631  0526  7D          	ld	a, l
1632  0527  D6 03       	sub	a,0x03
1633  0529  28 06       	jr	Z,l_player_move_input_00104
1634  052B  21 00 00    	ld	hl,_ay_effect_03
1635  052E  CD 00 00    	call	_ay_fx_play
1636  0531              l_player_move_input_00104:
1637  0531  21 00 00    	ld	hl,_player_over_stair
1638  0534  36 00       	ld	(hl),0x00
1639  0536  CD 00 00    	call	_sound_jump
1640  0539  21 00 00    	ld	hl,_s_state
1641  053C  7E          	ld	a,(hl)
1642  053D  F6 01       	or	a,0x01
1643  053F  E6 FD       	and	a,0xfd
1644  0541  77          	ld	(hl),a
1645  0542  2A 00 00    	ld	hl,(_sprite)
1646  0545  26 00       	ld	h,0x00
1647  0547  01 00 00    	ld	bc,_jump_lin
1648  054A  09          	add	hl,bc
1649  054B  4D          	ld	c,l
1650  054C  44          	ld	b,h
1651  054D  2A 00 00    	ld	hl,(_sprite)
1652  0550  26 00       	ld	h,0x00
1653  0552  11 00 00    	ld	de,_lin
1654  0555  19          	add	hl,de
1655  0556  7E          	ld	a,(hl)
1656  0557  02          	ld	(bc),a
1657  0558  2A 00 00    	ld	hl,(_sprite)
1658  055B  26 00       	ld	h,0x00
1659  055D  01 00 00    	ld	bc,_state
1660  0560  09          	add	hl,bc
1661  0561  3A 00 00    	ld	a,(_s_state)
1662  0564  77          	ld	(hl),a
1663  0565  2E 58       	ld	l,0x58
1664  0567  CD AD 04    	call	_player_tile
1665  056A  2A 00 00    	ld	hl,(_sprite)
1666  056D  26 00       	ld	h,0x00
1667  056F  01 00 00    	ld	bc,_sprite_speed_alt
1668  0572  09          	add	hl,bc
1669  0573  36 02       	ld	(hl),0x02
1670  0575  21 00 00    	ld	hl,_player_slide
1671  0578  36 00       	ld	(hl),0x00
1672  057A  3A 00 00    	ld	a,(_player_vel_y0)
1673  057D  32 00 00    	ld	(_player_vel_y),a
1674  0580  2E 01       	ld	l,0x01
1675  0582  C3 73 06    	jp	l_player_move_input_00137
1676  0585              l_player_move_input_00106:
1677  0585  21 00 00    	ld	hl,_dirs
1678  0588  CB 5E       	bit	3, (hl)
1679  058A  28 33       	jr	Z,l_player_move_input_00110
1680  058C  21 00 00    	ld	hl,_s_state
1681  058F  7E          	ld	a,(hl)
1682  0590  F6 04       	or	a,0x04
1683  0592  E6 F7       	and	a,0xf7
1684  0594  77          	ld	(hl),a
1685  0595  01 00 00    	ld	bc,_state_a+0
1686  0598  79          	ld	a, c
1687  0599  21 00 00    	ld	hl,_sprite
1688  059C  86          	add	a, (hl)
1689  059D  5F          	ld	e, a
1690  059E  78          	ld	a, b
1691  059F  CE 00       	adc	a,0x00
1692  05A1  57          	ld	d, a
1693  05A2  1A          	ld	a, (de)
1694  05A3  F6 10       	or	a,0x10
1695  05A5  12          	ld	(de), a
1696  05A6  79          	ld	a, c
1697  05A7  86          	add	a, (hl)
1698  05A8  4F          	ld	c, a
1699  05A9  78          	ld	a, b
1700  05AA  CE 00       	adc	a,0x00
1701  05AC  47          	ld	b, a
1702  05AD  0A          	ld	a, (bc)
1703  05AE  E6 F7       	and	a,0xf7
1704  05B0  02          	ld	(bc), a
1705  05B1  3A 00 00    	ld	a,(_player_over_stair)
1706  05B4  B7          	or	a, a
1707  05B5  28 05       	jr	Z,l_player_move_input_00108
1708  05B7  2E 00       	ld	l,0x00
1709  05B9  CD 05 04    	call	_player_check_stairs
1710  05BC              l_player_move_input_00108:
1711  05BC  CD 00 00    	call	_spr_move_horizontal
1712  05BF              l_player_move_input_00110:
1713  05BF  21 00 00    	ld	hl,_dirs
1714  05C2  CB 56       	bit	2, (hl)
1715  05C4  28 33       	jr	Z,l_player_move_input_00114
1716  05C6  21 00 00    	ld	hl,_s_state
1717  05C9  7E          	ld	a,(hl)
1718  05CA  F6 08       	or	a,0x08
1719  05CC  E6 FB       	and	a,0xfb
1720  05CE  77          	ld	(hl),a
1721  05CF  01 00 00    	ld	bc,_state_a+0
1722  05D2  79          	ld	a, c
1723  05D3  21 00 00    	ld	hl,_sprite
1724  05D6  86          	add	a, (hl)
1725  05D7  5F          	ld	e, a
1726  05D8  78          	ld	a, b
1727  05D9  CE 00       	adc	a,0x00
1728  05DB  57          	ld	d, a
1729  05DC  1A          	ld	a, (de)
1730  05DD  F6 08       	or	a,0x08
1731  05DF  12          	ld	(de), a
1732  05E0  79          	ld	a, c
1733  05E1  86          	add	a, (hl)
1734  05E2  4F          	ld	c, a
1735  05E3  78          	ld	a, b
1736  05E4  CE 00       	adc	a,0x00
1737  05E6  47          	ld	b, a
1738  05E7  0A          	ld	a, (bc)
1739  05E8  E6 EF       	and	a,0xef
1740  05EA  02          	ld	(bc), a
1741  05EB  3A 00 00    	ld	a,(_player_over_stair)
1742  05EE  B7          	or	a, a
1743  05EF  28 05       	jr	Z,l_player_move_input_00112
1744  05F1  2E 00       	ld	l,0x00
1745  05F3  CD 05 04    	call	_player_check_stairs
1746  05F6              l_player_move_input_00112:
1747  05F6  CD 00 00    	call	_spr_move_horizontal
1748  05F9              l_player_move_input_00114:
1749  05F9  21 00 00    	ld	hl,_dirs
1750  05FC  CB 46       	bit	0, (hl)
1751  05FE  28 2B       	jr	Z,l_player_move_input_00124
1752  0600  2E 00       	ld	l,0x00
1753  0602  CD 05 04    	call	_player_check_stairs
1754  0605  3A 00 00    	ld	a,(_player_over_stair)
1755  0608  B7          	or	a, a
1756  0609  28 0E       	jr	Z,l_player_move_input_00121
1757  060B  CD 00 00    	call	_spr_move_up
1758  060E  7D          	ld	a, l
1759  060F  B7          	or	a, a
1760  0610  28 19       	jr	Z,l_player_move_input_00124
1761  0612  21 00 00    	ld	hl,_player_over_stair
1762  0615  36 00       	ld	(hl),0x00
1763  0617  18 12       	jr	l_player_move_input_00124
1764  0619              l_player_move_input_00121:
1765  0619  21 00 00    	ld	hl,_dirs
1766  061C  CB 5E       	bit	3, (hl)
1767  061E  20 0B       	jr	NZ,l_player_move_input_00124
1768  0620  21 00 00    	ld	hl,_dirs
1769  0623  CB 56       	bit	2, (hl)
1770  0625  20 04       	jr	NZ,l_player_move_input_00124
1771  0627  2E 00       	ld	l,0x00
1772  0629  18 48       	jr	l_player_move_input_00137
1773  062B              l_player_move_input_00124:
1774  062B  21 00 00    	ld	hl,_dirs
1775  062E  CB 4E       	bit	1, (hl)
1776  0630  28 29       	jr	Z,l_player_move_input_00134
1777  0632  CD BF 03    	call	_player_check_stairs_down
1778  0635  3A 00 00    	ld	a,(_player_over_stair)
1779  0638  B7          	or	a, a
1780  0639  28 0E       	jr	Z,l_player_move_input_00131
1781  063B  CD 00 00    	call	_spr_move_down
1782  063E  7D          	ld	a, l
1783  063F  B7          	or	a, a
1784  0640  28 19       	jr	Z,l_player_move_input_00134
1785  0642  21 00 00    	ld	hl,_player_over_stair
1786  0645  36 00       	ld	(hl),0x00
1787  0647  18 12       	jr	l_player_move_input_00134
1788  0649              l_player_move_input_00131:
1789  0649  21 00 00    	ld	hl,_dirs
1790  064C  CB 5E       	bit	3, (hl)
1791  064E  20 0B       	jr	NZ,l_player_move_input_00134
1792  0650  21 00 00    	ld	hl,_dirs
1793  0653  CB 56       	bit	2, (hl)
1794  0655  20 04       	jr	NZ,l_player_move_input_00134
1795  0657  2E 00       	ld	l,0x00
1796  0659  18 18       	jr	l_player_move_input_00137
1797  065B              l_player_move_input_00134:
1798  065B  2A 00 00    	ld	hl,(_sprite)
1799  065E  26 00       	ld	h,0x00
1800  0660  01 00 00    	ld	bc,_state
1801  0663  09          	add	hl,bc
1802  0664  3A 00 00    	ld	a,(_s_state)
1803  0667  77          	ld	(hl),a
1804  0668  2E 54       	ld	l,0x54
1805  066A  CD AD 04    	call	_player_tile
1806  066D  2E 01       	ld	l,0x01
1807  066F  18 02       	jr	l_player_move_input_00137
1808  0671              l_player_move_input_00136:
1809  0671  2E 00       	ld	l,0x00
1810  0673              l_player_move_input_00137:
1811  0673  C9          	ret
1812  0674              	SECTION code_compiler
1813  0674              ;	---------------------------------
1814  0674              ; Function player_fire
1815  0674              ; ---------------------------------
1816  0674              _player_fire:
1817  0674  21 00 00    	ld	hl,_dirs
1818  0677  CB 7E       	bit	7, (hl)
1819  0679  28 66       	jr	Z,l_player_fire_00111
1820  067B  21 00 00    	ld	hl,_dirs
1821  067E  CB 4E       	bit	1, (hl)
1822  0680  28 5F       	jr	Z,l_player_fire_00111
1823  0682  11 07 00    	ld	de,_bullet_col+7
1824  0685  1A          	ld	a, (de)
1825  0686  3C          	inc	a
1826  0687  20 54       	jr	NZ,l_player_fire_00109
1827  0689  21 00 00    	ld	hl,_bullet_count
1828  068C  34          	inc	(hl)
1829  068D  01 07 00    	ld	bc,_bullet_dir+7
1830  0690  AF          	xor	a, a
1831  0691  02          	ld	(bc), a
1832  0692  3A 07 00    	ld	a,(_lin + 0x0007)
1833  0695  32 07 00    	ld	((_bullet_lin + 0x0007)),a
1834  0698  21 07 00    	ld	hl, +(_bullet_frames + 0x0007)
1835  069B  36 02       	ld	(hl),0x02
1836  069D  3A 07 00    	ld	a,(_state_a + 0x0007)
1837  06A0  CB 5F       	bit	3, a
1838  06A2  28 1D       	jr	Z,l_player_fire_00106
1839  06A4  3A 07 00    	ld	a,(_col + 0x0007)
1840  06A7  FE 01       	cp	a,0x01
1841  06A9  30 04       	jr	NC,l_player_fire_00102
1842  06AB  2E 01       	ld	l,0x01
1843  06AD  18 34       	jr	l_player_fire_00113
1844  06AF              l_player_fire_00102:
1845  06AF  C6 FF       	add	a,0xff
1846  06B1  12          	ld	(de), a
1847  06B2  21 07 00    	ld	hl, +(_bullet_tile + 0x0007)
1848  06B5  36 72       	ld	(hl),0x72
1849  06B7  3E 01       	ld	a,0x01
1850  06B9  02          	ld	(bc), a
1851  06BA  21 07 00    	ld	hl, +(_bullet_colint + 0x0007)
1852  06BD  36 02       	ld	(hl),0x02
1853  06BF  18 1C       	jr	l_player_fire_00109
1854  06C1              l_player_fire_00106:
1855  06C1  2A 07 00    	ld	hl,(_col + 0x0007)
1856  06C4  3E 1D       	ld	a,0x1d
1857  06C6  95          	sub	a, l
1858  06C7  30 04       	jr	NC,l_player_fire_00104
1859  06C9  2E 01       	ld	l,0x01
1860  06CB  18 16       	jr	l_player_fire_00113
1861  06CD              l_player_fire_00104:
1862  06CD  7D          	ld	a, l
1863  06CE  3C          	inc	a
1864  06CF  12          	ld	(de), a
1865  06D0  21 07 00    	ld	hl, +(_bullet_tile + 0x0007)
1866  06D3  36 70       	ld	(hl),0x70
1867  06D5  3E FF       	ld	a,0xff
1868  06D7  02          	ld	(bc), a
1869  06D8  21 07 00    	ld	hl, +(_bullet_colint + 0x0007)
1870  06DB  36 FF       	ld	(hl),0xff
1871  06DD              l_player_fire_00109:
1872  06DD  2E 01       	ld	l,0x01
1873  06DF  18 02       	jr	l_player_fire_00113
1874  06E1              l_player_fire_00111:
1875  06E1  2E 00       	ld	l,0x00
1876  06E3              l_player_fire_00113:
1877  06E3  C9          	ret
1878  06E4              	SECTION code_compiler
1879  06E4              ;	---------------------------------
1880  06E4              ; Function player_check_map
1881  06E4              ; ---------------------------------
1882  06E4              _player_check_map:
1883  06E4  2A 00 00    	ld	hl,(_sprite)
1884  06E7  26 00       	ld	h,0x00
1885  06E9  5D          	ld	e,l
1886  06EA  01 00 00    	ld	bc,_col
1887  06ED  09          	add	hl,bc
1888  06EE  46          	ld	b,(hl)
1889  06EF  16 00       	ld	d,0x00
1890  06F1  21 00 00    	ld	hl,_lin
1891  06F4  19          	add	hl,de
1892  06F5  4E          	ld	c, (hl)
1893  06F6  C5          	push	bc
1894  06F7  CD 00 00    	call	_spr_calc_index
1895  06FA  F1          	pop	af
1896  06FB  7D          	ld	a,l
1897  06FC  32 00 00    	ld	(_sprite_curr_index),a
1898  06FF  2A 00 00    	ld	hl,(_sprite)
1899  0702  26 00       	ld	h,0x00
1900  0704  01 00 00    	ld	bc,_col
1901  0707  09          	add	hl,bc
1902  0708  4E          	ld	c, (hl)
1903  0709  3A 00 00    	ld	a,(_sprite)
1904  070C  5F          	ld	e,a
1905  070D  16 00       	ld	d,0x00
1906  070F  21 00 00    	ld	hl,_lin
1907  0712  19          	add	hl,de
1908  0713  7E          	ld	a,(hl)
1909  0714  E6 0F       	and	a,0x0f
1910  0716  CB 41       	bit	0, c
1911  0718  20 17       	jr	NZ,l_player_check_map_00108
1912  071A  B7          	or	a, a
1913  071B  20 05       	jr	NZ,l_player_check_map_00102
1914  071D  CD 5C 07    	call	_player_pick_item
1915  0720  18 39       	jr	l_player_check_map_00110
1916  0722              l_player_check_map_00102:
1917  0722  CD 5C 07    	call	_player_pick_item
1918  0725  21 00 00    	ld	hl,_sprite_curr_index
1919  0728  7E          	ld	a, (hl)
1920  0729  C6 10       	add	a,0x10
1921  072B  77          	ld	(hl), a
1922  072C  CD 5C 07    	call	_player_pick_item
1923  072F  18 2A       	jr	l_player_check_map_00110
1924  0731              l_player_check_map_00108:
1925  0731  B7          	or	a, a
1926  0732  20 0C       	jr	NZ,l_player_check_map_00105
1927  0734  CD 5C 07    	call	_player_pick_item
1928  0737  21 00 00    	ld	hl,_sprite_curr_index
1929  073A  34          	inc	(hl)
1930  073B  CD 5C 07    	call	_player_pick_item
1931  073E  18 1B       	jr	l_player_check_map_00110
1932  0740              l_player_check_map_00105:
1933  0740  CD 5C 07    	call	_player_pick_item
1934  0743  21 00 00    	ld	hl,_sprite_curr_index
1935  0746  34          	inc	(hl)
1936  0747  CD 5C 07    	call	_player_pick_item
1937  074A  21 00 00    	ld	hl,_sprite_curr_index
1938  074D  7E          	ld	a, (hl)
1939  074E  C6 0F       	add	a,0x0f
1940  0750  77          	ld	(hl), a
1941  0751  CD 5C 07    	call	_player_pick_item
1942  0754  21 00 00    	ld	hl,_sprite_curr_index
1943  0757  34          	inc	(hl)
1944  0758  CD 5C 07    	call	_player_pick_item
1945  075B              l_player_check_map_00110:
1946  075B  C9          	ret
1947  075C              	SECTION code_compiler
1948  075C              ;	---------------------------------
1949  075C              ; Function player_pick_item
1950  075C              ; ---------------------------------
1951  075C              _player_pick_item:
1952  075C  CD 00 00    	call	___sdcc_enter_ix
1953  075F  2A 00 00    	ld	hl,(_sprite_curr_index)
1954  0762  F5          	push	af
1955  0763  26 00       	ld	h,0x00
1956  0765  01 00 00    	ld	bc,_scr_map
1957  0768  09          	add	hl,bc
1958  0769  4E          	ld	c,(hl)
1959  076A  3E 27       	ld	a,0x27
1960  076C  91          	sub	a, c
1961  076D  3E 00       	ld	a,0x00
1962  076F  17          	rla
1963  0770  47          	ld	b, a
1964  0771  79          	ld	a, c
1965  0772  D6 18       	sub	a,0x18
1966  0774  DA 5E 08    	jp	C, l_player_pick_item_00107
1967  0777  CB 40       	bit	0, b
1968  0779  C2 5E 08    	jp	NZ, l_player_pick_item_00107
1969  077C  CD 00 00    	call	_ay_reset
1970  077F  21 00 00    	ld	hl,_ay_effect_10
1971  0782  CD 00 00    	call	_ay_fx_play
1972  0785  C5          	push	bc
1973  0786  CD 00 00    	call	_sound_coin
1974  0789  C1          	pop	bc
1975  078A  2A 00 00    	ld	hl,(_sprite_curr_index)
1976  078D  26 00       	ld	h,0x00
1977  078F  11 00 00    	ld	de,_scr_map
1978  0792  19          	add	hl,de
1979  0793  AF          	xor	a,a
1980  0794  77          	ld	(hl),a
1981  0795  3A 00 00    	ld	a,(_sprite_curr_index)
1982  0798  5F          	ld	e,a
1983  0799  16 00       	ld	d,0x00
1984  079B  21 00 00    	ld	hl,_scr_obj
1985  079E  19          	add	hl,de
1986  079F  7E          	ld	a,(hl)
1987  07A0  EB          	ex	de,hl
1988  07A1  DD 77 FE    	ld	(ix-2),a
1989  07A4  3A 00 00    	ld	a,(_scr_curr)
1990  07A7  DD 36 FF 01 	ld	(ix-1),0x01
1991  07AB  3C          	inc	a
1992  07AC  18 04       	jr	l_player_pick_item_00153
1993  07AE              l_player_pick_item_00152:
1994  07AE  DD CB FF 26 	sla	(ix-1)
1995  07B2              l_player_pick_item_00153:
1996  07B2  3D          	dec	a
1997  07B3  20 F9       	jr	NZ,l_player_pick_item_00152
1998  07B5  DD 7E FE    	ld	a,(ix-2)
1999  07B8  DD B6 FF    	or	a,(ix-1)
2000  07BB  12          	ld	(de), a
2001  07BC  3A 00 00    	ld	a,(_sprite_curr_index)
2002  07BF  07          	rlca
2003  07C0  07          	rlca
2004  07C1  07          	rlca
2005  07C2  07          	rlca
2006  07C3  E6 0F       	and	a,0x0f
2007  07C5  07          	rlca
2008  07C6  07          	rlca
2009  07C7  07          	rlca
2010  07C8  07          	rlca
2011  07C9  E6 F0       	and	a,0xf0
2012  07CB  32 00 00    	ld	(_s_lin1),a
2013  07CE  3A 00 00    	ld	a,(_sprite_curr_index)
2014  07D1  E6 0F       	and	a,0x0f
2015  07D3  87          	add	a, a
2016  07D4  32 00 00    	ld	(_s_col1),a
2017  07D7  C5          	push	bc
2018  07D8  21 78 03    	ld	hl,0x0378
2019  07DB  E5          	push	hl
2020  07DC  F5          	push	af
2021  07DD  33          	inc	sp
2022  07DE  3A 00 00    	ld	a,(_s_lin1)
2023  07E1  F5          	push	af
2024  07E2  33          	inc	sp
2025  07E3  CD 00 00    	call	_spr_add_anim
2026  07E6  F1          	pop	af
2027  07E7  F1          	pop	af
2028  07E8  C1          	pop	bc
2029  07E9  79          	ld	a,c
2030  07EA  FE 1C       	cp	a,0x1c
2031  07EC  28 0E       	jr	Z,l_player_pick_item_00101
2032  07EE  FE 1D       	cp	a,0x1d
2033  07F0  28 23       	jr	Z,l_player_pick_item_00102
2034  07F2  FE 1E       	cp	a,0x1e
2035  07F4  28 38       	jr	Z,l_player_pick_item_00103
2036  07F6  D6 1F       	sub	a,0x1f
2037  07F8  28 4D       	jr	Z,l_player_pick_item_00104
2038  07FA  18 62       	jr	l_player_pick_item_00107
2039  07FC              l_player_pick_item_00101:
2040  07FC  21 00 00    	ld	hl,_player_keys
2041  07FF  36 01       	ld	(hl),0x01
2042  0801  21 00 00    	ld	hl,_screen_ink
2043  0804  36 07       	ld	(hl),0x07
2044  0806  C5          	push	bc
2045  0807  21 00 00    	ld	hl,___str_0
2046  080A  E5          	push	hl
2047  080B  21 16 03    	ld	hl,0x0316
2048  080E  E5          	push	hl
2049  080F  CD 00 00    	call	_zx_print_str
2050  0812  C1          	pop	bc
2051  0813  18 49       	jr	l_player_pick_item_00107
2052  0815              l_player_pick_item_00102:
2053  0815  21 01 00    	ld	hl, +(_player_keys + 0x0001)
2054  0818  36 01       	ld	(hl),0x01
2055  081A  21 00 00    	ld	hl,_screen_ink
2056  081D  36 02       	ld	(hl),0x02
2057  081F  C5          	push	bc
2058  0820  21 00 00    	ld	hl,___str_0
2059  0823  E5          	push	hl
2060  0824  21 16 04    	ld	hl,0x0416
2061  0827  E5          	push	hl
2062  0828  CD 00 00    	call	_zx_print_str
2063  082B  C1          	pop	bc
2064  082C  18 30       	jr	l_player_pick_item_00107
2065  082E              l_player_pick_item_00103:
2066  082E  21 02 00    	ld	hl, +(_player_keys + 0x0002)
2067  0831  36 01       	ld	(hl),0x01
2068  0833  21 00 00    	ld	hl,_screen_ink
2069  0836  36 04       	ld	(hl),0x04
2070  0838  C5          	push	bc
2071  0839  21 00 00    	ld	hl,___str_0
2072  083C  E5          	push	hl
2073  083D  21 16 05    	ld	hl,0x0516
2074  0840  E5          	push	hl
2075  0841  CD 00 00    	call	_zx_print_str
2076  0844  C1          	pop	bc
2077  0845  18 17       	jr	l_player_pick_item_00107
2078  0847              l_player_pick_item_00104:
2079  0847  21 03 00    	ld	hl, +(_player_keys + 0x0003)
2080  084A  36 01       	ld	(hl),0x01
2081  084C  21 00 00    	ld	hl,_screen_ink
2082  084F  36 05       	ld	(hl),0x05
2083  0851  C5          	push	bc
2084  0852  21 00 00    	ld	hl,___str_0
2085  0855  E5          	push	hl
2086  0856  21 16 06    	ld	hl,0x0616
2087  0859  E5          	push	hl
2088  085A  CD 00 00    	call	_zx_print_str
2089  085D  C1          	pop	bc
2090  085E              l_player_pick_item_00107:
2091  085E  CB 40       	bit	0, b
2092  0860  28 11       	jr	Z,l_player_pick_item_00114
2093  0862  79          	ld	a, c
2094  0863  D6 30       	sub	a,0x30
2095  0865  30 0C       	jr	NC,l_player_pick_item_00114
2096  0867  3A 07 00    	ld	a,(_lin + 0x0007)
2097  086A  E6 03       	and	a,0x03
2098  086C  28 05       	jr	Z,l_player_pick_item_00114
2099  086E  2E 06       	ld	l,0x06
2100  0870  CD 00 00    	call	_zx_border_fastcall
2101  0873              l_player_pick_item_00114:
2102  0873  F1          	pop	af
2103  0874  DD E1       	pop	ix
2104  0876  C9          	ret
2105  0877              	SECTION rodata_compiler
2106  0000              ___str_0:
2107  0000  5D          	DEFM "]"
2108  0001  00          	DEFB 0x00
2109  0002              	SECTION code_compiler
2110  0877              ;	---------------------------------
2111  0877              ; Function player_hit_platform
2112  0877              ; ---------------------------------
2113  0877              _player_hit_platform:
2114  0877  3A 00 00    	ld	a,(_player_hit_lin)
2115  087A  B7          	or	a, a
2116  087B  C2 9A 09    	jp	NZ, l_player_hit_platform_00120
2117  087E  2A 00 00    	ld	hl,(_sprite)
2118  0881  26 00       	ld	h,0x00
2119  0883  01 00 00    	ld	bc,_lin
2120  0886  09          	add	hl,bc
2121  0887  4E          	ld	c,(hl)
2122  0888  3E 10       	ld	a,0x10
2123  088A  91          	sub	a, c
2124  088B  D2 9A 09    	jp	NC, l_player_hit_platform_00120
2125  088E  21 00 00    	ld	hl,_enemies
2126  0891  36 00       	ld	(hl),0x00
2127  0893              l_player_hit_platform_00122:
2128  0893  2A 00 00    	ld	hl,(_enemies)
2129  0896  26 00       	ld	h,0x00
2130  0898  01 00 00    	ld	bc,_class
2131  089B  09          	add	hl,bc
2132  089C  7E          	ld	a,(hl)
2133  089D  B7          	or	a, a
2134  089E  28 64       	jr	Z,l_player_hit_platform_00123
2135  08A0  2A 00 00    	ld	hl,(_sprite)
2136  08A3  26 00       	ld	h,0x00
2137  08A5  01 00 00    	ld	bc,_lin
2138  08A8  09          	add	hl,bc
2139  08A9  4E          	ld	c,(hl)
2140  08AA  06 00       	ld	b,0x00
2141  08AC  2A 00 00    	ld	hl,(_enemies)
2142  08AF  60          	ld	h,b
2143  08B0  11 00 00    	ld	de,_lin
2144  08B3  19          	add	hl,de
2145  08B4  5E          	ld	e, (hl)
2146  08B5  16 00       	ld	d,0x00
2147  08B7  79          	ld	a,c
2148  08B8  93          	sub	a,e
2149  08B9  4F          	ld	c,a
2150  08BA  78          	ld	a,b
2151  08BB  9A          	sbc	a,d
2152  08BC  47          	ld	b,a
2153  08BD  79          	ld	a,c
2154  08BE  D6 18       	sub	a,0x18
2155  08C0  B0          	or	a,b
2156  08C1  20 41       	jr	NZ,l_player_hit_platform_00123
2157  08C3  2A 00 00    	ld	hl,(_enemies)
2158  08C6  26 00       	ld	h,0x00
2159  08C8  01 00 00    	ld	bc,_state
2160  08CB  09          	add	hl,bc
2161  08CC  CB 6E       	bit	5,(hl)
2162  08CE  20 34       	jr	NZ,l_player_hit_platform_00123
2163  08D0  2A 00 00    	ld	hl,(_sprite)
2164  08D3  26 00       	ld	h,0x00
2165  08D5  01 00 00    	ld	bc,_col
2166  08D8  09          	add	hl,bc
2167  08D9  4E          	ld	c,(hl)
2168  08DA  06 00       	ld	b,0x00
2169  08DC  2A 00 00    	ld	hl,(_enemies)
2170  08DF  60          	ld	h,b
2171  08E0  11 00 00    	ld	de,_col
2172  08E3  19          	add	hl,de
2173  08E4  5E          	ld	e, (hl)
2174  08E5  16 00       	ld	d,0x00
2175  08E7  79          	ld	a, c
2176  08E8  93          	sub	a, e
2177  08E9  6F          	ld	l, a
2178  08EA  78          	ld	a, b
2179  08EB  9A          	sbc	a, d
2180  08EC  67          	ld	h, a
2181  08ED  CD 00 00    	call	_abs_fastcall
2182  08F0  3E 02       	ld	a,0x02
2183  08F2  BD          	cp	a,l
2184  08F3  3E 00       	ld	a,0x00
2185  08F5  9C          	sbc	a,h
2186  08F6  E2 FB 08    	jp	PO, l_player_hit_platform_00178
2187  08F9  EE 80       	xor	a,0x80
2188  08FB              l_player_hit_platform_00178:
2189  08FB  FA 04 09    	jp	M, l_player_hit_platform_00123
2190  08FE  CD 00 00    	call	_enemy_hit
2191  0901  CD 00 00    	call	_sound_hit_enemy
2192  0904              l_player_hit_platform_00123:
2193  0904  21 00 00    	ld	hl,_enemies
2194  0907  7E          	ld	a,(hl)
2195  0908  3C          	inc	a
2196  0909  77          	ld	(hl),a
2197  090A  D6 06       	sub	a,0x06
2198  090C  38 85       	jr	C,l_player_hit_platform_00122
2199  090E  01 00 00    	ld	bc,_spr_timer+0
2200  0911  2A 00 00    	ld	hl,(_sprite)
2201  0914  26 00       	ld	h,0x00
2202  0916  29          	add	hl, hl
2203  0917  09          	add	hl,bc
2204  0918  ED 5B 00 00 	ld	de,(_curr_time)
2205  091C  73          	ld	(hl),e
2206  091D  23          	inc	hl
2207  091E  72          	ld	(hl),d
2208  091F  2A 00 00    	ld	hl,(_sprite)
2209  0922  26 00       	ld	h,0x00
2210  0924  01 00 00    	ld	bc,_lin
2211  0927  09          	add	hl,bc
2212  0928  4E          	ld	c,(hl)
2213  0929  06 00       	ld	b,0x00
2214  092B  79          	ld	a, c
2215  092C  C6 F8       	add	a,0xf8
2216  092E  4F          	ld	c, a
2217  092F  78          	ld	a, b
2218  0930  CE FF       	adc	a,0xff
2219  0932  5F          	ld	e, a
2220  0933  06 04       	ld	b,0x04
2221  0935              l_player_hit_platform_00179:
2222  0935  CB 2B       	sra	e
2223  0937  CB 19       	rr	c
2224  0939  10 FA       	djnz	l_player_hit_platform_00179
2225  093B  79          	ld	a, c
2226  093C  07          	rlca
2227  093D  07          	rlca
2228  093E  07          	rlca
2229  093F  07          	rlca
2230  0940  E6 F0       	and	a,0xf0
2231  0942  C6 08       	add	a,0x08
2232  0944  32 00 00    	ld	(_player_hit_lin),a
2233  0947  2A 00 00    	ld	hl,(_sprite)
2234  094A  26 00       	ld	h,0x00
2235  094C  01 00 00    	ld	bc,_col
2236  094F  09          	add	hl,bc
2237  0950  4E          	ld	c,(hl)
2238  0951  CB 41       	bit	0,c
2239  0953  20 06       	jr	NZ,l_player_hit_platform_00117
2240  0955  21 00 00    	ld	hl,_player_hit_col
2241  0958  71          	ld	(hl), c
2242  0959  18 33       	jr	l_player_hit_platform_00118
2243  095B              l_player_hit_platform_00117:
2244  095B  2A 00 00    	ld	hl,(_sprite)
2245  095E  26 00       	ld	h,0x00
2246  0960  11 00 00    	ld	de,_state
2247  0963  19          	add	hl,de
2248  0964  5E          	ld	e, (hl)
2249  0965  41          	ld	b, c
2250  0966  04          	inc	b
2251  0967  0D          	dec	c
2252  0968  CB 5B       	bit	3, e
2253  096A  28 12       	jr	Z,l_player_hit_platform_00114
2254  096C  3A 00 00    	ld	a,(_g_player_hit_right)
2255  096F  B7          	or	a, a
2256  0970  28 06       	jr	Z,l_player_hit_platform_00108
2257  0972  21 00 00    	ld	hl,_player_hit_col
2258  0975  70          	ld	(hl), b
2259  0976  18 16       	jr	l_player_hit_platform_00118
2260  0978              l_player_hit_platform_00108:
2261  0978  21 00 00    	ld	hl,_player_hit_col
2262  097B  71          	ld	(hl), c
2263  097C  18 10       	jr	l_player_hit_platform_00118
2264  097E              l_player_hit_platform_00114:
2265  097E  3A 00 00    	ld	a,(_g_player_hit_left)
2266  0981  B7          	or	a, a
2267  0982  28 06       	jr	Z,l_player_hit_platform_00111
2268  0984  21 00 00    	ld	hl,_player_hit_col
2269  0987  71          	ld	(hl), c
2270  0988  18 04       	jr	l_player_hit_platform_00118
2271  098A              l_player_hit_platform_00111:
2272  098A  21 00 00    	ld	hl,_player_hit_col
2273  098D  70          	ld	(hl), b
2274  098E              l_player_hit_platform_00118:
2275  098E  2E 01       	ld	l,0x01
2276  0990  CD 00 00    	call	_spr_brick_anim
2277  0993  CD 00 00    	call	_sound_hit_brick
2278  0996  2E 01       	ld	l,0x01
2279  0998  18 02       	jr	l_player_hit_platform_00124
2280  099A              l_player_hit_platform_00120:
2281  099A  2E 00       	ld	l,0x00
2282  099C              l_player_hit_platform_00124:
2283  099C  C9          	ret
2284  099D              	SECTION code_compiler
2285  099D              ;	---------------------------------
2286  099D              ; Function player_hit_platform_clear
2287  099D              ; ---------------------------------
2288  099D              _player_hit_platform_clear:
2289  099D  2A 00 00    	ld	hl,(_sprite)
2290  09A0  26 00       	ld	h,0x00
2291  09A2  29          	add	hl, hl
2292  09A3  11 00 00    	ld	de,_spr_timer
2293  09A6  19          	add	hl, de
2294  09A7  4E          	ld	c, (hl)
2295  09A8  23          	inc	hl
2296  09A9  46          	ld	b, (hl)
2297  09AA  21 04 00    	ld	hl,0x0004
2298  09AD  E5          	push	hl
2299  09AE  C5          	push	bc
2300  09AF  CD 00 00    	call	_game_check_time
2301  09B2  F1          	pop	af
2302  09B3  F1          	pop	af
2303  09B4  7D          	ld	a, l
2304  09B5  B7          	or	a, a
2305  09B6  C8          	ret	Z
2306  09B7  2A FF FF    	ld	hl,(_player_hit_col - 1)
2307  09BA  3A 00 00    	ld	a,(_player_hit_lin)
2308  09BD  6F          	ld	l,a
2309  09BE  E5          	push	hl
2310  09BF  CD 00 00    	call	_spr_calc_index
2311  09C2  F1          	pop	af
2312  09C3  22 00 00    	ld	(_index1),hl
2313  09C6  2E 00       	ld	l,0x00
2314  09C8  CD 00 00    	call	_spr_brick_anim
2315  09CB  21 00 00    	ld	hl,_player_hit_lin
2316  09CE  36 00       	ld	(hl),0x00
2317  09D0  21 00 00    	ld	hl,_player_hit_col
2318  09D3  36 00       	ld	(hl),0x00
2319  09D5  C9          	ret
2320  09D6              	SECTION code_compiler
2321  09D6              ;	---------------------------------
2322  09D6              ; Function player_score_add
2323  09D6              ; ---------------------------------
2324  09D6              _player_score_add:
2325  09D6  ED 4B 00 00 	ld	bc,(_player_score)
2326  09DA  09          	add	hl,bc
2327  09DB  22 00 00    	ld	(_player_score),hl
2328  09DE  3A 00 00    	ld	a,(_game_score_top)
2329  09E1  21 00 00    	ld	hl,_player_score
2330  09E4  96          	sub	a, (hl)
2331  09E5  3A 01 00    	ld	a,(_game_score_top + 1)
2332  09E8  23          	inc	hl
2333  09E9  9E          	sbc	a, (hl)
2334  09EA  D2 00 00    	jp	NC,_game_print_score
2335  09ED  2A 00 00    	ld	hl,(_player_score)
2336  09F0  22 00 00    	ld	(_game_score_top),hl
2337  09F3  C3 00 00    	jp  _game_print_score
2338  09F6              	SECTION code_compiler
2339  09F6              ;	---------------------------------
2340  09F6              ; Function player_check_floor
2341  09F6              ; ---------------------------------
2342  09F6              _player_check_floor:
2343  09F6  CD 00 00    	call	___sdcc_enter_ix
2344  09F9  3B          	dec	sp
2345  09FA  2A 00 00    	ld	hl,(_sprite)
2346  09FD  26 00       	ld	h,0x00
2347  09FF  01 00 00    	ld	bc,_col
2348  0A02  09          	add	hl,bc
2349  0A03  56          	ld	d, (hl)
2350  0A04  2A 00 00    	ld	hl,(_sprite)
2351  0A07  26 00       	ld	h,0x00
2352  0A09  01 00 00    	ld	bc,_lin
2353  0A0C  09          	add	hl,bc
2354  0A0D  7E          	ld	a,(hl)
2355  0A0E  C6 10       	add	a,0x10
2356  0A10  5F          	ld	e, a
2357  0A11  D5          	push	de
2358  0A12  CD 00 00    	call	_spr_calc_index
2359  0A15  F1          	pop	af
2360  0A16  4D          	ld	c, l
2361  0A17  44          	ld	b, h
2362  0A18  21 00 00    	ld	hl,_scr_map
2363  0A1B  09          	add	hl, bc
2364  0A1C  7E          	ld	a, (hl)
2365  0A1D  DD 77 FF    	ld	(ix-1),a
2366  0A20  2A 00 00    	ld	hl,(_sprite)
2367  0A23  26 00       	ld	h,0x00
2368  0A25  11 00 00    	ld	de,_col
2369  0A28  19          	add	hl,de
2370  0A29  7E          	ld	a,(hl)
2371  0A2A  0F          	rrca
2372  0A2B  38 04       	jr	C,l_player_check_floor_00102
2373  0A2D  0E 01       	ld	c,0x01
2374  0A2F  18 06       	jr	l_player_check_floor_00103
2375  0A31              l_player_check_floor_00102:
2376  0A31  03          	inc	bc
2377  0A32  21 00 00    	ld	hl,_scr_map
2378  0A35  09          	add	hl, bc
2379  0A36  4E          	ld	c, (hl)
2380  0A37              l_player_check_floor_00103:
2381  0A37  3A 00 00    	ld	a,(_s_lin0)
2382  0A3A  D6 90       	sub	a,0x90
2383  0A3C  20 04       	jr	NZ,l_player_check_floor_00105
2384  0A3E  DD 36 FF 3C 	ld	(ix-1),0x3c
2385  0A42              l_player_check_floor_00105:
2386  0A42  DD 7E FF    	ld	a,(ix-1)
2387  0A45  D6 30       	sub	a,0x30
2388  0A47  38 07       	jr	C,l_player_check_floor_00110
2389  0A49  DD 7E FF    	ld	a,(ix-1)
2390  0A4C  D6 54       	sub	a,0x54
2391  0A4E  38 1E       	jr	C,l_player_check_floor_00111
2392  0A50              l_player_check_floor_00110:
2393  0A50  79          	ld	a,c
2394  0A51  FE 30       	cp	a,0x30
2395  0A53  38 04       	jr	C,l_player_check_floor_00106
2396  0A55  D6 54       	sub	a,0x54
2397  0A57  38 15       	jr	C,l_player_check_floor_00111
2398  0A59              l_player_check_floor_00106:
2399  0A59  2A 00 00    	ld	hl,(_sprite)
2400  0A5C  26 00       	ld	h,0x00
2401  0A5E  01 00 00    	ld	bc,_sprite_speed_alt
2402  0A61  09          	add	hl,bc
2403  0A62  36 02       	ld	(hl),0x02
2404  0A64  21 00 00    	ld	hl,_s_state
2405  0A67  CB CE       	set	1, (hl)
2406  0A69  2E 00       	ld	l,0x00
2407  0A6B  CD 05 04    	call	_player_check_stairs
2408  0A6E              l_player_check_floor_00111:
2409  0A6E  33          	inc	sp
2410  0A6F  DD E1       	pop	ix
2411  0A71  C9          	ret
2412  0A72              	SECTION code_compiler
2413  0A72              ;	---------------------------------
2414  0A72              ; Function player_move_jump
2415  0A72              ; ---------------------------------
2416  0A72              _player_move_jump:
2417  0A72  CD 00 00    	call	___sdcc_enter_ix
2418  0A75  3B          	dec	sp
2419  0A76  21 00 00    	ld	hl,_game_gravity
2420  0A79  4E          	ld	c, (hl)
2421  0A7A  21 00 00    	ld	hl,_player_vel_y
2422  0A7D  7E          	ld	a, (hl)
2423  0A7E  81          	add	a, c
2424  0A7F  77          	ld	(hl), a
2425  0A80  21 00 00    	ld	hl,_sprite_on_air
2426  0A83  36 01       	ld	(hl),0x01
2427  0A85  3A 00 00    	ld	a,(_player_vel_inc)
2428  0A88  B7          	or	a, a
2429  0A89  28 24       	jr	Z,l_player_move_jump_00106
2430  0A8B  21 00 00    	ld	hl,_dirs
2431  0A8E  CB 7E       	bit	7, (hl)
2432  0A90  20 1D       	jr	NZ,l_player_move_jump_00106
2433  0A92  3A 00 00    	ld	a,(_player_vel_y1)
2434  0A95  21 00 00    	ld	hl,_player_vel_y
2435  0A98  96          	sub	a, (hl)
2436  0A99  E2 9E 0A    	jp	PO, l_player_move_jump_00224
2437  0A9C  EE 80       	xor	a,0x80
2438  0A9E              l_player_move_jump_00224:
2439  0A9E  F2 AF 0A    	jp	P, l_player_move_jump_00106
2440  0AA1  21 00 00    	ld	hl,_player_vel_y
2441  0AA4  CB 7E       	bit	7,(hl)
2442  0AA6  28 07       	jr	Z,l_player_move_jump_00106
2443  0AA8  36 00       	ld	(hl),0x00
2444  0AAA  21 00 00    	ld	hl,_player_vel_inc
2445  0AAD  36 00       	ld	(hl),0x00
2446  0AAF              l_player_move_jump_00106:
2447  0AAF  3E 78       	ld	a,0x78
2448  0AB1  21 00 00    	ld	hl,_player_vel_y
2449  0AB4  96          	sub	a, (hl)
2450  0AB5  E2 BA 0A    	jp	PO, l_player_move_jump_00225
2451  0AB8  EE 80       	xor	a,0x80
2452  0ABA              l_player_move_jump_00225:
2453  0ABA  F2 C2 0A    	jp	P, l_player_move_jump_00108
2454  0ABD  21 00 00    	ld	hl,_player_vel_y
2455  0AC0  36 78       	ld	(hl),0x78
2456  0AC2              l_player_move_jump_00108:
2457  0AC2  21 00 00    	ld	hl,_player_vel_y
2458  0AC5  7E          	ld	a, (hl)
2459  0AC6  EE 80       	xor	a,0x80
2460  0AC8  D6 08       	sub	a,0x08
2461  0ACA  30 02       	jr	NC,l_player_move_jump_00110
2462  0ACC  36 88       	ld	(hl),0x88
2463  0ACE              l_player_move_jump_00110:
2464  0ACE  3A 00 00    	ld	a,(_player_vel_y)
2465  0AD1  5F          	ld	e,a
2466  0AD2  17          	rla
2467  0AD3  9F          	sbc	a, a
2468  0AD4  57          	ld	d, a
2469  0AD5  CB 43       	bit	0,e
2470  0AD7  21 00 00    	ld	hl,_s_lin1
2471  0ADA  73          	ld	(hl),e
2472  0ADB  28 04       	jr	Z,l_player_move_jump_00112
2473  0ADD  21 00 00    	ld	hl,_s_lin1
2474  0AE0  35          	dec	(hl)
2475  0AE1              l_player_move_jump_00112:
2476  0AE1  2A 00 00    	ld	hl,(_sprite)
2477  0AE4  26 00       	ld	h,0x00
2478  0AE6  01 00 00    	ld	bc,_lin
2479  0AE9  09          	add	hl,bc
2480  0AEA  7E          	ld	a,(hl)
2481  0AEB  DD 77 FF    	ld	(ix-1),a
2482  0AEE  4D          	ld	c,l
2483  0AEF  44          	ld	b,h
2484  0AF0  21 00 00    	ld	hl,_s_lin1
2485  0AF3  86          	add	a, (hl)
2486  0AF4  77          	ld	(hl), a
2487  0AF5  3E 90       	ld	a,0x90
2488  0AF7  96          	sub	a, (hl)
2489  0AF8  30 0E       	jr	NC,l_player_move_jump_00117
2490  0AFA  3E C8       	ld	a,0xc8
2491  0AFC  96          	sub	a, (hl)
2492  0AFD  30 04       	jr	NC,l_player_move_jump_00114
2493  0AFF  36 00       	ld	(hl),0x00
2494  0B01  18 05       	jr	l_player_move_jump_00117
2495  0B03              l_player_move_jump_00114:
2496  0B03  21 00 00    	ld	hl,_s_lin1
2497  0B06  36 90       	ld	(hl),0x90
2498  0B08              l_player_move_jump_00117:
2499  0B08  3A 00 00    	ld	a,(_s_lin0)
2500  0B0B  07          	rlca
2501  0B0C  07          	rlca
2502  0B0D  07          	rlca
2503  0B0E  07          	rlca
2504  0B0F  E6 0F       	and	a,0x0f
2505  0B11  DD 77 FF    	ld	(ix-1),a
2506  0B14  CB 7A       	bit	7, d
2507  0B16  28 73       	jr	Z,l_player_move_jump_00140
2508  0B18  21 00 00    	ld	hl,_s_state
2509  0B1B  7E          	ld	a,(hl)
2510  0B1C  F6 01       	or	a,0x01
2511  0B1E  E6 FD       	and	a,0xfd
2512  0B20  77          	ld	(hl),a
2513  0B21  21 00 00    	ld	hl,_s_lin1
2514  0B24  DD 7E FF    	ld	a,(ix-1)
2515  0B27  96          	sub	a,(hl)
2516  0B28  20 04       	jr	NZ,l_player_move_jump_00227
2517  0B2A  3E 01       	ld	a,0x01
2518  0B2C  18 01       	jr	l_player_move_jump_00228
2519  0B2E              l_player_move_jump_00227:
2520  0B2E  AF          	xor	a,a
2521  0B2F              l_player_move_jump_00228:
2522  0B2F  EE 01       	xor	a,0x01
2523  0B31  28 51       	jr	Z,l_player_move_jump_00124
2524  0B33  2A 00 00    	ld	hl,(_sprite)
2525  0B36  26 00       	ld	h,0x00
2526  0B38  01 00 00    	ld	bc,_col
2527  0B3B  09          	add	hl,bc
2528  0B3C  7E          	ld	a,(hl)
2529  0B3D  F5          	push	af
2530  0B3E  33          	inc	sp
2531  0B3F  3A 00 00    	ld	a,(_s_lin1)
2532  0B42  F5          	push	af
2533  0B43  33          	inc	sp
2534  0B44  CD 00 00    	call	_game_check_map
2535  0B47  F1          	pop	af
2536  0B48  7C          	ld	a,h
2537  0B49  B5          	or	a,l
2538  0B4A  28 28       	jr	Z,l_player_move_jump_00121
2539  0B4C  CD 77 08    	call	_player_hit_platform
2540  0B4F  7D          	ld	a, l
2541  0B50  B7          	or	a, a
2542  0B51  28 19       	jr	Z,l_player_move_jump_00119
2543  0B53  2A 00 00    	ld	hl,(_sprite)
2544  0B56  26 00       	ld	h,0x00
2545  0B58  01 00 00    	ld	bc,_lin
2546  0B5B  09          	add	hl,bc
2547  0B5C  7E          	ld	a,(hl)
2548  0B5D  4D          	ld	c,l
2549  0B5E  44          	ld	b,h
2550  0B5F  07          	rlca
2551  0B60  07          	rlca
2552  0B61  07          	rlca
2553  0B62  07          	rlca
2554  0B63  E6 0F       	and	a,0x0f
2555  0B65  07          	rlca
2556  0B66  07          	rlca
2557  0B67  07          	rlca
2558  0B68  07          	rlca
2559  0B69  E6 F0       	and	a,0xf0
2560  0B6B  02          	ld	(bc), a
2561  0B6C              l_player_move_jump_00119:
2562  0B6C  21 00 00    	ld	hl,_player_vel_y
2563  0B6F  36 00       	ld	(hl),0x00
2564  0B71  C3 4A 0C    	jp	l_player_move_jump_00141
2565  0B74              l_player_move_jump_00121:
2566  0B74  2A 00 00    	ld	hl,(_sprite)
2567  0B77  26 00       	ld	h,0x00
2568  0B79  01 00 00    	ld	bc,_lin
2569  0B7C  09          	add	hl,bc
2570  0B7D  3A 00 00    	ld	a,(_s_lin1)
2571  0B80  77          	ld	(hl),a
2572  0B81  C3 4A 0C    	jp	l_player_move_jump_00141
2573  0B84              l_player_move_jump_00124:
2574  0B84  3A 00 00    	ld	a,(_s_lin1)
2575  0B87  02          	ld	(bc), a
2576  0B88  C3 4A 0C    	jp	l_player_move_jump_00141
2577  0B8B              l_player_move_jump_00140:
2578  0B8B  21 00 00    	ld	hl,_s_state
2579  0B8E  7E          	ld	a,(hl)
2580  0B8F  F6 02       	or	a,0x02
2581  0B91  E6 FE       	and	a,0xfe
2582  0B93  77          	ld	(hl),a
2583  0B94  21 00 00    	ld	hl,_s_lin1
2584  0B97  7E          	ld	a, (hl)
2585  0B98  C6 10       	add	a,0x10
2586  0B9A  77          	ld	(hl), a
2587  0B9B  DD 7E FF    	ld	a,(ix-1)
2588  0B9E  96          	sub	a,(hl)
2589  0B9F  20 04       	jr	NZ,l_player_move_jump_00229
2590  0BA1  3E 01       	ld	a,0x01
2591  0BA3  18 01       	jr	l_player_move_jump_00230
2592  0BA5              l_player_move_jump_00229:
2593  0BA5  AF          	xor	a,a
2594  0BA6              l_player_move_jump_00230:
2595  0BA6  EE 01       	xor	a,0x01
2596  0BA8  CA 42 0C    	jp	Z, l_player_move_jump_00137
2597  0BAB  2A 00 00    	ld	hl,(_sprite)
2598  0BAE  26 00       	ld	h,0x00
2599  0BB0  01 00 00    	ld	bc,_col
2600  0BB3  09          	add	hl,bc
2601  0BB4  7E          	ld	a,(hl)
2602  0BB5  F5          	push	af
2603  0BB6  33          	inc	sp
2604  0BB7  3A 00 00    	ld	a,(_s_lin1)
2605  0BBA  F5          	push	af
2606  0BBB  33          	inc	sp
2607  0BBC  CD 00 00    	call	_game_check_map
2608  0BBF  F1          	pop	af
2609  0BC0  45          	ld	b, l
2610  0BC1  5C          	ld	e, h
2611  0BC2  21 00 00    	ld	hl,_s_lin1
2612  0BC5  7E          	ld	a, (hl)
2613  0BC6  C6 F0       	add	a,0xf0
2614  0BC8  4F          	ld	c, a
2615  0BC9  7B          	ld	a, e
2616  0BCA  B0          	or	a,b
2617  0BCB  28 62       	jr	Z,l_player_move_jump_00134
2618  0BCD  71          	ld	(hl), c
2619  0BCE  2E 00       	ld	l,0x00
2620  0BD0  CD 05 04    	call	_player_check_stairs
2621  0BD3  3A 00 00    	ld	a,(_player_over_stair)
2622  0BD6  B7          	or	a, a
2623  0BD7  20 05       	jr	NZ,l_player_move_jump_00127
2624  0BD9  2E 01       	ld	l,0x01
2625  0BDB  CD 05 04    	call	_player_check_stairs
2626  0BDE              l_player_move_jump_00127:
2627  0BDE  3A 00 00    	ld	a,(_player_over_stair)
2628  0BE1  B7          	or	a, a
2629  0BE2  20 30       	jr	NZ,l_player_move_jump_00132
2630  0BE4  21 00 00    	ld	hl,_s_lin1
2631  0BE7  7E          	ld	a, (hl)
2632  0BE8  07          	rlca
2633  0BE9  07          	rlca
2634  0BEA  07          	rlca
2635  0BEB  07          	rlca
2636  0BEC  E6 0F       	and	a,0x0f
2637  0BEE  07          	rlca
2638  0BEF  07          	rlca
2639  0BF0  07          	rlca
2640  0BF1  07          	rlca
2641  0BF2  E6 F0       	and	a,0xf0
2642  0BF4  77          	ld	(hl), a
2643  0BF5  2A 00 00    	ld	hl,(_sprite)
2644  0BF8  26 00       	ld	h,0x00
2645  0BFA  01 00 00    	ld	bc,_lin
2646  0BFD  09          	add	hl,bc
2647  0BFE  5E          	ld	e,(hl)
2648  0BFF  4D          	ld	c,l
2649  0C00  44          	ld	b,h
2650  0C01  21 00 00    	ld	hl,_s_lin1
2651  0C04  7E          	ld	a, (hl)
2652  0C05  93          	sub	a, e
2653  0C06  30 08       	jr	NC,l_player_move_jump_00129
2654  0C08  7E          	ld	a, (hl)
2655  0C09  C6 10       	add	a,0x10
2656  0C0B  02          	ld	(bc), a
2657  0C0C  2E 00       	ld	l,0x00
2658  0C0E  18 54       	jr	l_player_move_jump_00144
2659  0C10              l_player_move_jump_00129:
2660  0C10  3A 00 00    	ld	a,(_s_lin1)
2661  0C13  02          	ld	(bc), a
2662  0C14              l_player_move_jump_00132:
2663  0C14  21 00 00    	ld	hl,_player_vel_y
2664  0C17  36 00       	ld	(hl),0x00
2665  0C19  21 00 00    	ld	hl,_s_state
2666  0C1C  7E          	ld	a,(hl)
2667  0C1D  E6 FC       	and	a,+(0xfd&0xfe)
2668  0C1F  77          	ld	(hl),a
2669  0C20  2A 00 00    	ld	hl,(_sprite)
2670  0C23  26 00       	ld	h,0x00
2671  0C25  01 00 00    	ld	bc,_colint
2672  0C28  09          	add	hl,bc
2673  0C29  AF          	xor	a,a
2674  0C2A  77          	ld	(hl),a
2675  0C2B  2E 01       	ld	l,0x01
2676  0C2D  18 35       	jr	l_player_move_jump_00144
2677  0C2F              l_player_move_jump_00134:
2678  0C2F  21 00 00    	ld	hl,_s_lin1
2679  0C32  71          	ld	(hl), c
2680  0C33  2A 00 00    	ld	hl,(_sprite)
2681  0C36  26 00       	ld	h,0x00
2682  0C38  01 00 00    	ld	bc,_lin
2683  0C3B  09          	add	hl,bc
2684  0C3C  3A 00 00    	ld	a,(_s_lin1)
2685  0C3F  77          	ld	(hl),a
2686  0C40  18 08       	jr	l_player_move_jump_00141
2687  0C42              l_player_move_jump_00137:
2688  0C42  21 00 00    	ld	hl,_s_lin1
2689  0C45  7E          	ld	a, (hl)
2690  0C46  C6 F0       	add	a,0xf0
2691  0C48  77          	ld	(hl),a
2692  0C49  02          	ld	(bc), a
2693  0C4A              l_player_move_jump_00141:
2694  0C4A  21 00 00    	ld	hl,_sprite_horizontal_check
2695  0C4D  36 01       	ld	(hl),0x01
2696  0C4F  CD 00 00    	call	_spr_move_horizontal
2697  0C52  7D          	ld	a, l
2698  0C53  B7          	or	a, a
2699  0C54  28 07       	jr	Z,l_player_move_jump_00143
2700  0C56  21 00 00    	ld	hl,_s_state
2701  0C59  7E          	ld	a,(hl)
2702  0C5A  E6 F3       	and	a,+(0xf7&0xfb)
2703  0C5C  77          	ld	(hl),a
2704  0C5D              l_player_move_jump_00143:
2705  0C5D  21 00 00    	ld	hl,_sprite_horizontal_check
2706  0C60  36 00       	ld	(hl),0x00
2707  0C62  2E 00       	ld	l,0x00
2708  0C64              l_player_move_jump_00144:
2709  0C64  33          	inc	sp
2710  0C65  DD E1       	pop	ix
2711  0C67  C9          	ret
2712  0C68              	SECTION code_compiler
2713  0C68              ;	---------------------------------
2714  0C68              ; Function player_open_door
2715  0C68              ; ---------------------------------
2716  0C68              _player_open_door:
2717  0C68  CD 00 00    	call	___sdcc_enter_ix
2718  0C6B  0E 00       	ld	c,0x00
2719  0C6D  DD 7E 06    	ld	a,(ix+6)
2720  0C70  D6 3C       	sub	a,0x3c
2721  0C72  28 17       	jr	Z,l_player_open_door_00101
2722  0C74  DD 7E 06    	ld	a,(ix+6)
2723  0C77  D6 3D       	sub	a,0x3d
2724  0C79  28 1F       	jr	Z,l_player_open_door_00104
2725  0C7B  DD 7E 06    	ld	a,(ix+6)
2726  0C7E  D6 3E       	sub	a,0x3e
2727  0C80  28 27       	jr	Z,l_player_open_door_00107
2728  0C82  DD 7E 06    	ld	a,(ix+6)
2729  0C85  D6 3F       	sub	a,0x3f
2730  0C87  28 2F       	jr	Z,l_player_open_door_00110
2731  0C89  18 3A       	jr	l_player_open_door_00113
2732  0C8B              l_player_open_door_00101:
2733  0C8B  3A 00 00    	ld	a,(_player_keys)
2734  0C8E  B7          	or	a, a
2735  0C8F  28 34       	jr	Z,l_player_open_door_00113
2736  0C91  2E 07       	ld	l,0x07
2737  0C93  CD 00 00    	call	_zx_border_fastcall
2738  0C96  0E 01       	ld	c,0x01
2739  0C98  18 2B       	jr	l_player_open_door_00113
2740  0C9A              l_player_open_door_00104:
2741  0C9A  3A 01 00    	ld	a,(_player_keys + 0x0001)
2742  0C9D  B7          	or	a, a
2743  0C9E  28 25       	jr	Z,l_player_open_door_00113
2744  0CA0  2E 02       	ld	l,0x02
2745  0CA2  CD 00 00    	call	_zx_border_fastcall
2746  0CA5  0E 01       	ld	c,0x01
2747  0CA7  18 1C       	jr	l_player_open_door_00113
2748  0CA9              l_player_open_door_00107:
2749  0CA9  3A 02 00    	ld	a,(_player_keys + 0x0002)
2750  0CAC  B7          	or	a, a
2751  0CAD  28 16       	jr	Z,l_player_open_door_00113
2752  0CAF  2E 04       	ld	l,0x04
2753  0CB1  CD 00 00    	call	_zx_border_fastcall
2754  0CB4  0E 01       	ld	c,0x01
2755  0CB6  18 0D       	jr	l_player_open_door_00113
2756  0CB8              l_player_open_door_00110:
2757  0CB8  3A 03 00    	ld	a,(_player_keys + 0x0003)
2758  0CBB  B7          	or	a, a
2759  0CBC  28 07       	jr	Z,l_player_open_door_00113
2760  0CBE  2E 05       	ld	l,0x05
2761  0CC0  CD 00 00    	call	_zx_border_fastcall
2762  0CC3  0E 01       	ld	c,0x01
2763  0CC5              l_player_open_door_00113:
2764  0CC5  79          	ld	a, c
2765  0CC6  B7          	or	a, a
2766  0CC7  28 45       	jr	Z,l_player_open_door_00116
2767  0CC9  DD 6E 04    	ld	l,(ix+4)
2768  0CCC  DD 66 05    	ld	h,(ix+5)
2769  0CCF  E5          	push	hl
2770  0CD0  21 00 00    	ld	hl,0x0000
2771  0CD3  E5          	push	hl
2772  0CD4  CD 00 00    	call	_zx_print_int
2773  0CD7  3E 00       	ld	a, +((_scr_map) & 0xFF)
2774  0CD9  DD 86 04    	add	a,(ix+4)
2775  0CDC  4F          	ld	c, a
2776  0CDD  3E 00       	ld	a, +((_scr_map) / 256)
2777  0CDF  DD 8E 05    	adc	a,(ix+5)
2778  0CE2  47          	ld	b, a
2779  0CE3  AF          	xor	a, a
2780  0CE4  02          	ld	(bc), a
2781  0CE5  3E 00       	ld	a, +((_scr_obj) & 0xFF)
2782  0CE7  DD 86 04    	add	a,(ix+4)
2783  0CEA  4F          	ld	c, a
2784  0CEB  3E 00       	ld	a, +((_scr_obj) / 256)
2785  0CED  DD 8E 05    	adc	a,(ix+5)
2786  0CF0  47          	ld	b, a
2787  0CF1  0A          	ld	a, (bc)
2788  0CF2  5F          	ld	e, a
2789  0CF3  3A 00 00    	ld	a,(_scr_curr)
2790  0CF6  3C          	inc	a
2791  0CF7  16 01       	ld	d,0x01
2792  0CF9  18 02       	jr	l_player_open_door_00159
2793  0CFB              l_player_open_door_00158:
2794  0CFB  CB 22       	sla	d
2795  0CFD              l_player_open_door_00159:
2796  0CFD  3D          	dec	a
2797  0CFE  20 FB       	jr	NZ,l_player_open_door_00158
2798  0D00  7B          	ld	a, e
2799  0D01  B2          	or	a, d
2800  0D02  02          	ld	(bc), a
2801  0D03  DD 6E 04    	ld	l,(ix+4)
2802  0D06  DD 66 05    	ld	h,(ix+5)
2803  0D09  E5          	push	hl
2804  0D0A  CD 00 00    	call	_spr_draw_index
2805  0D0D  F1          	pop	af
2806  0D0E              l_player_open_door_00116:
2807  0D0E  DD E1       	pop	ix
2808  0D10  C9          	ret
2809  0D11              	SECTION IGNORE
2810  0000              
