1     0000              MODULE game_player_c
2     0000              
3     0000              ;--------------------------------------------------------
4     0000              ; File Created by SDCC : free open source ANSI-C Compiler
5     0000              ; Version 3.6.5 #9958 (Mac OS X i386)
6     0000              ;--------------------------------------------------------
7     0000              ; Processed by Z88DK
8     0000              ;--------------------------------------------------------
9     0000              
10    0000              	EXTERN __divschar
11    0000              	EXTERN __divschar_callee
12    0000              	EXTERN __divsint
13    0000              	EXTERN __divsint_callee
14    0000              	EXTERN __divslong
15    0000              	EXTERN __divslong_callee
16    0000              	EXTERN __divslonglong
17    0000              	EXTERN __divslonglong_callee
18    0000              	EXTERN __divsuchar
19    0000              	EXTERN __divsuchar_callee
20    0000              	EXTERN __divuchar
21    0000              	EXTERN __divuchar_callee
22    0000              	EXTERN __divuint
23    0000              	EXTERN __divuint_callee
24    0000              	EXTERN __divulong
25    0000              	EXTERN __divulong_callee
26    0000              	EXTERN __divulonglong
27    0000              	EXTERN __divulonglong_callee
28    0000              	EXTERN __divuschar
29    0000              	EXTERN __divuschar_callee
30    0000              	EXTERN __modschar
31    0000              	EXTERN __modschar_callee
32    0000              	EXTERN __modsint
33    0000              	EXTERN __modsint_callee
34    0000              	EXTERN __modslong
35    0000              	EXTERN __modslong_callee
36    0000              	EXTERN __modslonglong
37    0000              	EXTERN __modslonglong_callee
38    0000              	EXTERN __modsuchar
39    0000              	EXTERN __modsuchar_callee
40    0000              	EXTERN __moduchar
41    0000              	EXTERN __moduchar_callee
42    0000              	EXTERN __moduint
43    0000              	EXTERN __moduint_callee
44    0000              	EXTERN __modulong
45    0000              	EXTERN __modulong_callee
46    0000              	EXTERN __modulonglong
47    0000              	EXTERN __modulonglong_callee
48    0000              	EXTERN __moduschar
49    0000              	EXTERN __moduschar_callee
50    0000              	EXTERN __mulint
51    0000              	EXTERN __mulint_callee
52    0000              	EXTERN __mullong
53    0000              	EXTERN __mullong_callee
54    0000              	EXTERN __mullonglong
55    0000              	EXTERN __mullonglong_callee
56    0000              	EXTERN __mulschar
57    0000              	EXTERN __mulschar_callee
58    0000              	EXTERN __mulsuchar
59    0000              	EXTERN __mulsuchar_callee
60    0000              	EXTERN __muluschar
61    0000              	EXTERN __muluschar_callee
62    0000              	EXTERN __rlslonglong
63    0000              	EXTERN __rlslonglong_callee
64    0000              	EXTERN __rlulonglong
65    0000              	EXTERN __rlulonglong_callee
66    0000              	EXTERN __rrslonglong
67    0000              	EXTERN __rrslonglong_callee
68    0000              	EXTERN __rrulonglong
69    0000              	EXTERN __rrulonglong_callee
70    0000              	EXTERN ___sdcc_call_hl
71    0000              	EXTERN ___sdcc_call_iy
72    0000              	EXTERN ___sdcc_enter_ix
73    0000              	EXTERN _banked_call
74    0000              	EXTERN _banked_ret
75    0000              	EXTERN ___fs2schar
76    0000              	EXTERN ___fs2schar_callee
77    0000              	EXTERN ___fs2sint
78    0000              	EXTERN ___fs2sint_callee
79    0000              	EXTERN ___fs2slong
80    0000              	EXTERN ___fs2slong_callee
81    0000              	EXTERN ___fs2slonglong
82    0000              	EXTERN ___fs2slonglong_callee
83    0000              	EXTERN ___fs2uchar
84    0000              	EXTERN ___fs2uchar_callee
85    0000              	EXTERN ___fs2uint
86    0000              	EXTERN ___fs2uint_callee
87    0000              	EXTERN ___fs2ulong
88    0000              	EXTERN ___fs2ulong_callee
89    0000              	EXTERN ___fs2ulonglong
90    0000              	EXTERN ___fs2ulonglong_callee
91    0000              	EXTERN ___fsadd
92    0000              	EXTERN ___fsadd_callee
93    0000              	EXTERN ___fsdiv
94    0000              	EXTERN ___fsdiv_callee
95    0000              	EXTERN ___fseq
96    0000              	EXTERN ___fseq_callee
97    0000              	EXTERN ___fsgt
98    0000              	EXTERN ___fsgt_callee
99    0000              	EXTERN ___fslt
100   0000              	EXTERN ___fslt_callee
101   0000              	EXTERN ___fsmul
102   0000              	EXTERN ___fsmul_callee
103   0000              	EXTERN ___fsneq
104   0000              	EXTERN ___fsneq_callee
105   0000              	EXTERN ___fssub
106   0000              	EXTERN ___fssub_callee
107   0000              	EXTERN ___schar2fs
108   0000              	EXTERN ___schar2fs_callee
109   0000              	EXTERN ___sint2fs
110   0000              	EXTERN ___sint2fs_callee
111   0000              	EXTERN ___slong2fs
112   0000              	EXTERN ___slong2fs_callee
113   0000              	EXTERN ___slonglong2fs
114   0000              	EXTERN ___slonglong2fs_callee
115   0000              	EXTERN ___uchar2fs
116   0000              	EXTERN ___uchar2fs_callee
117   0000              	EXTERN ___uint2fs
118   0000              	EXTERN ___uint2fs_callee
119   0000              	EXTERN ___ulong2fs
120   0000              	EXTERN ___ulong2fs_callee
121   0000              	EXTERN ___ulonglong2fs
122   0000              	EXTERN ___ulonglong2fs_callee
123   0000              	EXTERN ____sdcc_2_copy_src_mhl_dst_deix
124   0000              	EXTERN ____sdcc_2_copy_src_mhl_dst_bcix
125   0000              	EXTERN ____sdcc_4_copy_src_mhl_dst_deix
126   0000              	EXTERN ____sdcc_4_copy_src_mhl_dst_bcix
127   0000              	EXTERN ____sdcc_4_copy_src_mhl_dst_mbc
128   0000              	EXTERN ____sdcc_4_ldi_nosave_bc
129   0000              	EXTERN ____sdcc_4_ldi_save_bc
130   0000              	EXTERN ____sdcc_4_push_hlix
131   0000              	EXTERN ____sdcc_4_push_mhl
132   0000              	EXTERN ____sdcc_lib_setmem_hl
133   0000              	EXTERN ____sdcc_ll_add_de_bc_hl
134   0000              	EXTERN ____sdcc_ll_add_de_bc_hlix
135   0000              	EXTERN ____sdcc_ll_add_de_hlix_bc
136   0000              	EXTERN ____sdcc_ll_add_de_hlix_bcix
137   0000              	EXTERN ____sdcc_ll_add_deix_bc_hl
138   0000              	EXTERN ____sdcc_ll_add_deix_hlix
139   0000              	EXTERN ____sdcc_ll_add_hlix_bc_deix
140   0000              	EXTERN ____sdcc_ll_add_hlix_deix_bc
141   0000              	EXTERN ____sdcc_ll_add_hlix_deix_bcix
142   0000              	EXTERN ____sdcc_ll_asr_hlix_a
143   0000              	EXTERN ____sdcc_ll_asr_mbc_a
144   0000              	EXTERN ____sdcc_ll_copy_src_de_dst_hlix
145   0000              	EXTERN ____sdcc_ll_copy_src_de_dst_hlsp
146   0000              	EXTERN ____sdcc_ll_copy_src_deix_dst_hl
147   0000              	EXTERN ____sdcc_ll_copy_src_deix_dst_hlix
148   0000              	EXTERN ____sdcc_ll_copy_src_deixm_dst_hlsp
149   0000              	EXTERN ____sdcc_ll_copy_src_desp_dst_hlsp
150   0000              	EXTERN ____sdcc_ll_copy_src_hl_dst_de
151   0000              	EXTERN ____sdcc_ll_copy_src_hlsp_dst_de
152   0000              	EXTERN ____sdcc_ll_copy_src_hlsp_dst_deixm
153   0000              	EXTERN ____sdcc_ll_lsl_hlix_a
154   0000              	EXTERN ____sdcc_ll_lsl_mbc_a
155   0000              	EXTERN ____sdcc_ll_lsr_hlix_a
156   0000              	EXTERN ____sdcc_ll_lsr_mbc_a
157   0000              	EXTERN ____sdcc_ll_push_hlix
158   0000              	EXTERN ____sdcc_ll_push_mhl
159   0000              	EXTERN ____sdcc_ll_sub_de_bc_hl
160   0000              	EXTERN ____sdcc_ll_sub_de_bc_hlix
161   0000              	EXTERN ____sdcc_ll_sub_de_hlix_bc
162   0000              	EXTERN ____sdcc_ll_sub_de_hlix_bcix
163   0000              	EXTERN ____sdcc_ll_sub_deix_bc_hl
164   0000              	EXTERN ____sdcc_ll_sub_deix_hlix
165   0000              	EXTERN ____sdcc_ll_sub_hlix_bc_deix
166   0000              	EXTERN ____sdcc_ll_sub_hlix_deix_bc
167   0000              	EXTERN ____sdcc_ll_sub_hlix_deix_bcix
168   0000              	EXTERN ____sdcc_load_debc_deix
169   0000              	EXTERN ____sdcc_load_dehl_deix
170   0000              	EXTERN ____sdcc_load_debc_mhl
171   0000              	EXTERN ____sdcc_load_hlde_mhl
172   0000              	EXTERN ____sdcc_store_dehl_bcix
173   0000              	EXTERN ____sdcc_store_debc_hlix
174   0000              	EXTERN ____sdcc_store_debc_mhl
175   0000              	EXTERN ____sdcc_cpu_pop_ei
176   0000              	EXTERN ____sdcc_cpu_pop_ei_jp
177   0000              	EXTERN ____sdcc_cpu_push_di
178   0000              	EXTERN ____sdcc_outi
179   0000              	EXTERN ____sdcc_outi_128
180   0000              	EXTERN ____sdcc_outi_256
181   0000              	EXTERN ____sdcc_ldi
182   0000              	EXTERN ____sdcc_ldi_128
183   0000              	EXTERN ____sdcc_ldi_256
184   0000              
185   0000              ;--------------------------------------------------------
186   0000              ; Public variables in this module
187   0000              ;--------------------------------------------------------
188   0000              	GLOBAL _player_check_map
189   0000              	GLOBAL _player_fix_walk_lin
190   0000              	GLOBAL _player_init
191   0000              	GLOBAL _player_check_input
192   0000              	GLOBAL _player_collision
193   0000              	GLOBAL _player_kill
194   0000              	GLOBAL _player_turn
195   0000              	GLOBAL _player_move
196   0000              	GLOBAL _player_check_stairs_down
197   0000              	GLOBAL _player_check_stairs
198   0000              	GLOBAL _player_tile
199   0000              	GLOBAL _player_move_input
200   0000              	GLOBAL _player_fire
201   0000              	GLOBAL _player_pick_item
202   0000              	GLOBAL _player_hit_platform
203   0000              	GLOBAL _player_hit_platform_clear
204   0000              	GLOBAL _player_score_add
205   0000              	GLOBAL _player_check_floor
206   0000              	GLOBAL _player_gasta_brick
207   0000              	GLOBAL _player_move_jump
208   0000              	GLOBAL _player_open_door
209   0000              	GLOBAL _player_lost_life
210   0000              	GLOBAL _player_hit
211   0000              ;--------------------------------------------------------
212   0000              ; Externals used
213   0000              ;--------------------------------------------------------
214   0000              	GLOBAL _ulltoa_callee
215   0000              	GLOBAL _ulltoa
216   0000              	GLOBAL _strtoull_callee
217   0000              	GLOBAL _strtoull
218   0000              	GLOBAL _strtoll_callee
219   0000              	GLOBAL _strtoll
220   0000              	GLOBAL _lltoa_callee
221   0000              	GLOBAL _lltoa
222   0000              	GLOBAL _llabs_callee
223   0000              	GLOBAL _llabs
224   0000              	GLOBAL __lldivu__callee
225   0000              	GLOBAL __lldivu_
226   0000              	GLOBAL __lldiv__callee
227   0000              	GLOBAL __lldiv_
228   0000              	GLOBAL _atoll_callee
229   0000              	GLOBAL _atoll
230   0000              	GLOBAL _realloc_unlocked_callee
231   0000              	GLOBAL _realloc_unlocked
232   0000              	GLOBAL _malloc_unlocked_fastcall
233   0000              	GLOBAL _malloc_unlocked
234   0000              	GLOBAL _free_unlocked_fastcall
235   0000              	GLOBAL _free_unlocked
236   0000              	GLOBAL _calloc_unlocked_callee
237   0000              	GLOBAL _calloc_unlocked
238   0000              	GLOBAL _aligned_alloc_unlocked_callee
239   0000              	GLOBAL _aligned_alloc_unlocked
240   0000              	GLOBAL _realloc_callee
241   0000              	GLOBAL _realloc
242   0000              	GLOBAL _malloc_fastcall
243   0000              	GLOBAL _malloc
244   0000              	GLOBAL _free_fastcall
245   0000              	GLOBAL _free
246   0000              	GLOBAL _calloc_callee
247   0000              	GLOBAL _calloc
248   0000              	GLOBAL _aligned_alloc_callee
249   0000              	GLOBAL _aligned_alloc
250   0000              	GLOBAL _utoa_callee
251   0000              	GLOBAL _utoa
252   0000              	GLOBAL _ultoa_callee
253   0000              	GLOBAL _ultoa
254   0000              	GLOBAL _system_fastcall
255   0000              	GLOBAL _system
256   0000              	GLOBAL _strtoul_callee
257   0000              	GLOBAL _strtoul
258   0000              	GLOBAL _strtol_callee
259   0000              	GLOBAL _strtol
260   0000              	GLOBAL _strtof_callee
261   0000              	GLOBAL _strtof
262   0000              	GLOBAL _strtod_callee
263   0000              	GLOBAL _strtod
264   0000              	GLOBAL _srand_fastcall
265   0000              	GLOBAL _srand
266   0000              	GLOBAL _rand
267   0000              	GLOBAL _quick_exit_fastcall
268   0000              	GLOBAL _quick_exit
269   0000              	GLOBAL _qsort_callee
270   0000              	GLOBAL _qsort
271   0000              	GLOBAL _ltoa_callee
272   0000              	GLOBAL _ltoa
273   0000              	GLOBAL _labs_fastcall
274   0000              	GLOBAL _labs
275   0000              	GLOBAL _itoa_callee
276   0000              	GLOBAL _itoa
277   0000              	GLOBAL _ftoh_callee
278   0000              	GLOBAL _ftoh
279   0000              	GLOBAL _ftog_callee
280   0000              	GLOBAL _ftog
281   0000              	GLOBAL _ftoe_callee
282   0000              	GLOBAL _ftoe
283   0000              	GLOBAL _ftoa_callee
284   0000              	GLOBAL _ftoa
285   0000              	GLOBAL _exit_fastcall
286   0000              	GLOBAL _exit
287   0000              	GLOBAL _dtoh_callee
288   0000              	GLOBAL _dtoh
289   0000              	GLOBAL _dtog_callee
290   0000              	GLOBAL _dtog
291   0000              	GLOBAL _dtoe_callee
292   0000              	GLOBAL _dtoe
293   0000              	GLOBAL _dtoa_callee
294   0000              	GLOBAL _dtoa
295   0000              	GLOBAL _bsearch_callee
296   0000              	GLOBAL _bsearch
297   0000              	GLOBAL _atol_fastcall
298   0000              	GLOBAL _atol
299   0000              	GLOBAL _atoi_fastcall
300   0000              	GLOBAL _atoi
301   0000              	GLOBAL _atof_fastcall
302   0000              	GLOBAL _atof
303   0000              	GLOBAL _atexit_fastcall
304   0000              	GLOBAL _atexit
305   0000              	GLOBAL _at_quick_exit_fastcall
306   0000              	GLOBAL _at_quick_exit
307   0000              	GLOBAL _abs_fastcall
308   0000              	GLOBAL _abs
309   0000              	GLOBAL _abort
310   0000              	GLOBAL __strtou__callee
311   0000              	GLOBAL __strtou_
312   0000              	GLOBAL __strtoi__callee
313   0000              	GLOBAL __strtoi_
314   0000              	GLOBAL __random_uniform_xor_8__fastcall
315   0000              	GLOBAL __random_uniform_xor_8_
316   0000              	GLOBAL __random_uniform_xor_32__fastcall
317   0000              	GLOBAL __random_uniform_xor_32_
318   0000              	GLOBAL __random_uniform_cmwc_8__fastcall
319   0000              	GLOBAL __random_uniform_cmwc_8_
320   0000              	GLOBAL __shellsort__callee
321   0000              	GLOBAL __shellsort_
322   0000              	GLOBAL __quicksort__callee
323   0000              	GLOBAL __quicksort_
324   0000              	GLOBAL __insertion_sort__callee
325   0000              	GLOBAL __insertion_sort_
326   0000              	GLOBAL __ldivu__callee
327   0000              	GLOBAL __ldivu_
328   0000              	GLOBAL __ldiv__callee
329   0000              	GLOBAL __ldiv_
330   0000              	GLOBAL __divu__callee
331   0000              	GLOBAL __divu_
332   0000              	GLOBAL __div__callee
333   0000              	GLOBAL __div_
334   0000              	GLOBAL _NIRVANAP_drawTW_raw_callee
335   0000              	GLOBAL _NIRVANAP_drawTW_raw
336   0000              	GLOBAL _NIRVANAP_drawTW_callee
337   0000              	GLOBAL _NIRVANAP_drawTW
338   0000              	GLOBAL _NIRVANAP_drawW_raw_callee
339   0000              	GLOBAL _NIRVANAP_drawW_raw
340   0000              	GLOBAL _NIRVANAP_drawW_callee
341   0000              	GLOBAL _NIRVANAP_drawW
342   0000              	GLOBAL _NIRVANAP_spriteT_callee
343   0000              	GLOBAL _NIRVANAP_spriteT
344   0000              	GLOBAL _NIRVANAP_fillC_callee
345   0000              	GLOBAL _NIRVANAP_fillC
346   0000              	GLOBAL _NIRVANAP_readC_callee
347   0000              	GLOBAL _NIRVANAP_readC
348   0000              	GLOBAL _NIRVANAP_paintC_callee
349   0000              	GLOBAL _NIRVANAP_paintC
350   0000              	GLOBAL _NIRVANAP_printC_callee
351   0000              	GLOBAL _NIRVANAP_printC
352   0000              	GLOBAL _NIRVANAP_fillT_raw_callee
353   0000              	GLOBAL _NIRVANAP_fillT_raw
354   0000              	GLOBAL _NIRVANAP_fillT_callee
355   0000              	GLOBAL _NIRVANAP_fillT
356   0000              	GLOBAL _NIRVANAP_drawT_raw_callee
357   0000              	GLOBAL _NIRVANAP_drawT_raw
358   0000              	GLOBAL _NIRVANAP_drawT_callee
359   0000              	GLOBAL _NIRVANAP_drawT
360   0000              	GLOBAL _NIRVANAP_stop
361   0000              	GLOBAL _NIRVANAP_start
362   0000              	GLOBAL _debug3
363   0000              	GLOBAL _debug2
364   0000              	GLOBAL _debug
365   0000              	GLOBAL _zx_print_str
366   0000              	GLOBAL _zx_print_int
367   0000              	GLOBAL _zx_print_chr
368   0000              	GLOBAL _zx_print_bonus_time
369   0000              	GLOBAL _zx_isr
370   0000              	GLOBAL _z80_otdr_callee
371   0000              	GLOBAL _z80_otdr
372   0000              	GLOBAL _z80_otir_callee
373   0000              	GLOBAL _z80_otir
374   0000              	GLOBAL _z80_outp_callee
375   0000              	GLOBAL _z80_outp
376   0000              	GLOBAL _z80_indr_callee
377   0000              	GLOBAL _z80_indr
378   0000              	GLOBAL _z80_inir_callee
379   0000              	GLOBAL _z80_inir
380   0000              	GLOBAL _z80_inp_fastcall
381   0000              	GLOBAL _z80_inp
382   0000              	GLOBAL _z80_set_int_state_fastcall
383   0000              	GLOBAL _z80_set_int_state
384   0000              	GLOBAL _z80_get_int_state
385   0000              	GLOBAL _z80_delay_tstate_fastcall
386   0000              	GLOBAL _z80_delay_tstate
387   0000              	GLOBAL _z80_delay_ms_fastcall
388   0000              	GLOBAL _z80_delay_ms
389   0000              	GLOBAL _im2_remove_generic_callback_callee
390   0000              	GLOBAL _im2_remove_generic_callback
391   0000              	GLOBAL _im2_prepend_generic_callback_callee
392   0000              	GLOBAL _im2_prepend_generic_callback
393   0000              	GLOBAL _im2_append_generic_callback_callee
394   0000              	GLOBAL _im2_append_generic_callback
395   0000              	GLOBAL _im2_create_generic_isr_8080_callee
396   0000              	GLOBAL _im2_create_generic_isr_8080
397   0000              	GLOBAL _im2_create_generic_isr_callee
398   0000              	GLOBAL _im2_create_generic_isr
399   0000              	GLOBAL _im2_install_isr_callee
400   0000              	GLOBAL _im2_install_isr
401   0000              	GLOBAL _im2_init_fastcall
402   0000              	GLOBAL _im2_init
403   0000              	GLOBAL _intrinsic_swap_word_32_fastcall
404   0000              	GLOBAL _intrinsic_swap_word_32
405   0000              	GLOBAL _intrinsic_swap_endian_32_fastcall
406   0000              	GLOBAL _intrinsic_swap_endian_32
407   0000              	GLOBAL _intrinsic_swap_endian_16_fastcall
408   0000              	GLOBAL _intrinsic_swap_endian_16
409   0000              	GLOBAL _intrinsic_return_de
410   0000              	GLOBAL _intrinsic_return_bc
411   0000              	GLOBAL _intrinsic_exx
412   0000              	GLOBAL _intrinsic_ex_de_hl
413   0000              	GLOBAL _intrinsic_nop
414   0000              	GLOBAL _intrinsic_im_2
415   0000              	GLOBAL _intrinsic_im_1
416   0000              	GLOBAL _intrinsic_im_0
417   0000              	GLOBAL _intrinsic_retn
418   0000              	GLOBAL _intrinsic_reti
419   0000              	GLOBAL _intrinsic_halt
420   0000              	GLOBAL _intrinsic_ei
421   0000              	GLOBAL _intrinsic_di
422   0000              	GLOBAL _intrinsic_stub
423   0000              	GLOBAL _intrinsic_outi
424   0000              	GLOBAL _intrinsic_ldi
425   0000              	GLOBAL _zx_pattern_fill_callee
426   0000              	GLOBAL _zx_pattern_fill
427   0000              	GLOBAL _zx_saddrpup_fastcall
428   0000              	GLOBAL _zx_saddrpup
429   0000              	GLOBAL _zx_saddrpright_callee
430   0000              	GLOBAL _zx_saddrpright
431   0000              	GLOBAL _zx_saddrpleft_callee
432   0000              	GLOBAL _zx_saddrpleft
433   0000              	GLOBAL _zx_saddrpdown_fastcall
434   0000              	GLOBAL _zx_saddrpdown
435   0000              	GLOBAL _zx_saddrcup_fastcall
436   0000              	GLOBAL _zx_saddrcup
437   0000              	GLOBAL _zx_saddrcright_fastcall
438   0000              	GLOBAL _zx_saddrcright
439   0000              	GLOBAL _zx_saddrcleft_fastcall
440   0000              	GLOBAL _zx_saddrcleft
441   0000              	GLOBAL _zx_saddrcdown_fastcall
442   0000              	GLOBAL _zx_saddrcdown
443   0000              	GLOBAL _zx_saddr2py_fastcall
444   0000              	GLOBAL _zx_saddr2py
445   0000              	GLOBAL _zx_saddr2px_fastcall
446   0000              	GLOBAL _zx_saddr2px
447   0000              	GLOBAL _zx_saddr2cy_fastcall
448   0000              	GLOBAL _zx_saddr2cy
449   0000              	GLOBAL _zx_saddr2cx_fastcall
450   0000              	GLOBAL _zx_saddr2cx
451   0000              	GLOBAL _zx_saddr2aaddr_fastcall
452   0000              	GLOBAL _zx_saddr2aaddr
453   0000              	GLOBAL _zx_py2saddr_fastcall
454   0000              	GLOBAL _zx_py2saddr
455   0000              	GLOBAL _zx_py2aaddr_fastcall
456   0000              	GLOBAL _zx_py2aaddr
457   0000              	GLOBAL _zx_pxy2saddr_callee
458   0000              	GLOBAL _zx_pxy2saddr
459   0000              	GLOBAL _zx_pxy2aaddr_callee
460   0000              	GLOBAL _zx_pxy2aaddr
461   0000              	GLOBAL _zx_px2bitmask_fastcall
462   0000              	GLOBAL _zx_px2bitmask
463   0000              	GLOBAL _zx_cy2saddr_fastcall
464   0000              	GLOBAL _zx_cy2saddr
465   0000              	GLOBAL _zx_cy2aaddr_fastcall
466   0000              	GLOBAL _zx_cy2aaddr
467   0000              	GLOBAL _zx_cxy2saddr_callee
468   0000              	GLOBAL _zx_cxy2saddr
469   0000              	GLOBAL _zx_cxy2aaddr_callee
470   0000              	GLOBAL _zx_cxy2aaddr
471   0000              	GLOBAL _zx_bitmask2px_fastcall
472   0000              	GLOBAL _zx_bitmask2px
473   0000              	GLOBAL _zx_aaddrcup_fastcall
474   0000              	GLOBAL _zx_aaddrcup
475   0000              	GLOBAL _zx_aaddrcright_fastcall
476   0000              	GLOBAL _zx_aaddrcright
477   0000              	GLOBAL _zx_aaddrcleft_fastcall
478   0000              	GLOBAL _zx_aaddrcleft
479   0000              	GLOBAL _zx_aaddrcdown_fastcall
480   0000              	GLOBAL _zx_aaddrcdown
481   0000              	GLOBAL _zx_aaddr2saddr_fastcall
482   0000              	GLOBAL _zx_aaddr2saddr
483   0000              	GLOBAL _zx_aaddr2py_fastcall
484   0000              	GLOBAL _zx_aaddr2py
485   0000              	GLOBAL _zx_aaddr2px_fastcall
486   0000              	GLOBAL _zx_aaddr2px
487   0000              	GLOBAL _zx_aaddr2cy_fastcall
488   0000              	GLOBAL _zx_aaddr2cy
489   0000              	GLOBAL _zx_aaddr2cx_fastcall
490   0000              	GLOBAL _zx_aaddr2cx
491   0000              	GLOBAL _zx_visit_wc_pix_callee
492   0000              	GLOBAL _zx_visit_wc_pix
493   0000              	GLOBAL _zx_visit_wc_attr_callee
494   0000              	GLOBAL _zx_visit_wc_attr
495   0000              	GLOBAL _zx_scroll_wc_up_pix_callee
496   0000              	GLOBAL _zx_scroll_wc_up_pix
497   0000              	GLOBAL _zx_scroll_wc_up_attr_callee
498   0000              	GLOBAL _zx_scroll_wc_up_attr
499   0000              	GLOBAL _zx_scroll_wc_up_callee
500   0000              	GLOBAL _zx_scroll_wc_up
501   0000              	GLOBAL _zx_scroll_up_pix_callee
502   0000              	GLOBAL _zx_scroll_up_pix
503   0000              	GLOBAL _zx_scroll_up_attr_callee
504   0000              	GLOBAL _zx_scroll_up_attr
505   0000              	GLOBAL _zx_scroll_up_callee
506   0000              	GLOBAL _zx_scroll_up
507   0000              	GLOBAL _zx_cls_wc_pix_callee
508   0000              	GLOBAL _zx_cls_wc_pix
509   0000              	GLOBAL _zx_cls_wc_attr_callee
510   0000              	GLOBAL _zx_cls_wc_attr
511   0000              	GLOBAL _zx_cls_wc_callee
512   0000              	GLOBAL _zx_cls_wc
513   0000              	GLOBAL _zx_cls_pix_fastcall
514   0000              	GLOBAL _zx_cls_pix
515   0000              	GLOBAL _zx_cls_attr_fastcall
516   0000              	GLOBAL _zx_cls_attr
517   0000              	GLOBAL _zx_cls_fastcall
518   0000              	GLOBAL _zx_cls
519   0000              	GLOBAL _zx_border_fastcall
520   0000              	GLOBAL _zx_border
521   0000              	GLOBAL _spr_btile_paint_back
522   0000              	GLOBAL _spr_explode_bullet
523   0000              	GLOBAL _spr_init_anim_bullets
524   0000              	GLOBAL _spr_turn_horizontal
525   0000              	GLOBAL _spr_play_bullets
526   0000              	GLOBAL _spr_play_anim
527   0000              	GLOBAL _spr_add_anim
528   0000              	GLOBAL _spr_page_map
529   0000              	GLOBAL _spr_page_down
530   0000              	GLOBAL _spr_page_up
531   0000              	GLOBAL _spr_page_right
532   0000              	GLOBAL _spr_page_left
533   0000              	GLOBAL _spr_tile_paint
534   0000              	GLOBAL _spr_calc_hor
535   0000              	GLOBAL _spr_draw_row
536   0000              	GLOBAL _spr_draw_index
537   0000              	GLOBAL _spr_brick_anim
538   0000              	GLOBAL _spr_back_repaint
539   0000              	GLOBAL _spr_tile
540   0000              	GLOBAL _spr_destroy
541   0000              	GLOBAL _spr_tile_dir
542   0000              	GLOBAL _spr_redraw
543   0000              	GLOBAL _spr_move_left
544   0000              	GLOBAL _spr_move_right
545   0000              	GLOBAL _spr_move_horizontal
546   0000              	GLOBAL _spr_move_down
547   0000              	GLOBAL _spr_move_up
548   0000              	GLOBAL _spr_calc_index
549   0000              	GLOBAL _spr_chktime
550   0000              	GLOBAL _sound_hit_brick
551   0000              	GLOBAL _sound_hit_enemy
552   0000              	GLOBAL _sound_kill
553   0000              	GLOBAL _sound_enter_enemy
554   0000              	GLOBAL _sound_coin
555   0000              	GLOBAL _sound_jump
556   0000              	GLOBAL _sound_slide
557   0000              	GLOBAL _player_player_hit_pow
558   0000              	GLOBAL _game_match_back
559   0000              	GLOBAL _game_attribs
560   0000              	GLOBAL _game_boss_clear
561   0000              	GLOBAL _game_obj_clear
562   0000              	GLOBAL _game_obj_chk
563   0000              	GLOBAL _game_obj_set
564   0000              	GLOBAL _game_shoot_fire_boss
565   0000              	GLOBAL _game_shoot_fire
566   0000              	GLOBAL _game_add_enemy
567   0000              	GLOBAL _game_joystick_set_menu
568   0000              	GLOBAL _game_joystick_set
569   0000              	GLOBAL _game_joystick_change
570   0000              	GLOBAL _game_print_header
571   0000              	GLOBAL _game_end
572   0000              	GLOBAL _game_phase_print_score_back
573   0000              	GLOBAL _game_check_time
574   0000              	GLOBAL _game_rotate_attrib
575   0000              	GLOBAL _game_colour_message
576   0000              	GLOBAL _game_paint_attrib_lin_h
577   0000              	GLOBAL _game_paint_attrib_lin
578   0000              	GLOBAL _game_paint_attrib
579   0000              	GLOBAL _game_print_score
580   0000              	GLOBAL _game_unfreeze_all
581   0000              	GLOBAL _game_freeze_all
582   0000              	GLOBAL _game_freeze
583   0000              	GLOBAL _game_enemy_add_get_index
584   0000              	GLOBAL _game_check_cell
585   0000              	GLOBAL _game_check_map
586   0000              	GLOBAL _game_loop
587   0000              	GLOBAL _game_round_init
588   0000              	GLOBAL _game_start_timer
589   0000              	GLOBAL _game_tick
590   0000              	GLOBAL _game_update_stats
591   0000              	GLOBAL _game_print_footer
592   0000              	GLOBAL _game_fill_row
593   0000              	GLOBAL _game_fps
594   0000              	GLOBAL _game_respawn
595   0000              	GLOBAL _game_draw_screen
596   0000              	GLOBAL _boss_turn
597   0000              	GLOBAL _enemy_avoid_dead
598   0000              	GLOBAL _enemy_avoid_fall
599   0000              	GLOBAL _enemy_respawn
600   0000              	GLOBAL _enemy_init
601   0000              	GLOBAL _enemy_move
602   0000              	GLOBAL _enemy_turn
603   0000              	GLOBAL _enemy_hit
604   0000              	GLOBAL _enemy_coin1
605   0000              	GLOBAL _enemy_static
606   0000              	GLOBAL _enemy_walk
607   0000              	GLOBAL _enemy_horizontal
608   0000              	GLOBAL _enemy_vertical
609   0000              	GLOBAL _ay_fx_play
610   0000              	GLOBAL _ay_midi_play
611   0000              	GLOBAL _ay_is_playing
612   0000              	GLOBAL _ay_reset
613   0000              	GLOBAL _test_func
614   0000              	GLOBAL _test_proc
615   0000              	GLOBAL _in_mouse_kempston_wheel_delta
616   0000              	GLOBAL _in_mouse_kempston_wheel
617   0000              	GLOBAL _in_mouse_kempston_callee
618   0000              	GLOBAL _in_mouse_kempston
619   0000              	GLOBAL _in_mouse_kempston_setpos_callee
620   0000              	GLOBAL _in_mouse_kempston_setpos
621   0000              	GLOBAL _in_mouse_kempston_reset
622   0000              	GLOBAL _in_mouse_kempston_init
623   0000              	GLOBAL _in_mouse_amx_wheel_delta
624   0000              	GLOBAL _in_mouse_amx_wheel
625   0000              	GLOBAL _in_mouse_amx_callee
626   0000              	GLOBAL _in_mouse_amx
627   0000              	GLOBAL _in_mouse_amx_setpos_callee
628   0000              	GLOBAL _in_mouse_amx_setpos
629   0000              	GLOBAL _in_mouse_amx_reset
630   0000              	GLOBAL _in_mouse_amx_init_callee
631   0000              	GLOBAL _in_mouse_amx_init
632   0000              	GLOBAL _in_stick_sinclair2
633   0000              	GLOBAL _in_stick_sinclair1
634   0000              	GLOBAL _in_stick_kempston
635   0000              	GLOBAL _in_stick_fuller
636   0000              	GLOBAL _in_stick_cursor
637   0000              	GLOBAL _in_stick_keyboard_fastcall
638   0000              	GLOBAL _in_stick_keyboard
639   0000              	GLOBAL _in_wait_nokey
640   0000              	GLOBAL _in_wait_key
641   0000              	GLOBAL _in_test_key
642   0000              	GLOBAL _in_pause_fastcall
643   0000              	GLOBAL _in_pause
644   0000              	GLOBAL _in_key_scancode_fastcall
645   0000              	GLOBAL _in_key_scancode
646   0000              	GLOBAL _in_key_pressed_fastcall
647   0000              	GLOBAL _in_key_pressed
648   0000              	GLOBAL _in_inkey
649   0000              	GLOBAL _NIRVANAP_CHAR_TABLE
650   0000              	GLOBAL _NIRVANAP_WIDE_IMAGES
651   0000              	GLOBAL _NIRVANAP_TILE_IMAGES
652   0000              	GLOBAL _NIRVANAP_HOLE
653   0000              	GLOBAL _NIRVANAP_ISR_HOOK
654   0000              	GLOBAL _player_lvl_table
655   0000              	GLOBAL _map_paper_last
656   0000              	GLOBAL _map_paper_clr
657   0000              	GLOBAL _map_paper
658   0000              	GLOBAL _draw_count
659   0000              	GLOBAL _g_player_hit_right
660   0000              	GLOBAL _g_player_hit_left
661   0000              	GLOBAL _joynames
662   0000              	GLOBAL _initials
663   0000              	GLOBAL _bullet_count
664   0000              	GLOBAL _spr_hack
665   0000              	GLOBAL _boss_stat
666   0000              	GLOBAL _boss_time_fire
667   0000              	GLOBAL _boss_time
668   0000              	GLOBAL _boss_tile
669   0000              	GLOBAL _boss_inc
670   0000              	GLOBAL _boss_col
671   0000              	GLOBAL _boss_lin
672   0000              	GLOBAL _bullet_vel
673   0000              	GLOBAL _bullet_frames
674   0000              	GLOBAL _bullet_colint
675   0000              	GLOBAL _bullet_dir
676   0000              	GLOBAL _bullet_tile
677   0000              	GLOBAL _bullet_col
678   0000              	GLOBAL _bullet_lin
679   0000              	GLOBAL _bullet_col0
680   0000              	GLOBAL _bullet_lin0
681   0000              	GLOBAL _bullet_max
682   0000              	GLOBAL _bullet_class
683   0000              	GLOBAL _mush_class
684   0000              	GLOBAL _mush_index
685   0000              	GLOBAL _anim_count
686   0000              	GLOBAL _anim_respanwn
687   0000              	GLOBAL _anim_loop
688   0000              	GLOBAL _anim_end
689   0000              	GLOBAL _anim_int
690   0000              	GLOBAL _anim_tile
691   0000              	GLOBAL _anim_col
692   0000              	GLOBAL _anim_lin
693   0000              	GLOBAL _map_heigth
694   0000              	GLOBAL _map_width
695   0000              	GLOBAL _scr_curr
696   0000              	GLOBAL _scr_obj1
697   0000              	GLOBAL _scr_obj0
698   0000              	GLOBAL _scr_map
699   0000              	GLOBAL _sprite_speed_alt
700   0000              	GLOBAL _sprite_frames
701   0000              	GLOBAL _sprite_speed
702   0000              	GLOBAL _screen_ink
703   0000              	GLOBAL _screen_paper
704   0000              	GLOBAL _player_over_stair
705   0000              	GLOBAL _game_start_scr
706   0000              	GLOBAL _game_respawn_tile
707   0000              	GLOBAL _game_respawn_index
708   0000              	GLOBAL _game_respawn_time
709   0000              	GLOBAL _game_menu_sel
710   0000              	GLOBAL _game_score_top
711   0000              	GLOBAL _player_lives
712   0000              	GLOBAL _game_over
713   0000              	GLOBAL _game_sound
714   0000              	GLOBAL _game_inmune
715   0000              	GLOBAL _game_god_mode
716   0000              	GLOBAL _game_two_player
717   0000              	GLOBAL _game_brick_tile
718   0000              	GLOBAL _sprite_curr_index
719   0000              	GLOBAL _spr_count
720   0000              	GLOBAL _bullet_time
721   0000              	GLOBAL _anim_time
722   0000              	GLOBAL _frame_time
723   0000              	GLOBAL _entry_time
724   0000              	GLOBAL _curr_time
725   0000              	GLOBAL _s_state
726   0000              	GLOBAL _attrib_hl
727   0000              	GLOBAL _attrib
728   0000              	GLOBAL _zx_val_asm
729   0000              	GLOBAL _enemies
730   0000              	GLOBAL _tmp_ui
731   0000              	GLOBAL _tmp_sc
732   0000              	GLOBAL _tmp_uc
733   0000              	GLOBAL _tmp1
734   0000              	GLOBAL _tmp0
735   0000              	GLOBAL _tmp
736   0000              	GLOBAL _index1
737   0000              	GLOBAL _index0
738   0000              	GLOBAL _loop_count
739   0000              	GLOBAL _s_col1
740   0000              	GLOBAL _s_col0
741   0000              	GLOBAL _s_lin1
742   0000              	GLOBAL _s_lin0
743   0000              	GLOBAL _s_tile1
744   0000              	GLOBAL _s_tile0
745   0000              	GLOBAL _player_brick_time
746   0000              	GLOBAL _player_hit_count
747   0000              	GLOBAL _sprite_horizontal_check
748   0000              	GLOBAL _sprite_on_air
749   0000              	GLOBAL _sprite
750   0000              	GLOBAL _fps
751   0000              	GLOBAL _game_respawn_curr_time
752   0000              	GLOBAL _game_worldup
753   0000              	GLOBAL _game_mush_count
754   0000              	GLOBAL _game_boss_fix
755   0000              	GLOBAL _game_boss_hit
756   0000              	GLOBAL _game_boss_alive
757   0000              	GLOBAL _game_boss
758   0000              	GLOBAL _game_world
759   0000              	GLOBAL _game_gravity
760   0000              	GLOBAL _player_anim_stair
761   0000              	GLOBAL _player_hit_time
762   0000              	GLOBAL _player_lin_scr
763   0000              	GLOBAL _player_col_scr
764   0000              	GLOBAL _player_lvl
765   0000              	GLOBAL _player_int
766   0000              	GLOBAL _player_str
767   0000              	GLOBAL _player_max_vita
768   0000              	GLOBAL _player_max_mana
769   0000              	GLOBAL _player_vita
770   0000              	GLOBAL _player_mana
771   0000              	GLOBAL _player_keys
772   0000              	GLOBAL _player_vel_inc
773   0000              	GLOBAL _player_vel_y1
774   0000              	GLOBAL _player_vel_y0
775   0000              	GLOBAL _player_vel_y
776   0000              	GLOBAL _player_vel_x
777   0000              	GLOBAL _player_joy
778   0000              	GLOBAL _player_score
779   0000              	GLOBAL _last_time
780   0000              	GLOBAL _player_slide
781   0000              	GLOBAL _spr_timer
782   0000              	GLOBAL _jump_lin
783   0000              	GLOBAL _player_hit_col
784   0000              	GLOBAL _player_hit_lin
785   0000              	GLOBAL _colint
786   0000              	GLOBAL _col
787   0000              	GLOBAL _lin
788   0000              	GLOBAL _tile
789   0000              	GLOBAL _state_a
790   0000              	GLOBAL _state
791   0000              	GLOBAL _class
792   0000              	GLOBAL _tbuffer
793   0000              	GLOBAL _dirs
794   0000              	GLOBAL _k1
795   0000              	GLOBAL _joyfunc1
796   0000              	GLOBAL _btiles
797   0000              	GLOBAL _spec128
798   0000              	GLOBAL _GLOBAL_ZX_PORT_7FFD
799   0000              	GLOBAL _GLOBAL_ZX_PORT_1FFD
800   0000              	GLOBAL _GLOBAL_ZX_PORT_FE
801   0000              	GLOBAL _ay_effect_20
802   0000              	GLOBAL _ay_effect_19
803   0000              	GLOBAL _ay_effect_18
804   0000              	GLOBAL _ay_effect_17
805   0000              	GLOBAL _ay_effect_16
806   0000              	GLOBAL _ay_effect_15
807   0000              	GLOBAL _ay_effect_14
808   0000              	GLOBAL _ay_effect_13
809   0000              	GLOBAL _ay_effect_12
810   0000              	GLOBAL _ay_effect_11
811   0000              	GLOBAL _ay_effect_10
812   0000              	GLOBAL _ay_effect_09
813   0000              	GLOBAL _ay_effect_08
814   0000              	GLOBAL _ay_effect_07
815   0000              	GLOBAL _ay_effect_06
816   0000              	GLOBAL _ay_effect_05
817   0000              	GLOBAL _ay_effect_04
818   0000              	GLOBAL _ay_effect_03
819   0000              	GLOBAL _ay_effect_02
820   0000              	GLOBAL _ay_effect_01
821   0000              	GLOBAL _pb_midi_phase_1
822   0000              	GLOBAL _pb_midi_title
823   0000              	GLOBAL _control_method
824   0000              	GLOBAL _world1_h
825   0000              	GLOBAL _world1_w
826   0000              	GLOBAL _world1
827   0000              	GLOBAL _paper1
828   0000              	GLOBAL _lenght1
829   0000              	GLOBAL _start_scr1
830   0000              	GLOBAL _world0_h
831   0000              	GLOBAL _world0_w
832   0000              	GLOBAL _world0
833   0000              	GLOBAL _paper0
834   0000              	GLOBAL _lenght0
835   0000              	GLOBAL _start_scr0
836   0000              ;--------------------------------------------------------
837   0000              ; special function registers
838   0000              ;--------------------------------------------------------
839   0000              defc _IO_FE	=	0x00fe
840   0000              defc _IO_1FFD	=	0x1ffd
841   0000              defc _IO_7FFD	=	0x7ffd
842   0000              ;--------------------------------------------------------
843   0000              ; ram data
844   0000              ;--------------------------------------------------------
845   0000              	SECTION bss_compiler
846   0000              ;--------------------------------------------------------
847   0000              ; ram data
848   0000              ;--------------------------------------------------------
849   0000              
850   0000              IF 0
851   0000              
852   0000              ; .area _INITIALIZED removed by z88dk
853   0000              
854   0000              
855   0000              ENDIF
856   0000              
857   0000              ;--------------------------------------------------------
858   0000              ; absolute external ram data
859   0000              ;--------------------------------------------------------
860   0000              	SECTION IGNORE
861   0000              ;--------------------------------------------------------
862   0000              ; global & static initialisations
863   0000              ;--------------------------------------------------------
864   0000              	SECTION code_crt_init
865   0000              ;--------------------------------------------------------
866   0000              ; Home
867   0000              ;--------------------------------------------------------
868   0000              	SECTION IGNORE
869   0000              ;--------------------------------------------------------
870   0000              ; code
871   0000              ;--------------------------------------------------------
872   0000              	SECTION code_compiler
873   0000              ;	---------------------------------
874   0000              ; Function player_init
875   0000              ; ---------------------------------
876   0000              _player_init:
877   0000  CD 00 00    	call	___sdcc_enter_ix
878   0003  21 07 00    	ld	hl, +(_class + 0x0007)
879   0006  36 00       	ld	(hl),0x00
880   0008  21 07 00    	ld	hl, +(_tile + 0x0007)
881   000B  DD 7E 06    	ld	a,(ix+6)
882   000E  77          	ld	(hl), a
883   000F  21 07 00    	ld	hl, +(_lin + 0x0007)
884   0012  DD 7E 04    	ld	a,(ix+4)
885   0015  77          	ld	(hl), a
886   0016  21 07 00    	ld	hl, +(_col + 0x0007)
887   0019  DD 7E 05    	ld	a,(ix+5)
888   001C  77          	ld	(hl), a
889   001D  21 07 00    	ld	hl, +(_colint + 0x0007)
890   0020  36 00       	ld	(hl),0x00
891   0022  21 07 00    	ld	hl, +(_state + 0x0007)
892   0025  36 00       	ld	(hl),0x00
893   0027  01 07 00    	ld	bc,_state_a+7
894   002A  AF          	xor	a, a
895   002B  02          	ld	(bc), a
896   002C  21 07 00    	ld	hl, +(_jump_lin + 0x0007)
897   002F  DD 7E 04    	ld	a,(ix+4)
898   0032  77          	ld	(hl), a
899   0033  ED 5B 00 00 	ld	de,(_curr_time)
900   0037  ED 53 0E 00 	ld	(_last_time + 0x000e),de
901   003B  21 07 00    	ld	hl, +(_sprite_speed_alt + 0x0007)
902   003E  36 00       	ld	(hl),0x00
903   0040  0A          	ld	a, (bc)
904   0041  F6 11       	or	a,+(0x01|0x10)
905   0043  02          	ld	(bc),a
906   0044  21 00 00    	ld	hl,_player_hit_col
907   0047  36 00       	ld	(hl),0x00
908   0049  21 00 00    	ld	hl,_player_hit_lin
909   004C  36 00       	ld	(hl),0x00
910   004E  21 00 00    	ld	hl,_player_slide
911   0051  36 00       	ld	(hl),0x00
912   0053  DD 66 05    	ld	h,(ix+5)
913   0056  DD 6E 04    	ld	l,(ix+4)
914   0059  E5          	push	hl
915   005A  DD 56 06    	ld	d,(ix+6)
916   005D  1E 07       	ld	e,0x07
917   005F  D5          	push	de
918   0060  CD 00 00    	call	_NIRVANAP_spriteT_callee
919   0063  DD E1       	pop	ix
920   0065  C9          	ret
921   0066              	SECTION code_compiler
922   0066              ;	---------------------------------
923   0066              ; Function player_check_input
924   0066              ; ---------------------------------
925   0066              _player_check_input:
926   0066  21 00 00    	ld	hl,_dirs
927   0069  CB 56       	bit	2, (hl)
928   006B  28 0C       	jr	Z,l_player_check_input_00102
929   006D  21 00 00    	ld	hl,_dirs
930   0070  CB 5E       	bit	3, (hl)
931   0072  28 05       	jr	Z,l_player_check_input_00102
932   0074  21 00 00    	ld	hl,_dirs
933   0077  36 00       	ld	(hl),0x00
934   0079              l_player_check_input_00102:
935   0079  21 00 00    	ld	hl,_dirs
936   007C  7E          	ld	a, (hl)
937   007D  CB 07       	rlc	a
938   007F  E6 01       	and	a,0x01
939   0081  CB 47       	bit	0, a
940   0083  20 1D       	jr	NZ,l_player_check_input_00107
941   0085  CB 56       	bit	2, (hl)
942   0087  20 19       	jr	NZ,l_player_check_input_00107
943   0089  21 00 00    	ld	hl,_dirs
944   008C  CB 5E       	bit	3, (hl)
945   008E  20 12       	jr	NZ,l_player_check_input_00107
946   0090  21 00 00    	ld	hl,_dirs
947   0093  CB 46       	bit	0, (hl)
948   0095  20 0B       	jr	NZ,l_player_check_input_00107
949   0097  21 00 00    	ld	hl,_dirs
950   009A  CB 4E       	bit	1, (hl)
951   009C  20 04       	jr	NZ,l_player_check_input_00107
952   009E  2E 00       	ld	l,0x00
953   00A0  18 02       	jr	l_player_check_input_00108
954   00A2              l_player_check_input_00107:
955   00A2  2E 01       	ld	l,0x01
956   00A4              l_player_check_input_00108:
957   00A4  C9          	ret
958   00A5              	SECTION code_compiler
959   00A5              ;	---------------------------------
960   00A5              ; Function player_collision
961   00A5              ; ---------------------------------
962   00A5              _player_collision:
963   00A5  CD 00 00    	call	___sdcc_enter_ix
964   00A8  F5          	push	af
965   00A9  21 19 00    	ld	hl,0x0019
966   00AC  E5          	push	hl
967   00AD  2A 00 00    	ld	hl,(_player_hit_time)
968   00B0  E5          	push	hl
969   00B1  CD 00 00    	call	_game_check_time
970   00B4  F1          	pop	af
971   00B5  F1          	pop	af
972   00B6  7D          	ld	a, l
973   00B7  B7          	or	a, a
974   00B8  CA 22 02    	jp	Z, l_player_collision_00127
975   00BB  21 00 00    	ld	hl,_sprite
976   00BE  36 00       	ld	(hl),0x00
977   00C0  01 00 00    	ld	bc,_col+0
978   00C3  3A 07 00    	ld	a,(_col + 7)
979   00C6  32 00 00    	ld	(_s_col1),a
980   00C9  3A 07 00    	ld	a,(_lin + 7)
981   00CC  32 00 00    	ld	(_s_lin1),a
982   00CF  C6 08       	add	a,0x08
983   00D1  57          	ld	d, a
984   00D2  3A 00 00    	ld	a,(_s_col1)
985   00D5  C5          	push	bc
986   00D6  5A          	ld	e,d
987   00D7  57          	ld	d,a
988   00D8  D5          	push	de
989   00D9  CD 00 00    	call	_spr_calc_index
990   00DC  F1          	pop	af
991   00DD  C1          	pop	bc
992   00DE  7D          	ld	a,l
993   00DF  32 00 00    	ld	(_sprite_curr_index),a
994   00E2  5F          	ld	e,a
995   00E3  16 00       	ld	d,0x00
996   00E5  21 00 00    	ld	hl,_scr_map
997   00E8  19          	add	hl,de
998   00E9  5E          	ld	e, (hl)
999   00EA  3E 2F       	ld	a,0x2f
1000  00EC  93          	sub	a, e
1001  00ED  30 1C       	jr	NC,l_player_collision_00123
1002  00EF  7B          	ld	a,e
1003  00F0  FE 3C       	cp	a,0x3c
1004  00F2  30 17       	jr	NC,l_player_collision_00123
1005  00F4  D6 39       	sub	a,0x39
1006  00F6  20 07       	jr	NZ,l_player_collision_00102
1007  00F8  21 00 00    	ld	hl,_game_worldup
1008  00FB  36 01       	ld	(hl),0x01
1009  00FD  18 0C       	jr	l_player_collision_00123
1010  00FF              l_player_collision_00102:
1011  00FF  2E 06       	ld	l,0x06
1012  0101  CD 00 00    	call	_zx_border_fastcall
1013  0104  C5          	push	bc
1014  0105  2E 32       	ld	l,0x32
1015  0107  CD C2 10    	call	_player_hit
1016  010A  C1          	pop	bc
1017  010B              l_player_collision_00123:
1018  010B  21 00 00    	ld	hl,_sprite
1019  010E  7E          	ld	a, (hl)
1020  010F  D6 07       	sub	a,0x07
1021  0111  D2 22 02    	jp	NC, l_player_collision_00127
1022  0114  3E 00       	ld	a, +((_class) & 0xFF)
1023  0116  86          	add	a, (hl)
1024  0117  5F          	ld	e, a
1025  0118  3E 00       	ld	a, +((_class) / 256)
1026  011A  CE 00       	adc	a,0x00
1027  011C  57          	ld	d, a
1028  011D  1A          	ld	a, (de)
1029  011E  B7          	or	a, a
1030  011F  CA 1B 02    	jp	Z, l_player_collision_00122
1031  0122  79          	ld	a, c
1032  0123  86          	add	a, (hl)
1033  0124  5F          	ld	e, a
1034  0125  78          	ld	a, b
1035  0126  CE 00       	adc	a,0x00
1036  0128  57          	ld	d, a
1037  0129  1A          	ld	a, (de)
1038  012A  DD 77 FE    	ld	(ix-2),a
1039  012D  DD 36 FF 00 	ld	(ix-1),0x00
1040  0131  3A 00 00    	ld	a,(_s_col1)
1041  0134  5F          	ld	e,a
1042  0135  16 00       	ld	d,0x00
1043  0137  DD 7E FE    	ld	a,(ix-2)
1044  013A  93          	sub	a, e
1045  013B  6F          	ld	l, a
1046  013C  DD 7E FF    	ld	a,(ix-1)
1047  013F  9A          	sbc	a, d
1048  0140  67          	ld	h, a
1049  0141  CD 00 00    	call	_abs_fastcall
1050  0144  EB          	ex	de,hl
1051  0145  7B          	ld	a, e
1052  0146  D6 02       	sub	a,0x02
1053  0148  7A          	ld	a, d
1054  0149  17          	rla
1055  014A  3F          	ccf
1056  014B  1F          	rra
1057  014C  DE 80       	sbc	a,0x80
1058  014E  D2 1B 02    	jp	NC, l_player_collision_00122
1059  0151  2A 00 00    	ld	hl,(_sprite)
1060  0154  26 00       	ld	h,0x00
1061  0156  11 00 00    	ld	de,_lin
1062  0159  19          	add	hl,de
1063  015A  7E          	ld	a,(hl)
1064  015B  DD 77 FE    	ld	(ix-2),a
1065  015E  DD 36 FF 00 	ld	(ix-1),0x00
1066  0162  3A 00 00    	ld	a,(_s_lin1)
1067  0165  5F          	ld	e,a
1068  0166  16 00       	ld	d,0x00
1069  0168  DD 7E FE    	ld	a,(ix-2)
1070  016B  93          	sub	a, e
1071  016C  6F          	ld	l, a
1072  016D  DD 7E FF    	ld	a,(ix-1)
1073  0170  9A          	sbc	a, d
1074  0171  67          	ld	h, a
1075  0172  CD 00 00    	call	_abs_fastcall
1076  0175  EB          	ex	de,hl
1077  0176  7B          	ld	a, e
1078  0177  D6 0E       	sub	a,0x0e
1079  0179  7A          	ld	a, d
1080  017A  17          	rla
1081  017B  3F          	ccf
1082  017C  1F          	rra
1083  017D  DE 80       	sbc	a,0x80
1084  017F  D2 1B 02    	jp	NC, l_player_collision_00122
1085  0182  2A 00 00    	ld	hl,(_sprite)
1086  0185  26 00       	ld	h,0x00
1087  0187  01 00 00    	ld	bc,_class
1088  018A  09          	add	hl,bc
1089  018B  7E          	ld	a,(hl)
1090  018C  FE 06       	cp	a,0x06
1091  018E  20 2D       	jr	NZ,l_player_collision_00110
1092  0190  21 00 00    	ld	hl,_player_vita
1093  0193  7E          	ld	a, (hl)
1094  0194  C6 19       	add	a,0x19
1095  0196  77          	ld	(hl), a
1096  0197  3A 00 00    	ld	a,(_player_max_vita)
1097  019A  21 00 00    	ld	hl,_player_vita
1098  019D  96          	sub	a, (hl)
1099  019E  30 06       	jr	NC,l_player_collision_00108
1100  01A0  3A 00 00    	ld	a,(_player_max_vita)
1101  01A3  32 00 00    	ld	(_player_vita),a
1102  01A6              l_player_collision_00108:
1103  01A6  21 01 00    	ld	hl,0x0001
1104  01A9  CD DE 0A    	call	_player_score_add
1105  01AC  CD 00 00    	call	_game_update_stats
1106  01AF  2A 00 00    	ld	hl,(_sprite)
1107  01B2  CD 00 00    	call	_spr_destroy
1108  01B5  21 00 00    	ld	hl,_game_mush_count
1109  01B8  35          	dec	(hl)
1110  01B9  2E 00       	ld	l,0x00
1111  01BB  18 67       	jr	l_player_collision_00128
1112  01BD              l_player_collision_00110:
1113  01BD  FE 07       	cp	a,0x07
1114  01BF  20 2D       	jr	NZ,l_player_collision_00114
1115  01C1  21 00 00    	ld	hl,_player_mana
1116  01C4  7E          	ld	a, (hl)
1117  01C5  C6 19       	add	a,0x19
1118  01C7  77          	ld	(hl), a
1119  01C8  3A 00 00    	ld	a,(_player_max_mana)
1120  01CB  21 00 00    	ld	hl,_player_mana
1121  01CE  96          	sub	a, (hl)
1122  01CF  30 06       	jr	NC,l_player_collision_00112
1123  01D1  3A 00 00    	ld	a,(_player_max_mana)
1124  01D4  32 00 00    	ld	(_player_mana),a
1125  01D7              l_player_collision_00112:
1126  01D7  21 01 00    	ld	hl,0x0001
1127  01DA  CD DE 0A    	call	_player_score_add
1128  01DD  CD 00 00    	call	_game_update_stats
1129  01E0  2A 00 00    	ld	hl,(_sprite)
1130  01E3  CD 00 00    	call	_spr_destroy
1131  01E6  21 00 00    	ld	hl,_game_mush_count
1132  01E9  35          	dec	(hl)
1133  01EA  2E 00       	ld	l,0x00
1134  01EC  18 36       	jr	l_player_collision_00128
1135  01EE              l_player_collision_00114:
1136  01EE  D6 08       	sub	a,0x08
1137  01F0  20 1B       	jr	NZ,l_player_collision_00116
1138  01F2  21 00 00    	ld	hl,_player_lives
1139  01F5  34          	inc	(hl)
1140  01F6  21 01 00    	ld	hl,0x0001
1141  01F9  CD DE 0A    	call	_player_score_add
1142  01FC  CD 00 00    	call	_game_update_stats
1143  01FF  2A 00 00    	ld	hl,(_sprite)
1144  0202  CD 00 00    	call	_spr_destroy
1145  0205  21 00 00    	ld	hl,_game_mush_count
1146  0208  35          	dec	(hl)
1147  0209  2E 00       	ld	l,0x00
1148  020B  18 17       	jr	l_player_collision_00128
1149  020D              l_player_collision_00116:
1150  020D  2E 02       	ld	l,0x02
1151  020F  CD 00 00    	call	_zx_border_fastcall
1152  0212  2E 14       	ld	l,0x14
1153  0214  CD C2 10    	call	_player_hit
1154  0217  2E 01       	ld	l,0x01
1155  0219  18 09       	jr	l_player_collision_00128
1156  021B              l_player_collision_00122:
1157  021B  21 00 00    	ld	hl,_sprite
1158  021E  34          	inc	(hl)
1159  021F  C3 0B 01    	jp	l_player_collision_00123
1160  0222              l_player_collision_00127:
1161  0222  2E 00       	ld	l,0x00
1162  0224              l_player_collision_00128:
1163  0224  F1          	pop	af
1164  0225  DD E1       	pop	ix
1165  0227  C9          	ret
1166  0228              	SECTION code_compiler
1167  0228              ;	---------------------------------
1168  0228              ; Function player_kill
1169  0228              ; ---------------------------------
1170  0228              _player_kill:
1171  0228  01 07 00    	ld	bc,_state+7
1172  022B  0A          	ld	a, (bc)
1173  022C  CB 6F       	bit	5, a
1174  022E  20 5E       	jr	NZ,l_player_kill_00109
1175  0230  C5          	push	bc
1176  0231  CD 00 00    	call	_sound_hit_brick
1177  0234  C1          	pop	bc
1178  0235  0A          	ld	a, (bc)
1179  0236  F6 20       	or	a,0x20
1180  0238  5F          	ld	e,a
1181  0239  02          	ld	(bc), a
1182  023A  21 07 00    	ld	hl, +(_sprite_speed_alt + 0x0007)
1183  023D  36 03       	ld	(hl),0x03
1184  023F  CB 53       	bit	2, e
1185  0241  28 07       	jr	Z,l_player_kill_00102
1186  0243  21 07 00    	ld	hl, +(_tile + 0x0007)
1187  0246  36 4C       	ld	(hl),0x4c
1188  0248  18 05       	jr	l_player_kill_00103
1189  024A              l_player_kill_00102:
1190  024A  21 07 00    	ld	hl, +(_tile + 0x0007)
1191  024D  36 54       	ld	(hl),0x54
1192  024F              l_player_kill_00103:
1193  024F  CD AF 0A    	call	_player_hit_platform_clear
1194  0252  21 07 00    	ld	hl,+(_col + 0x0007)
1195  0255  5E          	ld	e, (hl)
1196  0256  21 07 00    	ld	hl,+(_lin + 0x0007)
1197  0259  4E          	ld	c, (hl)
1198  025A  21 07 00    	ld	hl,+(_tile + 0x0007)
1199  025D  46          	ld	b, (hl)
1200  025E  7B          	ld	a, e
1201  025F  F5          	push	af
1202  0260  33          	inc	sp
1203  0261  79          	ld	a, c
1204  0262  48          	ld	c,b
1205  0263  47          	ld	b,a
1206  0264  3A 00 00    	ld	a,(_sprite)
1207  0267  C5          	push	bc
1208  0268  F5          	push	af
1209  0269  33          	inc	sp
1210  026A  CD 00 00    	call	_NIRVANAP_spriteT_callee
1211  026D  2A 00 00    	ld	hl,(_curr_time)
1212  0270  22 0E 00    	ld	(_spr_timer + 0x000e),hl
1213  0273  3A 00 00    	ld	a,(_sprite)
1214  0276  D6 07       	sub	a,0x07
1215  0278  20 0B       	jr	NZ,l_player_kill_00105
1216  027A  01 07 00    	ld	bc,_state_a+7
1217  027D  0A          	ld	a, (bc)
1218  027E  F6 08       	or	a,0x08
1219  0280  E6 EF       	and	a,0xef
1220  0282  02          	ld	(bc),a
1221  0283  18 09       	jr	l_player_kill_00109
1222  0285              l_player_kill_00105:
1223  0285  01 07 00    	ld	bc,_state_a+7
1224  0288  0A          	ld	a, (bc)
1225  0289  F6 10       	or	a,0x10
1226  028B  E6 F7       	and	a,0xf7
1227  028D  02          	ld	(bc),a
1228  028E              l_player_kill_00109:
1229  028E  C9          	ret
1230  028F              	SECTION code_compiler
1231  028F              ;	---------------------------------
1232  028F              ; Function player_turn
1233  028F              ; ---------------------------------
1234  028F              _player_turn:
1235  028F  21 00 00    	ld	hl,_sprite
1236  0292  CD 00 00    	call	_spr_chktime
1237  0295  7D          	ld	a, l
1238  0296  B7          	or	a, a
1239  0297  C8          	ret	Z
1240  0298  21 00 00    	ld	hl,_k1
1241  029B  E5          	push	hl
1242  029C  2A 00 00    	ld	hl,(_joyfunc1)
1243  029F  CD 00 00    	call	___sdcc_call_hl
1244  02A2  F1          	pop	af
1245  02A3  7D          	ld	a,l
1246  02A4  32 00 00    	ld	(_dirs),a
1247  02A7  CD AD 02    	call	_player_move
1248  02AA  C3 A5 00    	jp  _player_collision
1249  02AD              	SECTION code_compiler
1250  02AD              ;	---------------------------------
1251  02AD              ; Function player_move
1252  02AD              ; ---------------------------------
1253  02AD              _player_move:
1254  02AD  3A 07 00    	ld	a,(_lin + 0x0007)
1255  02B0  32 00 00    	ld	(_s_lin0),a
1256  02B3  3A 07 00    	ld	a,(_col + 0x0007)
1257  02B6  32 00 00    	ld	(_s_col0),a
1258  02B9  21 07 00    	ld	hl,+(_tile + 0x0007)
1259  02BC  4E          	ld	c, (hl)
1260  02BD  21 07 00    	ld	hl,+(_colint + 0x0007)
1261  02C0  46          	ld	b, (hl)
1262  02C1  79          	ld	a, c
1263  02C2  80          	add	a, b
1264  02C3  32 00 00    	ld	(_s_tile0),a
1265  02C6  3A 07 00    	ld	a,(_state + 0x0007)
1266  02C9  32 00 00    	ld	(_s_state),a
1267  02CC  21 00 00    	ld	hl,_s_state
1268  02CF  CB 46       	bit	0, (hl)
1269  02D1  20 07       	jr	NZ,l_player_move_00111
1270  02D3  21 00 00    	ld	hl,_s_state
1271  02D6  CB 4E       	bit	1, (hl)
1272  02D8  28 49       	jr	Z,l_player_move_00112
1273  02DA              l_player_move_00111:
1274  02DA  CD EB 05    	call	_player_fire
1275  02DD  3A 00 00    	ld	a,(_player_vel_y)
1276  02E0  21 00 00    	ld	hl,_player_vel_y1
1277  02E3  96          	sub	a, (hl)
1278  02E4  E2 E9 02    	jp	PO, l_player_move_00156
1279  02E7  EE 80       	xor	a,0x80
1280  02E9              l_player_move_00156:
1281  02E9  F2 0C 03    	jp	P, l_player_move_00106
1282  02EC  21 00 00    	ld	hl,_dirs
1283  02EF  CB 56       	bit	2, (hl)
1284  02F1  28 09       	jr	Z,l_player_move_00102
1285  02F3  21 00 00    	ld	hl,_s_state
1286  02F6  7E          	ld	a,(hl)
1287  02F7  F6 08       	or	a,0x08
1288  02F9  E6 FB       	and	a,0xfb
1289  02FB  77          	ld	(hl),a
1290  02FC              l_player_move_00102:
1291  02FC  21 00 00    	ld	hl,_dirs
1292  02FF  CB 4E       	bit	1, (hl)
1293  0301  28 09       	jr	Z,l_player_move_00106
1294  0303  21 00 00    	ld	hl,_s_state
1295  0306  7E          	ld	a,(hl)
1296  0307  F6 04       	or	a,0x04
1297  0309  E6 F7       	and	a,0xf7
1298  030B  77          	ld	(hl),a
1299  030C              l_player_move_00106:
1300  030C  CD C7 0C    	call	_player_move_jump
1301  030F  7D          	ld	a, l
1302  0310  B7          	or	a, a
1303  0311  28 16       	jr	Z,l_player_move_00113
1304  0313  3A 00 00    	ld	a,(_player_over_stair)
1305  0316  B7          	or	a, a
1306  0317  20 10       	jr	NZ,l_player_move_00113
1307  0319  21 60 08    	ld	hl,0x0860
1308  031C  E5          	push	hl
1309  031D  CD 19 04    	call	_player_tile
1310  0320  F1          	pop	af
1311  0321  18 06       	jr	l_player_move_00113
1312  0323              l_player_move_00112:
1313  0323  CD 34 04    	call	_player_move_input
1314  0326  CD 42 0B    	call	_player_check_floor
1315  0329              l_player_move_00113:
1316  0329  CD 00 00    	call	_spr_redraw
1317  032C  7D          	ld	a, l
1318  032D  B7          	or	a, a
1319  032E  28 03       	jr	Z,l_player_move_00116
1320  0330  CD 34 06    	call	_player_check_map
1321  0333              l_player_move_00116:
1322  0333  3A 00 00    	ld	a,(_player_hit_lin)
1323  0336  B7          	or	a, a
1324  0337  28 03       	jr	Z,l_player_move_00118
1325  0339  CD AF 0A    	call	_player_hit_platform_clear
1326  033C              l_player_move_00118:
1327  033C  3A 00 00    	ld	a,(_s_state)
1328  033F  32 07 00    	ld	((_state + 0x0007)),a
1329  0342  2E 00       	ld	l,0x00
1330  0344  C9          	ret
1331  0345              	SECTION code_compiler
1332  0345              ;	---------------------------------
1333  0345              ; Function player_check_stairs_down
1334  0345              ; ---------------------------------
1335  0345              _player_check_stairs_down:
1336  0345  CD 00 00    	call	___sdcc_enter_ix
1337  0348  3B          	dec	sp
1338  0349  3A 07 00    	ld	a,(_col + 0x0007)
1339  034C  DD 86 04    	add	a,(ix+4)
1340  034F  47          	ld	b, a
1341  0350  3A 07 00    	ld	a,(_lin + 0x0007)
1342  0353  C6 10       	add	a,0x10
1343  0355  4F          	ld	c,a
1344  0356  C5          	push	bc
1345  0357  CD 00 00    	call	_spr_calc_index
1346  035A  F1          	pop	af
1347  035B  7D          	ld	a,l
1348  035C  32 00 00    	ld	(_sprite_curr_index),a
1349  035F  4F          	ld	c,a
1350  0360  06 00       	ld	b,0x00
1351  0362  21 00 00    	ld	hl,_scr_map
1352  0365  09          	add	hl,bc
1353  0366  7E          	ld	a,(hl)
1354  0367  4F          	ld	c,a
1355  0368  D6 44       	sub	a,0x44
1356  036A  38 05       	jr	C,l_player_check_stairs_down_00107
1357  036C  3E 47       	ld	a,0x47
1358  036E  91          	sub	a, c
1359  036F  30 04       	jr	NC,l_player_check_stairs_down_00108
1360  0371              l_player_check_stairs_down_00107:
1361  0371  3E 00       	ld	a,0x00
1362  0373  18 02       	jr	l_player_check_stairs_down_00109
1363  0375              l_player_check_stairs_down_00108:
1364  0375  3E 01       	ld	a,0x01
1365  0377              l_player_check_stairs_down_00109:
1366  0377  B7          	or	a, a
1367  0378  28 09       	jr	Z,l_player_check_stairs_down_00105
1368  037A  21 00 00    	ld	hl,_player_over_stair
1369  037D  7E          	ld	a, (hl)
1370  037E  B7          	or	a, a
1371  037F  20 02       	jr	NZ,l_player_check_stairs_down_00105
1372  0381  36 01       	ld	(hl),0x01
1373  0383              l_player_check_stairs_down_00105:
1374  0383  33          	inc	sp
1375  0384  DD E1       	pop	ix
1376  0386  C9          	ret
1377  0387              	SECTION code_compiler
1378  0387              ;	---------------------------------
1379  0387              ; Function player_check_stairs
1380  0387              ; ---------------------------------
1381  0387              _player_check_stairs:
1382  0387  CD 00 00    	call	___sdcc_enter_ix
1383  038A  3B          	dec	sp
1384  038B  5D          	ld	e, l
1385  038C  3A 07 00    	ld	a,(_col + 0x0007)
1386  038F  83          	add	a, e
1387  0390  4F          	ld	c, a
1388  0391  21 07 00    	ld	hl,+(_lin + 0x0007)
1389  0394  46          	ld	b, (hl)
1390  0395  D5          	push	de
1391  0396  79          	ld	a, c
1392  0397  48          	ld	c,b
1393  0398  47          	ld	b,a
1394  0399  C5          	push	bc
1395  039A  CD 00 00    	call	_spr_calc_index
1396  039D  F1          	pop	af
1397  039E  D1          	pop	de
1398  039F  7D          	ld	a,l
1399  03A0  32 00 00    	ld	(_sprite_curr_index),a
1400  03A3  4F          	ld	c,a
1401  03A4  06 00       	ld	b,0x00
1402  03A6  21 00 00    	ld	hl,_scr_map
1403  03A9  09          	add	hl,bc
1404  03AA  7E          	ld	a,(hl)
1405  03AB  4F          	ld	c,a
1406  03AC  D6 44       	sub	a,0x44
1407  03AE  38 05       	jr	C,l_player_check_stairs_00111
1408  03B0  3E 47       	ld	a,0x47
1409  03B2  91          	sub	a, c
1410  03B3  30 04       	jr	NC,l_player_check_stairs_00112
1411  03B5              l_player_check_stairs_00111:
1412  03B5  0E 00       	ld	c,0x00
1413  03B7  18 02       	jr	l_player_check_stairs_00113
1414  03B9              l_player_check_stairs_00112:
1415  03B9  0E 01       	ld	c,0x01
1416  03BB              l_player_check_stairs_00113:
1417  03BB  3A 07 00    	ld	a,(_col + 0x0007)
1418  03BE  83          	add	a, e
1419  03BF  57          	ld	d, a
1420  03C0  3A 07 00    	ld	a,(_lin + 0x0007)
1421  03C3  C6 0F       	add	a,0x0f
1422  03C5  47          	ld	b, a
1423  03C6  C5          	push	bc
1424  03C7  58          	ld	e,b
1425  03C8  D5          	push	de
1426  03C9  CD 00 00    	call	_spr_calc_index
1427  03CC  F1          	pop	af
1428  03CD  C1          	pop	bc
1429  03CE  7D          	ld	a,l
1430  03CF  32 00 00    	ld	(_sprite_curr_index),a
1431  03D2  5F          	ld	e,a
1432  03D3  16 00       	ld	d,0x00
1433  03D5  21 00 00    	ld	hl,_scr_map
1434  03D8  19          	add	hl,de
1435  03D9  7E          	ld	a,(hl)
1436  03DA  47          	ld	b,a
1437  03DB  D6 44       	sub	a,0x44
1438  03DD  38 05       	jr	C,l_player_check_stairs_00114
1439  03DF  3E 47       	ld	a,0x47
1440  03E1  90          	sub	a, b
1441  03E2  30 04       	jr	NC,l_player_check_stairs_00115
1442  03E4              l_player_check_stairs_00114:
1443  03E4  06 00       	ld	b,0x00
1444  03E6  18 02       	jr	l_player_check_stairs_00116
1445  03E8              l_player_check_stairs_00115:
1446  03E8  06 01       	ld	b,0x01
1447  03EA              l_player_check_stairs_00116:
1448  03EA  79          	ld	a, c
1449  03EB  B7          	or	a,a
1450  03EC  20 03       	jr	NZ,l_player_check_stairs_00105
1451  03EE  B0          	or	a,b
1452  03EF  28 13       	jr	Z,l_player_check_stairs_00106
1453  03F1              l_player_check_stairs_00105:
1454  03F1  21 00 00    	ld	hl,_player_over_stair
1455  03F4  7E          	ld	a, (hl)
1456  03F5  B7          	or	a, a
1457  03F6  20 1D       	jr	NZ,l_player_check_stairs_00109
1458  03F8  36 01       	ld	(hl),0x01
1459  03FA  21 72 00    	ld	hl,0x0072
1460  03FD  E5          	push	hl
1461  03FE  CD 19 04    	call	_player_tile
1462  0401  F1          	pop	af
1463  0402  18 11       	jr	l_player_check_stairs_00109
1464  0404              l_player_check_stairs_00106:
1465  0404  21 00 00    	ld	hl,_player_over_stair
1466  0407  7E          	ld	a, (hl)
1467  0408  B7          	or	a, a
1468  0409  28 0A       	jr	Z,l_player_check_stairs_00109
1469  040B  36 00       	ld	(hl),0x00
1470  040D  21 60 08    	ld	hl,0x0860
1471  0410  E5          	push	hl
1472  0411  CD 19 04    	call	_player_tile
1473  0414  F1          	pop	af
1474  0415              l_player_check_stairs_00109:
1475  0415  33          	inc	sp
1476  0416  DD E1       	pop	ix
1477  0418  C9          	ret
1478  0419              	SECTION code_compiler
1479  0419              ;	---------------------------------
1480  0419              ; Function player_tile
1481  0419              ; ---------------------------------
1482  0419              _player_tile:
1483  0419  CD 00 00    	call	___sdcc_enter_ix
1484  041C  DD 7E 05    	ld	a,(ix+5)
1485  041F  F5          	push	af
1486  0420  33          	inc	sp
1487  0421  2A FF FF    	ld	hl,(_sprite-1)
1488  0424  DD 6E 04    	ld	l,(ix+4)
1489  0427  E5          	push	hl
1490  0428  CD 00 00    	call	_spr_tile_dir
1491  042B  F1          	pop	af
1492  042C  33          	inc	sp
1493  042D  7D          	ld	a,l
1494  042E  32 07 00    	ld	((_tile + 0x0007)),a
1495  0431  DD E1       	pop	ix
1496  0433  C9          	ret
1497  0434              	SECTION code_compiler
1498  0434              ;	---------------------------------
1499  0434              ; Function player_move_input
1500  0434              ; ---------------------------------
1501  0434              _player_move_input:
1502  0434  CD 66 00    	call	_player_check_input
1503  0437  7D          	ld	a, l
1504  0438  B7          	or	a, a
1505  0439  CA 9E 05    	jp	Z, l_player_move_input_00147
1506  043C  CD EB 05    	call	_player_fire
1507  043F  7D          	ld	a, l
1508  0440  B7          	or	a, a
1509  0441  28 0A       	jr	Z,l_player_move_input_00102
1510  0443  21 00 00    	ld	hl,_dirs
1511  0446  36 00       	ld	(hl),0x00
1512  0448  2E 00       	ld	l,0x00
1513  044A  C3 C4 05    	jp	l_player_move_input_00149
1514  044D              l_player_move_input_00102:
1515  044D  21 00 00    	ld	hl,_dirs
1516  0450  CB 7E       	bit	7, (hl)
1517  0452  28 54       	jr	Z,l_player_move_input_00106
1518  0454  21 00 00    	ld	hl,_dirs
1519  0457  CB 46       	bit	0, (hl)
1520  0459  28 4D       	jr	Z,l_player_move_input_00106
1521  045B  21 00 00    	ld	hl,_player_vel_inc
1522  045E  36 01       	ld	(hl),0x01
1523  0460  CD 00 00    	call	_ay_is_playing
1524  0463  7D          	ld	a, l
1525  0464  D6 03       	sub	a,0x03
1526  0466  28 06       	jr	Z,l_player_move_input_00104
1527  0468  21 00 00    	ld	hl,_ay_effect_03
1528  046B  CD 00 00    	call	_ay_fx_play
1529  046E              l_player_move_input_00104:
1530  046E  21 00 00    	ld	hl,_player_over_stair
1531  0471  36 00       	ld	(hl),0x00
1532  0473  CD 00 00    	call	_sound_jump
1533  0476  21 00 00    	ld	hl,_s_state
1534  0479  7E          	ld	a,(hl)
1535  047A  F6 01       	or	a,0x01
1536  047C  E6 FD       	and	a,0xfd
1537  047E  77          	ld	(hl),a
1538  047F  3A 07 00    	ld	a,(_lin + 0x0007)
1539  0482  32 07 00    	ld	((_jump_lin + 0x0007)),a
1540  0485  3A 00 00    	ld	a,(_s_state)
1541  0488  32 07 00    	ld	((_state + 0x0007)),a
1542  048B  21 64 08    	ld	hl,0x0864
1543  048E  E5          	push	hl
1544  048F  CD 19 04    	call	_player_tile
1545  0492  F1          	pop	af
1546  0493  21 07 00    	ld	hl, +(_sprite_speed_alt + 0x0007)
1547  0496  36 02       	ld	(hl),0x02
1548  0498  21 00 00    	ld	hl,_player_slide
1549  049B  36 00       	ld	(hl),0x00
1550  049D  3A 00 00    	ld	a,(_player_vel_y0)
1551  04A0  32 00 00    	ld	(_player_vel_y),a
1552  04A3  2E 01       	ld	l,0x01
1553  04A5  C3 C4 05    	jp	l_player_move_input_00149
1554  04A8              l_player_move_input_00106:
1555  04A8  21 00 00    	ld	hl,_dirs
1556  04AB  CB 5E       	bit	3, (hl)
1557  04AD  28 23       	jr	Z,l_player_move_input_00111
1558  04AF  CD C5 05    	call	_player_fix_walk_lin
1559  04B2  21 00 00    	ld	hl,_s_state
1560  04B5  7E          	ld	a,(hl)
1561  04B6  F6 04       	or	a,0x04
1562  04B8  E6 F7       	and	a,0xf7
1563  04BA  77          	ld	(hl),a
1564  04BB  01 07 00    	ld	bc,_state_a+7
1565  04BE  0A          	ld	a, (bc)
1566  04BF  F6 10       	or	a,0x10
1567  04C1  E6 F7       	and	a,0xf7
1568  04C3  02          	ld	(bc),a
1569  04C4  3A 00 00    	ld	a,(_player_over_stair)
1570  04C7  B7          	or	a, a
1571  04C8  28 05       	jr	Z,l_player_move_input_00109
1572  04CA  2E 00       	ld	l,0x00
1573  04CC  CD 87 03    	call	_player_check_stairs
1574  04CF              l_player_move_input_00109:
1575  04CF  CD 00 00    	call	_spr_move_horizontal
1576  04D2              l_player_move_input_00111:
1577  04D2  21 00 00    	ld	hl,_dirs
1578  04D5  CB 56       	bit	2, (hl)
1579  04D7  28 23       	jr	Z,l_player_move_input_00115
1580  04D9  CD C5 05    	call	_player_fix_walk_lin
1581  04DC  21 00 00    	ld	hl,_s_state
1582  04DF  7E          	ld	a,(hl)
1583  04E0  F6 08       	or	a,0x08
1584  04E2  E6 FB       	and	a,0xfb
1585  04E4  77          	ld	(hl),a
1586  04E5  01 07 00    	ld	bc,_state_a+7
1587  04E8  0A          	ld	a, (bc)
1588  04E9  F6 08       	or	a,0x08
1589  04EB  E6 EF       	and	a,0xef
1590  04ED  02          	ld	(bc),a
1591  04EE  3A 00 00    	ld	a,(_player_over_stair)
1592  04F1  B7          	or	a, a
1593  04F2  28 05       	jr	Z,l_player_move_input_00113
1594  04F4  2E 00       	ld	l,0x00
1595  04F6  CD 87 03    	call	_player_check_stairs
1596  04F9              l_player_move_input_00113:
1597  04F9  CD 00 00    	call	_spr_move_horizontal
1598  04FC              l_player_move_input_00115:
1599  04FC  21 00 00    	ld	hl,_dirs
1600  04FF  CB 46       	bit	0, (hl)
1601  0501  28 37       	jr	Z,l_player_move_input_00127
1602  0503  2E 00       	ld	l,0x00
1603  0505  CD 87 03    	call	_player_check_stairs
1604  0508  3A 00 00    	ld	a,(_player_over_stair)
1605  050B  B7          	or	a, a
1606  050C  20 05       	jr	NZ,l_player_move_input_00117
1607  050E  2E 01       	ld	l,0x01
1608  0510  CD 87 03    	call	_player_check_stairs
1609  0513              l_player_move_input_00117:
1610  0513  3A 00 00    	ld	a,(_player_over_stair)
1611  0516  B7          	or	a, a
1612  0517  28 0E       	jr	Z,l_player_move_input_00124
1613  0519  CD 00 00    	call	_spr_move_up
1614  051C  7D          	ld	a, l
1615  051D  B7          	or	a, a
1616  051E  28 1A       	jr	Z,l_player_move_input_00127
1617  0520  21 00 00    	ld	hl,_player_over_stair
1618  0523  36 00       	ld	(hl),0x00
1619  0525  18 13       	jr	l_player_move_input_00127
1620  0527              l_player_move_input_00124:
1621  0527  21 00 00    	ld	hl,_dirs
1622  052A  CB 5E       	bit	3, (hl)
1623  052C  20 0C       	jr	NZ,l_player_move_input_00127
1624  052E  21 00 00    	ld	hl,_dirs
1625  0531  CB 56       	bit	2, (hl)
1626  0533  20 05       	jr	NZ,l_player_move_input_00127
1627  0535  2E 00       	ld	l,0x00
1628  0537  C3 C4 05    	jp	l_player_move_input_00149
1629  053A              l_player_move_input_00127:
1630  053A  21 00 00    	ld	hl,_dirs
1631  053D  CB 4E       	bit	1, (hl)
1632  053F  28 3B       	jr	Z,l_player_move_input_00139
1633  0541  AF          	xor	a, a
1634  0542  F5          	push	af
1635  0543  33          	inc	sp
1636  0544  CD 45 03    	call	_player_check_stairs_down
1637  0547  33          	inc	sp
1638  0548  3A 00 00    	ld	a,(_player_over_stair)
1639  054B  B7          	or	a, a
1640  054C  20 08       	jr	NZ,l_player_move_input_00129
1641  054E  3E 01       	ld	a,0x01
1642  0550  F5          	push	af
1643  0551  33          	inc	sp
1644  0552  CD 45 03    	call	_player_check_stairs_down
1645  0555  33          	inc	sp
1646  0556              l_player_move_input_00129:
1647  0556  3A 00 00    	ld	a,(_player_over_stair)
1648  0559  B7          	or	a, a
1649  055A  28 0E       	jr	Z,l_player_move_input_00136
1650  055C  CD 00 00    	call	_spr_move_down
1651  055F  7D          	ld	a, l
1652  0560  B7          	or	a, a
1653  0561  28 19       	jr	Z,l_player_move_input_00139
1654  0563  21 00 00    	ld	hl,_player_over_stair
1655  0566  36 00       	ld	(hl),0x00
1656  0568  18 12       	jr	l_player_move_input_00139
1657  056A              l_player_move_input_00136:
1658  056A  21 00 00    	ld	hl,_dirs
1659  056D  CB 5E       	bit	3, (hl)
1660  056F  20 0B       	jr	NZ,l_player_move_input_00139
1661  0571  21 00 00    	ld	hl,_dirs
1662  0574  CB 56       	bit	2, (hl)
1663  0576  20 04       	jr	NZ,l_player_move_input_00139
1664  0578  2E 00       	ld	l,0x00
1665  057A  18 48       	jr	l_player_move_input_00149
1666  057C              l_player_move_input_00139:
1667  057C  3A 00 00    	ld	a,(_s_state)
1668  057F  32 07 00    	ld	((_state + 0x0007)),a
1669  0582  3A 00 00    	ld	a,(_player_over_stair)
1670  0585  B7          	or	a, a
1671  0586  28 0A       	jr	Z,l_player_move_input_00141
1672  0588  21 72 00    	ld	hl,0x0072
1673  058B  E5          	push	hl
1674  058C  CD 19 04    	call	_player_tile
1675  058F  F1          	pop	af
1676  0590  18 08       	jr	l_player_move_input_00142
1677  0592              l_player_move_input_00141:
1678  0592  21 60 08    	ld	hl,0x0860
1679  0595  E5          	push	hl
1680  0596  CD 19 04    	call	_player_tile
1681  0599  F1          	pop	af
1682  059A              l_player_move_input_00142:
1683  059A  2E 01       	ld	l,0x01
1684  059C  18 26       	jr	l_player_move_input_00149
1685  059E              l_player_move_input_00147:
1686  059E  21 07 00    	ld	hl, +(_colint + 0x0007)
1687  05A1  36 00       	ld	(hl),0x00
1688  05A3  3A 00 00    	ld	a,(_player_over_stair)
1689  05A6  B7          	or	a, a
1690  05A7  28 0A       	jr	Z,l_player_move_input_00144
1691  05A9  21 72 00    	ld	hl,0x0072
1692  05AC  E5          	push	hl
1693  05AD  CD 19 04    	call	_player_tile
1694  05B0  F1          	pop	af
1695  05B1  18 08       	jr	l_player_move_input_00145
1696  05B3              l_player_move_input_00144:
1697  05B3  21 70 01    	ld	hl,0x0170
1698  05B6  E5          	push	hl
1699  05B7  CD 19 04    	call	_player_tile
1700  05BA  F1          	pop	af
1701  05BB              l_player_move_input_00145:
1702  05BB  21 00 00    	ld	hl,_s_state
1703  05BE  7E          	ld	a,(hl)
1704  05BF  E6 F3       	and	a,+(0xf7&0xfb)
1705  05C1  77          	ld	(hl),a
1706  05C2  2E 00       	ld	l,0x00
1707  05C4              l_player_move_input_00149:
1708  05C4  C9          	ret
1709  05C5              	SECTION code_compiler
1710  05C5              ;	---------------------------------
1711  05C5              ; Function player_fix_walk_lin
1712  05C5              ; ---------------------------------
1713  05C5              _player_fix_walk_lin:
1714  05C5  3A 00 00    	ld	a,(_player_over_stair)
1715  05C8  B7          	or	a, a
1716  05C9  C0          	ret	NZ
1717  05CA  3A 00 00    	ld	a,(_s_lin0)
1718  05CD  07          	rlca
1719  05CE  07          	rlca
1720  05CF  07          	rlca
1721  05D0  07          	rlca
1722  05D1  E6 0F       	and	a,0x0f
1723  05D3  07          	rlca
1724  05D4  07          	rlca
1725  05D5  07          	rlca
1726  05D6  07          	rlca
1727  05D7  E6 F0       	and	a,0xf0
1728  05D9  32 00 00    	ld	(_s_lin1),a
1729  05DC  3A 00 00    	ld	a,(_s_lin0)
1730  05DF  21 00 00    	ld	hl,_s_lin1
1731  05E2  96          	sub	a, (hl)
1732  05E3  C8          	ret	Z
1733  05E4  3A 00 00    	ld	a,(_s_lin1)
1734  05E7  32 07 00    	ld	((_lin + 0x0007)),a
1735  05EA  C9          	ret
1736  05EB              	SECTION code_compiler
1737  05EB              ;	---------------------------------
1738  05EB              ; Function player_fire
1739  05EB              ; ---------------------------------
1740  05EB              _player_fire:
1741  05EB  21 00 00    	ld	hl,_dirs
1742  05EE  CB 7E       	bit	7, (hl)
1743  05F0  28 3F       	jr	Z,l_player_fire_00110
1744  05F2  21 00 00    	ld	hl,_dirs
1745  05F5  CB 46       	bit	0, (hl)
1746  05F7  20 38       	jr	NZ,l_player_fire_00110
1747  05F9  21 00 00    	ld	hl,_player_mana
1748  05FC  7E          	ld	a, (hl)
1749  05FD  B7          	or	a, a
1750  05FE  28 2D       	jr	Z,l_player_fire_00107
1751  0600  3A 07 00    	ld	a,(_bullet_col + 0x0007)
1752  0603  3C          	inc	a
1753  0604  20 27       	jr	NZ,l_player_fire_00107
1754  0606  3E 05       	ld	a,0x05
1755  0608  96          	sub	a, (hl)
1756  0609  30 12       	jr	NC,l_player_fire_00104
1757  060B  CD 00 00    	call	_sound_hit_enemy
1758  060E  3A 00 00    	ld	a,(_game_god_mode)
1759  0611  B7          	or	a, a
1760  0612  20 0E       	jr	NZ,l_player_fire_00105
1761  0614  21 00 00    	ld	hl,_player_mana
1762  0617  7E          	ld	a, (hl)
1763  0618  C6 FB       	add	a,0xfb
1764  061A  77          	ld	(hl), a
1765  061B  18 05       	jr	l_player_fire_00105
1766  061D              l_player_fire_00104:
1767  061D  21 00 00    	ld	hl,_player_mana
1768  0620  36 00       	ld	(hl),0x00
1769  0622              l_player_fire_00105:
1770  0622  CD 00 00    	call	_game_update_stats
1771  0625  21 07 78    	ld	hl,0x7807
1772  0628  E5          	push	hl
1773  0629  CD 00 00    	call	_game_shoot_fire
1774  062C  F1          	pop	af
1775  062D              l_player_fire_00107:
1776  062D  2E 01       	ld	l,0x01
1777  062F  18 02       	jr	l_player_fire_00112
1778  0631              l_player_fire_00110:
1779  0631  2E 00       	ld	l,0x00
1780  0633              l_player_fire_00112:
1781  0633  C9          	ret
1782  0634              	SECTION code_compiler
1783  0634              ;	---------------------------------
1784  0634              ; Function player_check_map
1785  0634              ; ---------------------------------
1786  0634              _player_check_map:
1787  0634  21 07 00    	ld	hl,+(_col + 0x0007)
1788  0637  46          	ld	b, (hl)
1789  0638  21 07 00    	ld	hl,+(_lin + 0x0007)
1790  063B  4E          	ld	c, (hl)
1791  063C  C5          	push	bc
1792  063D  CD 00 00    	call	_spr_calc_index
1793  0640  F1          	pop	af
1794  0641  7D          	ld	a,l
1795  0642  32 00 00    	ld	(_sprite_curr_index),a
1796  0645  21 07 00    	ld	hl,+(_col + 0x0007)
1797  0648  4E          	ld	c, (hl)
1798  0649  3A 07 00    	ld	a,(_lin + 0x0007)
1799  064C  E6 0F       	and	a,0x0f
1800  064E  CB 41       	bit	0, c
1801  0650  20 17       	jr	NZ,l_player_check_map_00108
1802  0652  B7          	or	a, a
1803  0653  20 05       	jr	NZ,l_player_check_map_00102
1804  0655  CD 94 06    	call	_player_pick_item
1805  0658  18 39       	jr	l_player_check_map_00110
1806  065A              l_player_check_map_00102:
1807  065A  CD 94 06    	call	_player_pick_item
1808  065D  21 00 00    	ld	hl,_sprite_curr_index
1809  0660  7E          	ld	a, (hl)
1810  0661  C6 10       	add	a,0x10
1811  0663  77          	ld	(hl), a
1812  0664  CD 94 06    	call	_player_pick_item
1813  0667  18 2A       	jr	l_player_check_map_00110
1814  0669              l_player_check_map_00108:
1815  0669  B7          	or	a, a
1816  066A  20 0C       	jr	NZ,l_player_check_map_00105
1817  066C  CD 94 06    	call	_player_pick_item
1818  066F  21 00 00    	ld	hl,_sprite_curr_index
1819  0672  34          	inc	(hl)
1820  0673  CD 94 06    	call	_player_pick_item
1821  0676  18 1B       	jr	l_player_check_map_00110
1822  0678              l_player_check_map_00105:
1823  0678  CD 94 06    	call	_player_pick_item
1824  067B  21 00 00    	ld	hl,_sprite_curr_index
1825  067E  34          	inc	(hl)
1826  067F  CD 94 06    	call	_player_pick_item
1827  0682  21 00 00    	ld	hl,_sprite_curr_index
1828  0685  7E          	ld	a, (hl)
1829  0686  C6 0F       	add	a,0x0f
1830  0688  77          	ld	(hl), a
1831  0689  CD 94 06    	call	_player_pick_item
1832  068C  21 00 00    	ld	hl,_sprite_curr_index
1833  068F  34          	inc	(hl)
1834  0690  CD 94 06    	call	_player_pick_item
1835  0693              l_player_check_map_00110:
1836  0693  C9          	ret
1837  0694              	SECTION code_compiler
1838  0694              ;	---------------------------------
1839  0694              ; Function player_pick_item
1840  0694              ; ---------------------------------
1841  0694              _player_pick_item:
1842  0694  CD 00 00    	call	___sdcc_enter_ix
1843  0697  3B          	dec	sp
1844  0698  2A 00 00    	ld	hl,(_sprite_curr_index)
1845  069B  26 00       	ld	h,0x00
1846  069D  01 00 00    	ld	bc,_scr_map
1847  06A0  09          	add	hl,bc
1848  06A1  7E          	ld	a,(hl)
1849  06A2  DD 77 FF    	ld	(ix-1),a
1850  06A5  D6 24       	sub	a,0x24
1851  06A7  DA 0E 08    	jp	C, l_player_pick_item_00129
1852  06AA  3E 2F       	ld	a,0x2f
1853  06AC  DD 96 FF    	sub	a,(ix-1)
1854  06AF  DA 0E 08    	jp	C, l_player_pick_item_00129
1855  06B2  CD 00 00    	call	_ay_reset
1856  06B5  21 00 00    	ld	hl,_ay_effect_10
1857  06B8  CD 00 00    	call	_ay_fx_play
1858  06BB  CD 00 00    	call	_sound_coin
1859  06BE  2A 00 00    	ld	hl,(_sprite_curr_index)
1860  06C1  26 00       	ld	h,0x00
1861  06C3  01 00 00    	ld	bc,_scr_map
1862  06C6  09          	add	hl,bc
1863  06C7  3A 00 00    	ld	a,(_sprite_curr_index)
1864  06CA  5F          	ld	e,a
1865  06CB  16 00       	ld	d,0x00
1866  06CD  E5          	push	hl
1867  06CE  D5          	push	de
1868  06CF  CD 00 00    	call	_game_match_back
1869  06D2  F1          	pop	af
1870  06D3  C1          	pop	bc
1871  06D4  7D          	ld	a,l
1872  06D5  02          	ld	(bc), a
1873  06D6  3A 00 00    	ld	a,(_sprite_curr_index)
1874  06D9  4F          	ld	c,a
1875  06DA  06 00       	ld	b,0x00
1876  06DC  C5          	push	bc
1877  06DD  CD 00 00    	call	_game_obj_set
1878  06E0  F1          	pop	af
1879  06E1  3A 00 00    	ld	a,(_sprite_curr_index)
1880  06E4  07          	rlca
1881  06E5  07          	rlca
1882  06E6  07          	rlca
1883  06E7  07          	rlca
1884  06E8  E6 0F       	and	a,0x0f
1885  06EA  07          	rlca
1886  06EB  07          	rlca
1887  06EC  07          	rlca
1888  06ED  07          	rlca
1889  06EE  E6 F0       	and	a,0xf0
1890  06F0  32 00 00    	ld	(_s_lin1),a
1891  06F3  3A 00 00    	ld	a,(_sprite_curr_index)
1892  06F6  E6 0F       	and	a,0x0f
1893  06F8  87          	add	a, a
1894  06F9  32 00 00    	ld	(_s_col1),a
1895  06FC  21 00 00    	ld	hl,0x0000
1896  06FF  E5          	push	hl
1897  0700  21 84 03    	ld	hl,0x0384
1898  0703  E5          	push	hl
1899  0704  F5          	push	af
1900  0705  33          	inc	sp
1901  0706  3A 00 00    	ld	a,(_s_lin1)
1902  0709  F5          	push	af
1903  070A  33          	inc	sp
1904  070B  CD 00 00    	call	_spr_add_anim
1905  070E  F1          	pop	af
1906  070F  F1          	pop	af
1907  0710  F1          	pop	af
1908  0711  DD 7E FF    	ld	a,(ix-1)
1909  0714  D6 24       	sub	a,0x24
1910  0716  DA 0E 08    	jp	C, l_player_pick_item_00129
1911  0719  3E 2F       	ld	a,0x2f
1912  071B  DD 96 FF    	sub	a,(ix-1)
1913  071E  DA 0E 08    	jp	C, l_player_pick_item_00129
1914  0721  DD 7E FF    	ld	a,(ix-1)
1915  0724  C6 DC       	add	a,0xdc
1916  0726  4F          	ld	c, a
1917  0727  06 00       	ld	b,0x00
1918  0729  21 30 07    	ld	hl,l_player_pick_item_00171
1919  072C  09          	add	hl, bc
1920  072D  09          	add	hl, bc
1921  072E  09          	add	hl, bc
1922  072F  E9          	jp	(hl)
1923  0730              l_player_pick_item_00171:
1924  0730  C3 54 07    	jp	l_player_pick_item_00101
1925  0733  C3 5F 07    	jp	l_player_pick_item_00102
1926  0736  C3 6A 07    	jp	l_player_pick_item_00103
1927  0739  C3 75 07    	jp	l_player_pick_item_00104
1928  073C  C3 80 07    	jp	l_player_pick_item_00105
1929  073F  C3 92 07    	jp	l_player_pick_item_00107
1930  0742  C3 A7 07    	jp	l_player_pick_item_00110
1931  0745  C3 BC 07    	jp	l_player_pick_item_00113
1932  0748  C3 D1 07    	jp	l_player_pick_item_00116
1933  074B  C3 E6 07    	jp	l_player_pick_item_00119
1934  074E  C3 FB 07    	jp	l_player_pick_item_00122
1935  0751  C3 89 07    	jp	l_player_pick_item_00106
1936  0754              l_player_pick_item_00101:
1937  0754  21 00 00    	ld	hl,_player_keys
1938  0757  36 01       	ld	(hl),0x01
1939  0759  CD 00 00    	call	_game_update_stats
1940  075C  C3 0E 08    	jp	l_player_pick_item_00129
1941  075F              l_player_pick_item_00102:
1942  075F  21 01 00    	ld	hl, +(_player_keys + 0x0001)
1943  0762  36 01       	ld	(hl),0x01
1944  0764  CD 00 00    	call	_game_update_stats
1945  0767  C3 0E 08    	jp	l_player_pick_item_00129
1946  076A              l_player_pick_item_00103:
1947  076A  21 02 00    	ld	hl, +(_player_keys + 0x0002)
1948  076D  36 01       	ld	(hl),0x01
1949  076F  CD 00 00    	call	_game_update_stats
1950  0772  C3 0E 08    	jp	l_player_pick_item_00129
1951  0775              l_player_pick_item_00104:
1952  0775  21 03 00    	ld	hl, +(_player_keys + 0x0003)
1953  0778  36 01       	ld	(hl),0x01
1954  077A  CD 00 00    	call	_game_update_stats
1955  077D  C3 0E 08    	jp	l_player_pick_item_00129
1956  0780              l_player_pick_item_00105:
1957  0780  21 01 00    	ld	hl,0x0001
1958  0783  CD DE 0A    	call	_player_score_add
1959  0786  C3 0E 08    	jp	l_player_pick_item_00129
1960  0789              l_player_pick_item_00106:
1961  0789  21 0A 00    	ld	hl,0x000a
1962  078C  CD DE 0A    	call	_player_score_add
1963  078F  C3 0E 08    	jp	l_player_pick_item_00129
1964  0792              l_player_pick_item_00107:
1965  0792  21 00 00    	ld	hl,_player_str
1966  0795  34          	inc	(hl)
1967  0796  21 00 00    	ld	hl,_player_max_vita
1968  0799  7E          	ld	a, (hl)
1969  079A  D6 C8       	sub	a,0xc8
1970  079C  30 70       	jr	NC,l_player_pick_item_00129
1971  079E  7E          	ld	a, (hl)
1972  079F  C6 0A       	add	a,0x0a
1973  07A1  77          	ld	(hl), a
1974  07A2  CD 00 00    	call	_game_update_stats
1975  07A5  18 67       	jr	l_player_pick_item_00129
1976  07A7              l_player_pick_item_00110:
1977  07A7  21 00 00    	ld	hl,_player_str
1978  07AA  34          	inc	(hl)
1979  07AB  21 00 00    	ld	hl,_player_max_vita
1980  07AE  7E          	ld	a, (hl)
1981  07AF  D6 C8       	sub	a,0xc8
1982  07B1  30 5B       	jr	NC,l_player_pick_item_00129
1983  07B3  7E          	ld	a, (hl)
1984  07B4  C6 0A       	add	a,0x0a
1985  07B6  77          	ld	(hl), a
1986  07B7  CD 00 00    	call	_game_update_stats
1987  07BA  18 52       	jr	l_player_pick_item_00129
1988  07BC              l_player_pick_item_00113:
1989  07BC  21 00 00    	ld	hl,_player_str
1990  07BF  34          	inc	(hl)
1991  07C0  21 00 00    	ld	hl,_player_max_vita
1992  07C3  7E          	ld	a, (hl)
1993  07C4  D6 C8       	sub	a,0xc8
1994  07C6  30 46       	jr	NC,l_player_pick_item_00129
1995  07C8  7E          	ld	a, (hl)
1996  07C9  C6 0A       	add	a,0x0a
1997  07CB  77          	ld	(hl), a
1998  07CC  CD 00 00    	call	_game_update_stats
1999  07CF  18 3D       	jr	l_player_pick_item_00129
2000  07D1              l_player_pick_item_00116:
2001  07D1  21 00 00    	ld	hl,_player_int
2002  07D4  34          	inc	(hl)
2003  07D5  21 00 00    	ld	hl,_player_max_mana
2004  07D8  7E          	ld	a, (hl)
2005  07D9  D6 C8       	sub	a,0xc8
2006  07DB  30 31       	jr	NC,l_player_pick_item_00129
2007  07DD  7E          	ld	a, (hl)
2008  07DE  C6 0A       	add	a,0x0a
2009  07E0  77          	ld	(hl), a
2010  07E1  CD 00 00    	call	_game_update_stats
2011  07E4  18 28       	jr	l_player_pick_item_00129
2012  07E6              l_player_pick_item_00119:
2013  07E6  21 00 00    	ld	hl,_player_int
2014  07E9  34          	inc	(hl)
2015  07EA  21 00 00    	ld	hl,_player_max_mana
2016  07ED  7E          	ld	a, (hl)
2017  07EE  D6 C8       	sub	a,0xc8
2018  07F0  30 1C       	jr	NC,l_player_pick_item_00129
2019  07F2  7E          	ld	a, (hl)
2020  07F3  C6 0A       	add	a,0x0a
2021  07F5  77          	ld	(hl), a
2022  07F6  CD 00 00    	call	_game_update_stats
2023  07F9  18 13       	jr	l_player_pick_item_00129
2024  07FB              l_player_pick_item_00122:
2025  07FB  21 00 00    	ld	hl,_player_int
2026  07FE  34          	inc	(hl)
2027  07FF  21 00 00    	ld	hl,_player_max_mana
2028  0802  7E          	ld	a, (hl)
2029  0803  D6 C8       	sub	a,0xc8
2030  0805  30 07       	jr	NC,l_player_pick_item_00129
2031  0807  7E          	ld	a, (hl)
2032  0808  C6 0A       	add	a,0x0a
2033  080A  77          	ld	(hl), a
2034  080B  CD 00 00    	call	_game_update_stats
2035  080E              l_player_pick_item_00129:
2036  080E  33          	inc	sp
2037  080F  DD E1       	pop	ix
2038  0811  C9          	ret
2039  0812              	SECTION code_compiler
2040  0812              ;	---------------------------------
2041  0812              ; Function player_hit_platform
2042  0812              ; ---------------------------------
2043  0812              _player_hit_platform:
2044  0812  CD 00 00    	call	___sdcc_enter_ix
2045  0815  F5          	push	af
2046  0816  3A 00 00    	ld	a,(_player_hit_lin)
2047  0819  B7          	or	a, a
2048  081A  C2 A9 0A    	jp	NZ, l_player_hit_platform_00144
2049  081D  21 07 00    	ld	hl,+(_lin + 0x0007)
2050  0820  4E          	ld	c, (hl)
2051  0821  3E 10       	ld	a,0x10
2052  0823  91          	sub	a, c
2053  0824  D2 A9 0A    	jp	NC, l_player_hit_platform_00144
2054  0827  01 00 00    	ld	bc,_scr_map
2055  082A  2A 00 00    	ld	hl,(_index1)
2056  082D  09          	add	hl,bc
2057  082E  7E          	ld	a,(hl)
2058  082F  D6 45       	sub	a,0x45
2059  0831  DA A9 0A    	jp	C, l_player_hit_platform_00144
2060  0834  2A 00 00    	ld	hl,(_curr_time)
2061  0837  22 0E 00    	ld	(_spr_timer + 0x000e),hl
2062  083A  2A 07 00    	ld	hl,(_lin + 0x0007)
2063  083D  26 00       	ld	h,0x00
2064  083F  01 F8 FF    	ld	bc,0xfff8
2065  0842  09          	add	hl,bc
2066  0843  EB          	ex	de,hl
2067  0844  06 04       	ld	b,0x04
2068  0846              l_player_hit_platform_00249:
2069  0846  CB 2A       	sra	d
2070  0848  CB 1B       	rr	e
2071  084A  10 FA       	djnz	l_player_hit_platform_00249
2072  084C  7B          	ld	a, e
2073  084D  07          	rlca
2074  084E  07          	rlca
2075  084F  07          	rlca
2076  0850  07          	rlca
2077  0851  E6 F0       	and	a,0xf0
2078  0853  C6 08       	add	a,0x08
2079  0855  32 00 00    	ld	(_player_hit_lin),a
2080  0858  21 07 00    	ld	hl,+(_col + 0x0007)
2081  085B  4E          	ld	c, (hl)
2082  085C  CB 41       	bit	0, c
2083  085E  20 06       	jr	NZ,l_player_hit_platform_00111
2084  0860  21 00 00    	ld	hl,_player_hit_col
2085  0863  71          	ld	(hl), c
2086  0864  18 2D       	jr	l_player_hit_platform_00112
2087  0866              l_player_hit_platform_00111:
2088  0866  21 07 00    	ld	hl,+(_state + 0x0007)
2089  0869  5E          	ld	e, (hl)
2090  086A  41          	ld	b, c
2091  086B  04          	inc	b
2092  086C  0D          	dec	c
2093  086D  CB 5B       	bit	3, e
2094  086F  28 12       	jr	Z,l_player_hit_platform_00108
2095  0871  3A 00 00    	ld	a,(_g_player_hit_right)
2096  0874  B7          	or	a, a
2097  0875  28 06       	jr	Z,l_player_hit_platform_00102
2098  0877  21 00 00    	ld	hl,_player_hit_col
2099  087A  70          	ld	(hl), b
2100  087B  18 16       	jr	l_player_hit_platform_00112
2101  087D              l_player_hit_platform_00102:
2102  087D  21 00 00    	ld	hl,_player_hit_col
2103  0880  71          	ld	(hl), c
2104  0881  18 10       	jr	l_player_hit_platform_00112
2105  0883              l_player_hit_platform_00108:
2106  0883  3A 00 00    	ld	a,(_g_player_hit_left)
2107  0886  B7          	or	a, a
2108  0887  28 06       	jr	Z,l_player_hit_platform_00105
2109  0889  21 00 00    	ld	hl,_player_hit_col
2110  088C  71          	ld	(hl), c
2111  088D  18 04       	jr	l_player_hit_platform_00112
2112  088F              l_player_hit_platform_00105:
2113  088F  21 00 00    	ld	hl,_player_hit_col
2114  0892  70          	ld	(hl), b
2115  0893              l_player_hit_platform_00112:
2116  0893  2A 00 00    	ld	hl,(_index1)
2117  0896  01 00 00    	ld	bc,_scr_map
2118  0899  09          	add	hl,bc
2119  089A  7E          	ld	a,(hl)
2120  089B  FE 4D       	cp	a,0x4d
2121  089D  20 45       	jr	NZ,l_player_hit_platform_00114
2122  089F  E5          	push	hl
2123  08A0  2A 00 00    	ld	hl,(_index1)
2124  08A3  E5          	push	hl
2125  08A4  CD 00 00    	call	_game_match_back
2126  08A7  F1          	pop	af
2127  08A8  C1          	pop	bc
2128  08A9  7D          	ld	a,l
2129  08AA  02          	ld	(bc), a
2130  08AB  2A 00 00    	ld	hl,(_index0)
2131  08AE  E5          	push	hl
2132  08AF  CD 00 00    	call	_game_obj_set
2133  08B2  F1          	pop	af
2134  08B3  21 00 00    	ld	hl,_index1
2135  08B6  7E          	ld	a, (hl)
2136  08B7  E6 0F       	and	a,0x0f
2137  08B9  87          	add	a, a
2138  08BA  4F          	ld	c, a
2139  08BB  23          	inc	hl
2140  08BC  56          	ld	d,(hl)
2141  08BD  2B          	dec	hl
2142  08BE  7E          	ld	a, (hl)
2143  08BF  06 04       	ld	b,0x04
2144  08C1              l_player_hit_platform_00255:
2145  08C1  CB 3A       	srl	d
2146  08C3  1F          	rra
2147  08C4  10 FB       	djnz	l_player_hit_platform_00255
2148  08C6  07          	rlca
2149  08C7  07          	rlca
2150  08C8  07          	rlca
2151  08C9  07          	rlca
2152  08CA  E6 F0       	and	a,0xf0
2153  08CC  47          	ld	b, a
2154  08CD  21 00 00    	ld	hl,0x0000
2155  08D0  E5          	push	hl
2156  08D1  21 87 03    	ld	hl,0x0387
2157  08D4  E5          	push	hl
2158  08D5  79          	ld	a, c
2159  08D6  48          	ld	c,b
2160  08D7  47          	ld	b,a
2161  08D8  C5          	push	bc
2162  08D9  CD 00 00    	call	_spr_add_anim
2163  08DC  F1          	pop	af
2164  08DD  F1          	pop	af
2165  08DE  F1          	pop	af
2166  08DF  2E 01       	ld	l,0x01
2167  08E1  C3 AB 0A    	jp	l_player_hit_platform_00147
2168  08E4              l_player_hit_platform_00114:
2169  08E4  FE 5C       	cp	a,0x5c
2170  08E6  28 05       	jr	Z,l_player_hit_platform_00140
2171  08E8  D6 5D       	sub	a,0x5d
2172  08EA  C2 9D 0A    	jp	NZ,l_player_hit_platform_00141
2173  08ED              l_player_hit_platform_00140:
2174  08ED  21 00 00    	ld	hl,_tmp0
2175  08F0  36 00       	ld	(hl),0x00
2176  08F2  3A 00 00    	ld	a,(_game_boss)
2177  08F5  B7          	or	a, a
2178  08F6  28 0B       	jr	Z,l_player_hit_platform_00173
2179  08F8  3A 00 00    	ld	a,(_game_mush_count)
2180  08FB  B7          	or	a, a
2181  08FC  28 05       	jr	Z,l_player_hit_platform_00173
2182  08FE  2E 00       	ld	l,0x00
2183  0900  C3 AB 0A    	jp	l_player_hit_platform_00147
2184  0903              l_player_hit_platform_00173:
2185  0903              l_player_hit_platform_00137:
2186  0903  21 00 00    	ld	hl,_tmp0
2187  0906  7E          	ld	a, (hl)
2188  0907  D6 07       	sub	a,0x07
2189  0909  D2 9D 0A    	jp	NC, l_player_hit_platform_00141
2190  090C  4E          	ld	c,(hl)
2191  090D  06 00       	ld	b,0x00
2192  090F  21 00 00    	ld	hl,_mush_index
2193  0912  09          	add	hl,bc
2194  0913  4E          	ld	c, (hl)
2195  0914  06 00       	ld	b,0x00
2196  0916  2A 00 00    	ld	hl,(_index1)
2197  0919  AF          	xor	a,a
2198  091A  ED 42       	sbc	hl,bc
2199  091C  C2 96 0A    	jp	NZ,l_player_hit_platform_00136
2200  091F  3A 07 00    	ld	a,(_lin + 0x0007)
2201  0922  07          	rlca
2202  0923  07          	rlca
2203  0924  07          	rlca
2204  0925  07          	rlca
2205  0926  E6 0F       	and	a,0x0f
2206  0928  07          	rlca
2207  0929  07          	rlca
2208  092A  07          	rlca
2209  092B  07          	rlca
2210  092C  E6 F0       	and	a,0xf0
2211  092E  C6 E0       	add	a,0xe0
2212  0930  32 00 00    	ld	(_s_lin1),a
2213  0933  3A 07 00    	ld	a,(_col + 0x0007)
2214  0936  CB 3F       	srl	a
2215  0938  87          	add	a, a
2216  0939  32 00 00    	ld	(_s_col1),a
2217  093C  21 00 00    	ld	hl,_tmp
2218  093F  36 00       	ld	(hl),0x00
2219  0941              l_player_hit_platform_00120:
2220  0941  21 00 00    	ld	hl,_tmp
2221  0944  7E          	ld	a, (hl)
2222  0945  D6 07       	sub	a,0x07
2223  0947  30 1C       	jr	NC,l_player_hit_platform_00122
2224  0949  4E          	ld	c,(hl)
2225  094A  06 00       	ld	b,0x00
2226  094C  21 00 00    	ld	hl,_mush_index
2227  094F  09          	add	hl,bc
2228  0950  4E          	ld	c, (hl)
2229  0951  06 00       	ld	b,0x00
2230  0953  21 00 00    	ld	hl,_index1
2231  0956  7E          	ld	a, (hl)
2232  0957  91          	sub	a, c
2233  0958  20 05       	jr	NZ,l_player_hit_platform_00261
2234  095A  23          	inc	hl
2235  095B  7E          	ld	a, (hl)
2236  095C  90          	sub	a, b
2237  095D  28 06       	jr	Z,l_player_hit_platform_00122
2238  095F              l_player_hit_platform_00261:
2239  095F  21 00 00    	ld	hl,_tmp
2240  0962  34          	inc	(hl)
2241  0963  18 DC       	jr	l_player_hit_platform_00120
2242  0965              l_player_hit_platform_00122:
2243  0965  2A 00 00    	ld	hl,(_tmp)
2244  0968  26 00       	ld	h,0x00
2245  096A  01 00 00    	ld	bc,_mush_class
2246  096D  09          	add	hl,bc
2247  096E  7E          	ld	a,(hl)
2248  096F  FE 78       	cp	a,0x78
2249  0971  28 18       	jr	Z,l_player_hit_platform_00123
2250  0973  FE 79       	cp	a,0x79
2251  0975  28 2F       	jr	Z,l_player_hit_platform_00124
2252  0977  FE 7A       	cp	a,0x7a
2253  0979  28 5F       	jr	Z,l_player_hit_platform_00126
2254  097B  FE 7B       	cp	a,0x7b
2255  097D  28 41       	jr	Z,l_player_hit_platform_00125
2256  097F  FE 7C       	cp	a,0x7c
2257  0981  CA 0E 0A    	jp	Z,l_player_hit_platform_00128
2258  0984  D6 7D       	sub	a,0x7d
2259  0986  28 6C       	jr	Z,l_player_hit_platform_00127
2260  0988  C3 26 0A    	jp	l_player_hit_platform_00129
2261  098B              l_player_hit_platform_00123:
2262  098B  2E 02       	ld	l,0x02
2263  098D  CD 00 00    	call	_zx_border_fastcall
2264  0990  3A 00 00    	ld	a,(_s_col1)
2265  0993  21 06 FF    	ld	hl,0xff06
2266  0996  E5          	push	hl
2267  0997  F5          	push	af
2268  0998  33          	inc	sp
2269  0999  3A 00 00    	ld	a,(_s_lin1)
2270  099C  F5          	push	af
2271  099D  33          	inc	sp
2272  099E  CD 00 00    	call	_enemy_init
2273  09A1  F1          	pop	af
2274  09A2  F1          	pop	af
2275  09A3  C3 26 0A    	jp	l_player_hit_platform_00129
2276  09A6              l_player_hit_platform_00124:
2277  09A6  2E 02       	ld	l,0x02
2278  09A8  CD 00 00    	call	_zx_border_fastcall
2279  09AB  3A 00 00    	ld	a,(_s_col1)
2280  09AE  21 06 01    	ld	hl,0x0106
2281  09B1  E5          	push	hl
2282  09B2  F5          	push	af
2283  09B3  33          	inc	sp
2284  09B4  3A 00 00    	ld	a,(_s_lin1)
2285  09B7  F5          	push	af
2286  09B8  33          	inc	sp
2287  09B9  CD 00 00    	call	_enemy_init
2288  09BC  F1          	pop	af
2289  09BD  F1          	pop	af
2290  09BE  18 66       	jr	l_player_hit_platform_00129
2291  09C0              l_player_hit_platform_00125:
2292  09C0  2E 01       	ld	l,0x01
2293  09C2  CD 00 00    	call	_zx_border_fastcall
2294  09C5  3A 00 00    	ld	a,(_s_col1)
2295  09C8  21 07 01    	ld	hl,0x0107
2296  09CB  E5          	push	hl
2297  09CC  F5          	push	af
2298  09CD  33          	inc	sp
2299  09CE  3A 00 00    	ld	a,(_s_lin1)
2300  09D1  F5          	push	af
2301  09D2  33          	inc	sp
2302  09D3  CD 00 00    	call	_enemy_init
2303  09D6  F1          	pop	af
2304  09D7  F1          	pop	af
2305  09D8  18 4C       	jr	l_player_hit_platform_00129
2306  09DA              l_player_hit_platform_00126:
2307  09DA  2E 01       	ld	l,0x01
2308  09DC  CD 00 00    	call	_zx_border_fastcall
2309  09DF  3A 00 00    	ld	a,(_s_col1)
2310  09E2  21 07 FF    	ld	hl,0xff07
2311  09E5  E5          	push	hl
2312  09E6  F5          	push	af
2313  09E7  33          	inc	sp
2314  09E8  3A 00 00    	ld	a,(_s_lin1)
2315  09EB  F5          	push	af
2316  09EC  33          	inc	sp
2317  09ED  CD 00 00    	call	_enemy_init
2318  09F0  F1          	pop	af
2319  09F1  F1          	pop	af
2320  09F2  18 32       	jr	l_player_hit_platform_00129
2321  09F4              l_player_hit_platform_00127:
2322  09F4  2E 04       	ld	l,0x04
2323  09F6  CD 00 00    	call	_zx_border_fastcall
2324  09F9  3A 00 00    	ld	a,(_s_col1)
2325  09FC  21 08 01    	ld	hl,0x0108
2326  09FF  E5          	push	hl
2327  0A00  F5          	push	af
2328  0A01  33          	inc	sp
2329  0A02  3A 00 00    	ld	a,(_s_lin1)
2330  0A05  F5          	push	af
2331  0A06  33          	inc	sp
2332  0A07  CD 00 00    	call	_enemy_init
2333  0A0A  F1          	pop	af
2334  0A0B  F1          	pop	af
2335  0A0C  18 18       	jr	l_player_hit_platform_00129
2336  0A0E              l_player_hit_platform_00128:
2337  0A0E  2E 04       	ld	l,0x04
2338  0A10  CD 00 00    	call	_zx_border_fastcall
2339  0A13  3A 00 00    	ld	a,(_s_col1)
2340  0A16  21 08 FF    	ld	hl,0xff08
2341  0A19  E5          	push	hl
2342  0A1A  F5          	push	af
2343  0A1B  33          	inc	sp
2344  0A1C  3A 00 00    	ld	a,(_s_lin1)
2345  0A1F  F5          	push	af
2346  0A20  33          	inc	sp
2347  0A21  CD 00 00    	call	_enemy_init
2348  0A24  F1          	pop	af
2349  0A25  F1          	pop	af
2350  0A26              l_player_hit_platform_00129:
2351  0A26  21 00 00    	ld	hl,_game_mush_count
2352  0A29  34          	inc	(hl)
2353  0A2A  3A 00 00    	ld	a,(_game_boss)
2354  0A2D  B7          	or	a, a
2355  0A2E  20 66       	jr	NZ,l_player_hit_platform_00136
2356  0A30  3A 00 00    	ld	a,(_index1)
2357  0A33  C6 F0       	add	a,0xf0
2358  0A35  32 00 00    	ld	(_index0),a
2359  0A38  3A 01 00    	ld	a,(_index1 + 1)
2360  0A3B  CE FF       	adc	a,0xff
2361  0A3D  21 01 00    	ld	hl,_index0 + 1
2362  0A40  77          	ld	(hl), a
2363  0A41  3E 00       	ld	a, +((_scr_map) & 0xFF)
2364  0A43  2B          	dec	hl
2365  0A44  86          	add	a, (hl)
2366  0A45  4F          	ld	c, a
2367  0A46  3E 00       	ld	a, +((_scr_map) / 256)
2368  0A48  23          	inc	hl
2369  0A49  8E          	adc	a, (hl)
2370  0A4A  47          	ld	b, a
2371  0A4B  C5          	push	bc
2372  0A4C  46          	ld	b,(hl)
2373  0A4D  2B          	dec	hl
2374  0A4E  4E          	ld	c,(hl)
2375  0A4F  C5          	push	bc
2376  0A50  CD 00 00    	call	_game_match_back
2377  0A53  F1          	pop	af
2378  0A54  C1          	pop	bc
2379  0A55  7D          	ld	a,l
2380  0A56  02          	ld	(bc), a
2381  0A57  3E 00       	ld	a, +((_scr_map) & 0xFF)
2382  0A59  21 00 00    	ld	hl,_index1
2383  0A5C  86          	add	a, (hl)
2384  0A5D  DD 77 FE    	ld	(ix-2),a
2385  0A60  3E 00       	ld	a, +((_scr_map) / 256)
2386  0A62  23          	inc	hl
2387  0A63  8E          	adc	a, (hl)
2388  0A64  DD 77 FF    	ld	(ix-1),a
2389  0A67  E1          	pop	hl
2390  0A68  7E          	ld	a,(hl)
2391  0A69  E5          	push	hl
2392  0A6A  D6 5C       	sub	a,0x5c
2393  0A6C  20 06       	jr	NZ,l_player_hit_platform_00131
2394  0A6E  E1          	pop	hl
2395  0A6F  E5          	push	hl
2396  0A70  36 4F       	ld	(hl),0x4f
2397  0A72  18 04       	jr	l_player_hit_platform_00132
2398  0A74              l_player_hit_platform_00131:
2399  0A74  E1          	pop	hl
2400  0A75  E5          	push	hl
2401  0A76  36 54       	ld	(hl),0x54
2402  0A78              l_player_hit_platform_00132:
2403  0A78  2A 00 00    	ld	hl,(_index1)
2404  0A7B  01 F0 FF    	ld	bc,0xfff0
2405  0A7E  09          	add	hl,bc
2406  0A7F  E5          	push	hl
2407  0A80  CD 00 00    	call	_game_obj_set
2408  0A83  F1          	pop	af
2409  0A84  3A 00 00    	ld	a,(_s_lin1)
2410  0A87  C6 10       	add	a,0x10
2411  0A89  4F          	ld	c, a
2412  0A8A  3A 00 00    	ld	a, (_s_col1)
2413  0A8D  47          	ld	b,a
2414  0A8E  C5          	push	bc
2415  0A8F  3E 4F       	ld	a,0x4f
2416  0A91  F5          	push	af
2417  0A92  33          	inc	sp
2418  0A93  CD 00 00    	call	_NIRVANAP_drawT_callee
2419  0A96              l_player_hit_platform_00136:
2420  0A96  21 00 00    	ld	hl,_tmp0
2421  0A99  34          	inc	(hl)
2422  0A9A  C3 03 09    	jp	l_player_hit_platform_00137
2423  0A9D              l_player_hit_platform_00141:
2424  0A9D  2E 01       	ld	l,0x01
2425  0A9F  CD 00 00    	call	_spr_brick_anim
2426  0AA2  CD 00 00    	call	_sound_hit_brick
2427  0AA5  2E 01       	ld	l,0x01
2428  0AA7  18 02       	jr	l_player_hit_platform_00147
2429  0AA9              l_player_hit_platform_00144:
2430  0AA9  2E 00       	ld	l,0x00
2431  0AAB              l_player_hit_platform_00147:
2432  0AAB  F1          	pop	af
2433  0AAC  DD E1       	pop	ix
2434  0AAE  C9          	ret
2435  0AAF              	SECTION code_compiler
2436  0AAF              ;	---------------------------------
2437  0AAF              ; Function player_hit_platform_clear
2438  0AAF              ; ---------------------------------
2439  0AAF              _player_hit_platform_clear:
2440  0AAF  01 04 00    	ld	bc,0x0004
2441  0AB2  C5          	push	bc
2442  0AB3  2A 0E 00    	ld	hl,(_spr_timer + 0x000e)
2443  0AB6  E5          	push	hl
2444  0AB7  CD 00 00    	call	_game_check_time
2445  0ABA  F1          	pop	af
2446  0ABB  F1          	pop	af
2447  0ABC  7D          	ld	a, l
2448  0ABD  B7          	or	a, a
2449  0ABE  C8          	ret	Z
2450  0ABF  2A FF FF    	ld	hl,(_player_hit_col - 1)
2451  0AC2  3A 00 00    	ld	a,(_player_hit_lin)
2452  0AC5  6F          	ld	l,a
2453  0AC6  E5          	push	hl
2454  0AC7  CD 00 00    	call	_spr_calc_index
2455  0ACA  F1          	pop	af
2456  0ACB  22 00 00    	ld	(_index1),hl
2457  0ACE  2E 00       	ld	l,0x00
2458  0AD0  CD 00 00    	call	_spr_brick_anim
2459  0AD3  21 00 00    	ld	hl,_player_hit_lin
2460  0AD6  36 00       	ld	(hl),0x00
2461  0AD8  21 00 00    	ld	hl,_player_hit_col
2462  0ADB  36 00       	ld	(hl),0x00
2463  0ADD  C9          	ret
2464  0ADE              	SECTION code_compiler
2465  0ADE              ;	---------------------------------
2466  0ADE              ; Function player_score_add
2467  0ADE              ; ---------------------------------
2468  0ADE              _player_score_add:
2469  0ADE  ED 4B 00 00 	ld	bc,(_player_score)
2470  0AE2  09          	add	hl,bc
2471  0AE3  22 00 00    	ld	(_player_score),hl
2472  0AE6  21 00 00    	ld	hl,_player_lvl
2473  0AE9  7E          	ld	a, (hl)
2474  0AEA  D6 14       	sub	a,0x14
2475  0AEC  30 3C       	jr	NC,l_player_score_add_00104
2476  0AEE  01 00 00    	ld	bc,_player_lvl_table+0
2477  0AF1  6E          	ld	l,(hl)
2478  0AF2  26 00       	ld	h,0x00
2479  0AF4  29          	add	hl, hl
2480  0AF5  09          	add	hl, bc
2481  0AF6  4E          	ld	c, (hl)
2482  0AF7  23          	inc	hl
2483  0AF8  46          	ld	b, (hl)
2484  0AF9  21 00 00    	ld	hl,_player_score
2485  0AFC  7E          	ld	a, (hl)
2486  0AFD  91          	sub	a, c
2487  0AFE  23          	inc	hl
2488  0AFF  7E          	ld	a, (hl)
2489  0B00  98          	sbc	a, b
2490  0B01  38 27       	jr	C,l_player_score_add_00104
2491  0B03  21 00 00    	ld	hl,_player_lvl
2492  0B06  34          	inc	(hl)
2493  0B07  21 00 00    	ld	hl,___str_0
2494  0B0A  E5          	push	hl
2495  0B0B  21 0C 0C    	ld	hl,0x0c0c
2496  0B0E  E5          	push	hl
2497  0B0F  CD 00 00    	call	_zx_print_str
2498  0B12  AF          	xor	a, a
2499  0B13  F5          	push	af
2500  0B14  33          	inc	sp
2501  0B15  21 19 00    	ld	hl,0x0019
2502  0B18  E5          	push	hl
2503  0B19  21 0C 15    	ld	hl,0x150c
2504  0B1C  E5          	push	hl
2505  0B1D  3E 0C       	ld	a,0x0c
2506  0B1F  F5          	push	af
2507  0B20  33          	inc	sp
2508  0B21  CD 00 00    	call	_game_colour_message
2509  0B24  F1          	pop	af
2510  0B25  F1          	pop	af
2511  0B26  F1          	pop	af
2512  0B27  CD 00 00    	call	_game_update_stats
2513  0B2A              l_player_score_add_00104:
2514  0B2A  3A 00 00    	ld	a,(_game_score_top)
2515  0B2D  21 00 00    	ld	hl,_player_score
2516  0B30  96          	sub	a, (hl)
2517  0B31  3A 01 00    	ld	a,(_game_score_top + 1)
2518  0B34  23          	inc	hl
2519  0B35  9E          	sbc	a, (hl)
2520  0B36  30 06       	jr	NC,l_player_score_add_00106
2521  0B38  2A 00 00    	ld	hl,(_player_score)
2522  0B3B  22 00 00    	ld	(_game_score_top),hl
2523  0B3E              l_player_score_add_00106:
2524  0B3E  CD 00 00    	call	_game_print_score
2525  0B41  C9          	ret
2526  0B42              	SECTION rodata_compiler
2527  0000              ___str_0:
2528  0000  4C 45 56 45 4C 20 55 50 21 
                        	DEFM "LEVEL UP!"
2529  0009  00          	DEFB 0x00
2530  000A              	SECTION code_compiler
2531  0B42              ;	---------------------------------
2532  0B42              ; Function player_check_floor
2533  0B42              ; ---------------------------------
2534  0B42              _player_check_floor:
2535  0B42  CD 00 00    	call	___sdcc_enter_ix
2536  0B45  F5          	push	af
2537  0B46  F5          	push	af
2538  0B47  F5          	push	af
2539  0B48  11 07 00    	ld	de,_col+7
2540  0B4B  1A          	ld	a, (de)
2541  0B4C  47          	ld	b, a
2542  0B4D  3A 07 00    	ld	a,(_lin + 0x0007)
2543  0B50  C6 10       	add	a,0x10
2544  0B52  D5          	push	de
2545  0B53  4F          	ld	c,a
2546  0B54  C5          	push	bc
2547  0B55  CD 00 00    	call	_spr_calc_index
2548  0B58  F1          	pop	af
2549  0B59  D1          	pop	de
2550  0B5A  DD 75 FC    	ld	(ix-4),l
2551  0B5D  DD 74 FD    	ld	(ix-3),h
2552  0B60  01 00 00    	ld	bc,_scr_map+0
2553  0B63  79          	ld	a, c
2554  0B64  DD 86 FC    	add	a,(ix-4)
2555  0B67  DD 77 FE    	ld	(ix-2),a
2556  0B6A  78          	ld	a, b
2557  0B6B  DD 8E FD    	adc	a,(ix-3)
2558  0B6E  DD 6E FE    	ld	l,(ix-2)
2559  0B71  DD 77 FF    	ld	(ix-1),a
2560  0B74  67          	ld	h,a
2561  0B75  7E          	ld	a, (hl)
2562  0B76  DD 77 FB    	ld	(ix-5),a
2563  0B79  DD 6E FC    	ld	l,(ix-4)
2564  0B7C  DD 66 FD    	ld	h,(ix-3)
2565  0B7F  23          	inc	hl
2566  0B80  09          	add	hl,bc
2567  0B81  3A 00 00    	ld	a,(_s_lin0)
2568  0B84  D6 90       	sub	a,0x90
2569  0B86  4D          	ld	c,l
2570  0B87  44          	ld	b,h
2571  0B88  20 26       	jr	NZ,l_player_check_floor_00108
2572  0B8A  3A 00 00    	ld	a,(_map_heigth)
2573  0B8D  C5          	push	bc
2574  0B8E  F5          	push	af
2575  0B8F  33          	inc	sp
2576  0B90  3A 00 00    	ld	a,(_scr_curr)
2577  0B93  F5          	push	af
2578  0B94  33          	inc	sp
2579  0B95  CD 00 00    	call	__divuchar_callee
2580  0B98  C1          	pop	bc
2581  0B99  7D          	ld	a,l
2582  0B9A  3C          	inc	a
2583  0B9B  32 00 00    	ld	(_tmp1),a
2584  0B9E  21 00 00    	ld	hl,_map_heigth
2585  0BA1  96          	sub	a, (hl)
2586  0BA2  30 06       	jr	NC,l_player_check_floor_00102
2587  0BA4  DD 36 FB 00 	ld	(ix-5),0x00
2588  0BA8  18 14       	jr	l_player_check_floor_00109
2589  0BAA              l_player_check_floor_00102:
2590  0BAA  DD 36 FB 48 	ld	(ix-5),0x48
2591  0BAE  18 0E       	jr	l_player_check_floor_00109
2592  0BB0              l_player_check_floor_00108:
2593  0BB0  1A          	ld	a, (de)
2594  0BB1  0F          	rrca
2595  0BB2  38 06       	jr	C,l_player_check_floor_00105
2596  0BB4  DD 36 FA 00 	ld	(ix-6),0x00
2597  0BB8  18 04       	jr	l_player_check_floor_00109
2598  0BBA              l_player_check_floor_00105:
2599  0BBA  0A          	ld	a, (bc)
2600  0BBB  DD 77 FA    	ld	(ix-6),a
2601  0BBE              l_player_check_floor_00109:
2602  0BBE  DD 7E FB    	ld	a,(ix-5)
2603  0BC1  D6 3C       	sub	a,0x3c
2604  0BC3  38 07       	jr	C,l_player_check_floor_00132
2605  0BC5  DD 7E FB    	ld	a,(ix-5)
2606  0BC8  D6 60       	sub	a,0x60
2607  0BCA  38 32       	jr	C,l_player_check_floor_00128
2608  0BCC              l_player_check_floor_00132:
2609  0BCC  DD 7E FA    	ld	a,(ix-6)
2610  0BCF  D6 3C       	sub	a,0x3c
2611  0BD1  38 07       	jr	C,l_player_check_floor_00127
2612  0BD3  DD 7E FA    	ld	a,(ix-6)
2613  0BD6  D6 60       	sub	a,0x60
2614  0BD8  38 24       	jr	C,l_player_check_floor_00128
2615  0BDA              l_player_check_floor_00127:
2616  0BDA  21 07 00    	ld	hl, +(_sprite_speed_alt + 0x0007)
2617  0BDD  36 02       	ld	(hl),0x02
2618  0BDF  21 00 00    	ld	hl,_s_state
2619  0BE2  CB CE       	set	1, (hl)
2620  0BE4  2E 00       	ld	l,0x00
2621  0BE6  CD 87 03    	call	_player_check_stairs
2622  0BE9  3A 00 00    	ld	a,(_player_over_stair)
2623  0BEC  B7          	or	a, a
2624  0BED  C2 98 0C    	jp	NZ, l_player_check_floor_00133
2625  0BF0  3A 00 00    	ld	a,(_s_lin0)
2626  0BF3  D6 90       	sub	a,0x90
2627  0BF5  C2 98 0C    	jp	NZ,l_player_check_floor_00133
2628  0BF8  CD 00 00    	call	_spr_page_down
2629  0BFB  C3 98 0C    	jp	l_player_check_floor_00133
2630  0BFE              l_player_check_floor_00128:
2631  0BFE  C5          	push	bc
2632  0BFF  21 10 00    	ld	hl,0x0010
2633  0C02  E5          	push	hl
2634  0C03  2A 00 00    	ld	hl,(_player_brick_time)
2635  0C06  E5          	push	hl
2636  0C07  CD 00 00    	call	_game_check_time
2637  0C0A  F1          	pop	af
2638  0C0B  F1          	pop	af
2639  0C0C  C1          	pop	bc
2640  0C0D  7D          	ld	a,l
2641  0C0E  B7          	or	a, a
2642  0C0F  CA 98 0C    	jp	Z, l_player_check_floor_00133
2643  0C12  2A 00 00    	ld	hl,(_curr_time)
2644  0C15  22 00 00    	ld	(_player_brick_time),hl
2645  0C18  DD 7E FB    	ld	a,(ix-5)
2646  0C1B  D6 40       	sub	a,0x40
2647  0C1D  20 1A       	jr	NZ,l_player_check_floor_00114
2648  0C1F  C5          	push	bc
2649  0C20  DD 6E FC    	ld	l,(ix-4)
2650  0C23  DD 66 FD    	ld	h,(ix-3)
2651  0C26  E5          	push	hl
2652  0C27  CD 00 00    	call	_game_match_back
2653  0C2A  F1          	pop	af
2654  0C2B  C1          	pop	bc
2655  0C2C  5D          	ld	e,l
2656  0C2D  DD 6E FE    	ld	l,(ix-2)
2657  0C30  DD 66 FF    	ld	h,(ix-1)
2658  0C33  73          	ld	(hl), e
2659  0C34  C5          	push	bc
2660  0C35  CD 9D 0C    	call	_player_gasta_brick
2661  0C38  C1          	pop	bc
2662  0C39              l_player_check_floor_00114:
2663  0C39  DD 7E FB    	ld	a,(ix-5)
2664  0C3C  D6 3F       	sub	a,0x3f
2665  0C3E  20 0D       	jr	NZ,l_player_check_floor_00116
2666  0C40  DD 6E FE    	ld	l,(ix-2)
2667  0C43  DD 66 FF    	ld	h,(ix-1)
2668  0C46  36 40       	ld	(hl),0x40
2669  0C48  C5          	push	bc
2670  0C49  CD 9D 0C    	call	_player_gasta_brick
2671  0C4C  C1          	pop	bc
2672  0C4D              l_player_check_floor_00116:
2673  0C4D  DD 7E FB    	ld	a,(ix-5)
2674  0C50  D6 3E       	sub	a,0x3e
2675  0C52  20 0D       	jr	NZ,l_player_check_floor_00118
2676  0C54  DD 6E FE    	ld	l,(ix-2)
2677  0C57  DD 66 FF    	ld	h,(ix-1)
2678  0C5A  36 3F       	ld	(hl),0x3f
2679  0C5C  C5          	push	bc
2680  0C5D  CD 9D 0C    	call	_player_gasta_brick
2681  0C60  C1          	pop	bc
2682  0C61              l_player_check_floor_00118:
2683  0C61  DD 7E FA    	ld	a,(ix-6)
2684  0C64  D6 40       	sub	a,0x40
2685  0C66  20 14       	jr	NZ,l_player_check_floor_00120
2686  0C68  C5          	push	bc
2687  0C69  DD 6E FC    	ld	l,(ix-4)
2688  0C6C  DD 66 FD    	ld	h,(ix-3)
2689  0C6F  E5          	push	hl
2690  0C70  CD 00 00    	call	_game_match_back
2691  0C73  F1          	pop	af
2692  0C74  C1          	pop	bc
2693  0C75  7D          	ld	a,l
2694  0C76  02          	ld	(bc), a
2695  0C77  C5          	push	bc
2696  0C78  CD 9D 0C    	call	_player_gasta_brick
2697  0C7B  C1          	pop	bc
2698  0C7C              l_player_check_floor_00120:
2699  0C7C  DD 7E FA    	ld	a,(ix-6)
2700  0C7F  D6 3F       	sub	a,0x3f
2701  0C81  20 08       	jr	NZ,l_player_check_floor_00122
2702  0C83  3E 40       	ld	a,0x40
2703  0C85  02          	ld	(bc), a
2704  0C86  C5          	push	bc
2705  0C87  CD 9D 0C    	call	_player_gasta_brick
2706  0C8A  C1          	pop	bc
2707  0C8B              l_player_check_floor_00122:
2708  0C8B  DD 7E FA    	ld	a,(ix-6)
2709  0C8E  D6 3E       	sub	a,0x3e
2710  0C90  20 06       	jr	NZ,l_player_check_floor_00133
2711  0C92  3E 3F       	ld	a,0x3f
2712  0C94  02          	ld	(bc), a
2713  0C95  CD 9D 0C    	call	_player_gasta_brick
2714  0C98              l_player_check_floor_00133:
2715  0C98  DD F9       	ld	sp, ix
2716  0C9A  DD E1       	pop	ix
2717  0C9C  C9          	ret
2718  0C9D              	SECTION code_compiler
2719  0C9D              ;	---------------------------------
2720  0C9D              ; Function player_gasta_brick
2721  0C9D              ; ---------------------------------
2722  0C9D              _player_gasta_brick:
2723  0C9D  3A 00 00    	ld	a,(_s_lin0)
2724  0CA0  32 00 00    	ld	(_s_lin1),a
2725  0CA3  3A 00 00    	ld	a,(_s_col0)
2726  0CA6  32 00 00    	ld	(_s_col1),a
2727  0CA9  3A 07 00    	ld	a,(_lin + 0x0007)
2728  0CAC  C6 10       	add	a,0x10
2729  0CAE  32 00 00    	ld	(_s_lin0),a
2730  0CB1  3A 07 00    	ld	a,(_col + 0x0007)
2731  0CB4  32 00 00    	ld	(_s_col0),a
2732  0CB7  CD 00 00    	call	_spr_back_repaint
2733  0CBA  3A 00 00    	ld	a,(_s_lin1)
2734  0CBD  32 00 00    	ld	(_s_lin0),a
2735  0CC0  3A 00 00    	ld	a,(_s_col1)
2736  0CC3  32 00 00    	ld	(_s_col0),a
2737  0CC6  C9          	ret
2738  0CC7              	SECTION code_compiler
2739  0CC7              ;	---------------------------------
2740  0CC7              ; Function player_move_jump
2741  0CC7              ; ---------------------------------
2742  0CC7              _player_move_jump:
2743  0CC7  CD 00 00    	call	___sdcc_enter_ix
2744  0CCA  F5          	push	af
2745  0CCB  21 00 00    	ld	hl,_game_gravity
2746  0CCE  4E          	ld	c, (hl)
2747  0CCF  21 00 00    	ld	hl,_player_vel_y
2748  0CD2  7E          	ld	a, (hl)
2749  0CD3  81          	add	a, c
2750  0CD4  77          	ld	(hl), a
2751  0CD5  21 00 00    	ld	hl,_sprite_on_air
2752  0CD8  36 01       	ld	(hl),0x01
2753  0CDA  3A 00 00    	ld	a,(_player_vel_inc)
2754  0CDD  B7          	or	a, a
2755  0CDE  28 2B       	jr	Z,l_player_move_jump_00107
2756  0CE0  21 00 00    	ld	hl,_dirs
2757  0CE3  CB 7E       	bit	7, (hl)
2758  0CE5  28 07       	jr	Z,l_player_move_jump_00104
2759  0CE7  21 00 00    	ld	hl,_dirs
2760  0CEA  CB 46       	bit	0, (hl)
2761  0CEC  20 1D       	jr	NZ,l_player_move_jump_00107
2762  0CEE              l_player_move_jump_00104:
2763  0CEE  3A 00 00    	ld	a,(_player_vel_y1)
2764  0CF1  21 00 00    	ld	hl,_player_vel_y
2765  0CF4  96          	sub	a, (hl)
2766  0CF5  E2 FA 0C    	jp	PO, l_player_move_jump_00263
2767  0CF8  EE 80       	xor	a,0x80
2768  0CFA              l_player_move_jump_00263:
2769  0CFA  F2 0B 0D    	jp	P, l_player_move_jump_00107
2770  0CFD  21 00 00    	ld	hl,_player_vel_y
2771  0D00  CB 7E       	bit	7,(hl)
2772  0D02  28 07       	jr	Z,l_player_move_jump_00107
2773  0D04  36 00       	ld	(hl),0x00
2774  0D06  21 00 00    	ld	hl,_player_vel_inc
2775  0D09  36 00       	ld	(hl),0x00
2776  0D0B              l_player_move_jump_00107:
2777  0D0B  3E 78       	ld	a,0x78
2778  0D0D  21 00 00    	ld	hl,_player_vel_y
2779  0D10  96          	sub	a, (hl)
2780  0D11  E2 16 0D    	jp	PO, l_player_move_jump_00264
2781  0D14  EE 80       	xor	a,0x80
2782  0D16              l_player_move_jump_00264:
2783  0D16  F2 1E 0D    	jp	P, l_player_move_jump_00109
2784  0D19  21 00 00    	ld	hl,_player_vel_y
2785  0D1C  36 78       	ld	(hl),0x78
2786  0D1E              l_player_move_jump_00109:
2787  0D1E  21 00 00    	ld	hl,_player_vel_y
2788  0D21  7E          	ld	a, (hl)
2789  0D22  EE 80       	xor	a,0x80
2790  0D24  D6 08       	sub	a,0x08
2791  0D26  30 02       	jr	NC,l_player_move_jump_00111
2792  0D28  36 88       	ld	(hl),0x88
2793  0D2A              l_player_move_jump_00111:
2794  0D2A  21 00 00    	ld	hl,_player_vel_y
2795  0D2D  7E          	ld	a, (hl)
2796  0D2E  DD 77 FE    	ld	(ix-2),a
2797  0D31  7E          	ld	a, (hl)
2798  0D32  17          	rla
2799  0D33  9F          	sbc	a, a
2800  0D34  DD 77 FF    	ld	(ix-1),a
2801  0D37  DD 7E FE    	ld	a,(ix-2)
2802  0D3A  CB 47       	bit	0,a
2803  0D3C  32 00 00    	ld	(_s_lin1),a
2804  0D3F  28 04       	jr	Z,l_player_move_jump_00113
2805  0D41  21 00 00    	ld	hl,_s_lin1
2806  0D44  35          	dec	(hl)
2807  0D45              l_player_move_jump_00113:
2808  0D45  3A 07 00    	ld	a,(_lin + 0x0007)
2809  0D48  21 00 00    	ld	hl,_s_lin1
2810  0D4B  86          	add	a, (hl)
2811  0D4C  77          	ld	(hl), a
2812  0D4D  3E 90       	ld	a,0x90
2813  0D4F  96          	sub	a, (hl)
2814  0D50  30 2B       	jr	NC,l_player_move_jump_00124
2815  0D52  3E C8       	ld	a,0xc8
2816  0D54  96          	sub	a, (hl)
2817  0D55  30 13       	jr	NC,l_player_move_jump_00121
2818  0D57  CD 00 00    	call	_spr_page_up
2819  0D5A  7D          	ld	a, l
2820  0D5B  B7          	or	a, a
2821  0D5C  28 05       	jr	Z,l_player_move_jump_00115
2822  0D5E  2E 00       	ld	l,0x00
2823  0D60  C3 DB 0E    	jp	l_player_move_jump_00158
2824  0D63              l_player_move_jump_00115:
2825  0D63  21 00 00    	ld	hl,_s_lin1
2826  0D66  36 00       	ld	(hl),0x00
2827  0D68  18 13       	jr	l_player_move_jump_00124
2828  0D6A              l_player_move_jump_00121:
2829  0D6A  CD 00 00    	call	_spr_page_down
2830  0D6D  7D          	ld	a, l
2831  0D6E  B7          	or	a, a
2832  0D6F  28 07       	jr	Z,l_player_move_jump_00118
2833  0D71  21 00 00    	ld	hl,_s_lin1
2834  0D74  36 10       	ld	(hl),0x10
2835  0D76  18 05       	jr	l_player_move_jump_00124
2836  0D78              l_player_move_jump_00118:
2837  0D78  21 00 00    	ld	hl,_s_lin1
2838  0D7B  36 90       	ld	(hl),0x90
2839  0D7D              l_player_move_jump_00124:
2840  0D7D  3A 00 00    	ld	a,(_s_lin0)
2841  0D80  07          	rlca
2842  0D81  07          	rlca
2843  0D82  07          	rlca
2844  0D83  07          	rlca
2845  0D84  E6 0F       	and	a,0x0f
2846  0D86  4F          	ld	c, a
2847  0D87  DD CB FF 7E 	bit	7,(ix-1)
2848  0D8B  28 62       	jr	Z,l_player_move_jump_00147
2849  0D8D  21 00 00    	ld	hl,_s_state
2850  0D90  7E          	ld	a,(hl)
2851  0D91  F6 01       	or	a,0x01
2852  0D93  E6 FD       	and	a,0xfd
2853  0D95  77          	ld	(hl),a
2854  0D96  21 00 00    	ld	hl,_s_lin1
2855  0D99  46          	ld	b, (hl)
2856  0D9A  79          	ld	a, c
2857  0D9B  90          	sub	a, b
2858  0D9C  20 04       	jr	NZ,l_player_move_jump_00266
2859  0D9E  3E 01       	ld	a,0x01
2860  0DA0  18 01       	jr	l_player_move_jump_00267
2861  0DA2              l_player_move_jump_00266:
2862  0DA2  AF          	xor	a,a
2863  0DA3              l_player_move_jump_00267:
2864  0DA3  EE 01       	xor	a,0x01
2865  0DA5  4F          	ld	c,a
2866  0DA6  B7          	or	a, a
2867  0DA7  28 3D       	jr	Z,l_player_move_jump_00131
2868  0DA9  21 07 00    	ld	hl,+(_col + 0x0007)
2869  0DAC  46          	ld	b, (hl)
2870  0DAD  C5          	push	bc
2871  0DAE  33          	inc	sp
2872  0DAF  3A 00 00    	ld	a,(_s_lin1)
2873  0DB2  F5          	push	af
2874  0DB3  33          	inc	sp
2875  0DB4  CD 00 00    	call	_game_check_map
2876  0DB7  F1          	pop	af
2877  0DB8  7C          	ld	a,h
2878  0DB9  B5          	or	a,l
2879  0DBA  28 21       	jr	Z,l_player_move_jump_00128
2880  0DBC  CD 12 08    	call	_player_hit_platform
2881  0DBF  7D          	ld	a, l
2882  0DC0  B7          	or	a, a
2883  0DC1  28 12       	jr	Z,l_player_move_jump_00126
2884  0DC3  3A 07 00    	ld	a,(_lin + 0x0007)
2885  0DC6  07          	rlca
2886  0DC7  07          	rlca
2887  0DC8  07          	rlca
2888  0DC9  07          	rlca
2889  0DCA  E6 0F       	and	a,0x0f
2890  0DCC  07          	rlca
2891  0DCD  07          	rlca
2892  0DCE  07          	rlca
2893  0DCF  07          	rlca
2894  0DD0  E6 F0       	and	a,0xf0
2895  0DD2  32 07 00    	ld	((_lin + 0x0007)),a
2896  0DD5              l_player_move_jump_00126:
2897  0DD5  21 00 00    	ld	hl,_player_vel_y
2898  0DD8  36 00       	ld	(hl),0x00
2899  0DDA  C3 9D 0E    	jp	l_player_move_jump_00148
2900  0DDD              l_player_move_jump_00128:
2901  0DDD  3A 00 00    	ld	a,(_s_lin1)
2902  0DE0  32 07 00    	ld	((_lin + 0x0007)),a
2903  0DE3  C3 9D 0E    	jp	l_player_move_jump_00148
2904  0DE6              l_player_move_jump_00131:
2905  0DE6  3A 00 00    	ld	a,(_s_lin1)
2906  0DE9  32 07 00    	ld	((_lin + 0x0007)),a
2907  0DEC  C3 9D 0E    	jp	l_player_move_jump_00148
2908  0DEF              l_player_move_jump_00147:
2909  0DEF  21 00 00    	ld	hl,_s_state
2910  0DF2  7E          	ld	a,(hl)
2911  0DF3  F6 02       	or	a,0x02
2912  0DF5  E6 FE       	and	a,0xfe
2913  0DF7  77          	ld	(hl),a
2914  0DF8  21 00 00    	ld	hl,_s_lin1
2915  0DFB  7E          	ld	a, (hl)
2916  0DFC  C6 10       	add	a,0x10
2917  0DFE  77          	ld	(hl),a
2918  0DFF  47          	ld	b,a
2919  0E00  79          	ld	a, c
2920  0E01  90          	sub	a, b
2921  0E02  20 04       	jr	NZ,l_player_move_jump_00268
2922  0E04  3E 01       	ld	a,0x01
2923  0E06  18 01       	jr	l_player_move_jump_00269
2924  0E08              l_player_move_jump_00268:
2925  0E08  AF          	xor	a,a
2926  0E09              l_player_move_jump_00269:
2927  0E09  EE 01       	xor	a,0x01
2928  0E0B  4F          	ld	c,a
2929  0E0C  B7          	or	a, a
2930  0E0D  CA 90 0E    	jp	Z, l_player_move_jump_00144
2931  0E10  21 07 00    	ld	hl,+(_col + 0x0007)
2932  0E13  46          	ld	b, (hl)
2933  0E14  C5          	push	bc
2934  0E15  33          	inc	sp
2935  0E16  3A 00 00    	ld	a,(_s_lin1)
2936  0E19  F5          	push	af
2937  0E1A  33          	inc	sp
2938  0E1B  CD 00 00    	call	_game_check_map
2939  0E1E  F1          	pop	af
2940  0E1F  45          	ld	b, l
2941  0E20  5C          	ld	e, h
2942  0E21  21 00 00    	ld	hl,_s_lin1
2943  0E24  7E          	ld	a, (hl)
2944  0E25  C6 F0       	add	a,0xf0
2945  0E27  4F          	ld	c, a
2946  0E28  7B          	ld	a, e
2947  0E29  B0          	or	a,b
2948  0E2A  28 58       	jr	Z,l_player_move_jump_00141
2949  0E2C  71          	ld	(hl), c
2950  0E2D  2E 00       	ld	l,0x00
2951  0E2F  CD 87 03    	call	_player_check_stairs
2952  0E32  3A 00 00    	ld	a,(_player_over_stair)
2953  0E35  B7          	or	a, a
2954  0E36  20 05       	jr	NZ,l_player_move_jump_00134
2955  0E38  2E 01       	ld	l,0x01
2956  0E3A  CD 87 03    	call	_player_check_stairs
2957  0E3D              l_player_move_jump_00134:
2958  0E3D  3A 00 00    	ld	a,(_player_over_stair)
2959  0E40  B7          	or	a, a
2960  0E41  20 2C       	jr	NZ,l_player_move_jump_00139
2961  0E43  21 00 00    	ld	hl,_s_lin1
2962  0E46  7E          	ld	a, (hl)
2963  0E47  07          	rlca
2964  0E48  07          	rlca
2965  0E49  07          	rlca
2966  0E4A  07          	rlca
2967  0E4B  E6 0F       	and	a,0x0f
2968  0E4D  07          	rlca
2969  0E4E  07          	rlca
2970  0E4F  07          	rlca
2971  0E50  07          	rlca
2972  0E51  E6 F0       	and	a,0xf0
2973  0E53  77          	ld	(hl), a
2974  0E54  21 07 00    	ld	hl,+(_lin + 0x0007)
2975  0E57  4E          	ld	c, (hl)
2976  0E58  21 00 00    	ld	hl,_s_lin1
2977  0E5B  7E          	ld	a, (hl)
2978  0E5C  91          	sub	a, c
2979  0E5D  30 0A       	jr	NC,l_player_move_jump_00136
2980  0E5F  7E          	ld	a, (hl)
2981  0E60  C6 10       	add	a,0x10
2982  0E62  32 07 00    	ld	((_lin + 0x0007)),a
2983  0E65  2E 00       	ld	l,0x00
2984  0E67  18 72       	jr	l_player_move_jump_00158
2985  0E69              l_player_move_jump_00136:
2986  0E69  3A 00 00    	ld	a,(_s_lin1)
2987  0E6C  32 07 00    	ld	((_lin + 0x0007)),a
2988  0E6F              l_player_move_jump_00139:
2989  0E6F  21 00 00    	ld	hl,_player_vel_y
2990  0E72  36 00       	ld	(hl),0x00
2991  0E74  21 00 00    	ld	hl,_s_state
2992  0E77  7E          	ld	a,(hl)
2993  0E78  E6 FC       	and	a,+(0xfd&0xfe)
2994  0E7A  77          	ld	(hl),a
2995  0E7B  21 07 00    	ld	hl, +(_colint + 0x0007)
2996  0E7E  36 00       	ld	(hl),0x00
2997  0E80  2E 01       	ld	l,0x01
2998  0E82  18 57       	jr	l_player_move_jump_00158
2999  0E84              l_player_move_jump_00141:
3000  0E84  21 00 00    	ld	hl,_s_lin1
3001  0E87  71          	ld	(hl), c
3002  0E88  3A 00 00    	ld	a,(_s_lin1)
3003  0E8B  32 07 00    	ld	((_lin + 0x0007)),a
3004  0E8E  18 0D       	jr	l_player_move_jump_00148
3005  0E90              l_player_move_jump_00144:
3006  0E90  21 00 00    	ld	hl,_s_lin1
3007  0E93  7E          	ld	a, (hl)
3008  0E94  C6 F0       	add	a,0xf0
3009  0E96  77          	ld	(hl), a
3010  0E97  3A 00 00    	ld	a,(_s_lin1)
3011  0E9A  32 07 00    	ld	((_lin + 0x0007)),a
3012  0E9D              l_player_move_jump_00148:
3013  0E9D  21 00 00    	ld	hl,_s_state
3014  0EA0  CB 5E       	bit	3, (hl)
3015  0EA2  20 27       	jr	NZ,l_player_move_jump_00154
3016  0EA4  21 00 00    	ld	hl,_s_state
3017  0EA7  CB 56       	bit	2, (hl)
3018  0EA9  20 20       	jr	NZ,l_player_move_jump_00154
3019  0EAB  21 00 00    	ld	hl,_dirs
3020  0EAE  CB 56       	bit	2, (hl)
3021  0EB0  28 09       	jr	Z,l_player_move_jump_00150
3022  0EB2  21 00 00    	ld	hl,_s_state
3023  0EB5  7E          	ld	a,(hl)
3024  0EB6  F6 08       	or	a,0x08
3025  0EB8  E6 FB       	and	a,0xfb
3026  0EBA  77          	ld	(hl),a
3027  0EBB              l_player_move_jump_00150:
3028  0EBB  21 00 00    	ld	hl,_dirs
3029  0EBE  CB 5E       	bit	3, (hl)
3030  0EC0  28 09       	jr	Z,l_player_move_jump_00154
3031  0EC2  21 00 00    	ld	hl,_s_state
3032  0EC5  7E          	ld	a,(hl)
3033  0EC6  F6 04       	or	a,0x04
3034  0EC8  E6 F7       	and	a,0xf7
3035  0ECA  77          	ld	(hl),a
3036  0ECB              l_player_move_jump_00154:
3037  0ECB  CD 00 00    	call	_spr_move_horizontal
3038  0ECE  7D          	ld	a, l
3039  0ECF  B7          	or	a, a
3040  0ED0  28 07       	jr	Z,l_player_move_jump_00157
3041  0ED2  21 00 00    	ld	hl,_s_state
3042  0ED5  7E          	ld	a,(hl)
3043  0ED6  E6 F3       	and	a,+(0xf7&0xfb)
3044  0ED8  77          	ld	(hl),a
3045  0ED9              l_player_move_jump_00157:
3046  0ED9  2E 00       	ld	l,0x00
3047  0EDB              l_player_move_jump_00158:
3048  0EDB  F1          	pop	af
3049  0EDC  DD E1       	pop	ix
3050  0EDE  C9          	ret
3051  0EDF              	SECTION code_compiler
3052  0EDF              ;	---------------------------------
3053  0EDF              ; Function player_open_door
3054  0EDF              ; ---------------------------------
3055  0EDF              _player_open_door:
3056  0EDF  CD 00 00    	call	___sdcc_enter_ix
3057  0EE2  0E 00       	ld	c,0x00
3058  0EE4  DD 7E 06    	ld	a,(ix+6)
3059  0EE7  D6 48       	sub	a,0x48
3060  0EE9  28 17       	jr	Z,l_player_open_door_00101
3061  0EEB  DD 7E 06    	ld	a,(ix+6)
3062  0EEE  D6 49       	sub	a,0x49
3063  0EF0  28 1F       	jr	Z,l_player_open_door_00104
3064  0EF2  DD 7E 06    	ld	a,(ix+6)
3065  0EF5  D6 4A       	sub	a,0x4a
3066  0EF7  28 27       	jr	Z,l_player_open_door_00107
3067  0EF9  DD 7E 06    	ld	a,(ix+6)
3068  0EFC  D6 4B       	sub	a,0x4b
3069  0EFE  28 2F       	jr	Z,l_player_open_door_00110
3070  0F00  18 3A       	jr	l_player_open_door_00113
3071  0F02              l_player_open_door_00101:
3072  0F02  3A 00 00    	ld	a,(_player_keys)
3073  0F05  B7          	or	a, a
3074  0F06  28 34       	jr	Z,l_player_open_door_00113
3075  0F08  2E 07       	ld	l,0x07
3076  0F0A  CD 00 00    	call	_zx_border_fastcall
3077  0F0D  0E 01       	ld	c,0x01
3078  0F0F  18 2B       	jr	l_player_open_door_00113
3079  0F11              l_player_open_door_00104:
3080  0F11  3A 01 00    	ld	a,(_player_keys + 0x0001)
3081  0F14  B7          	or	a, a
3082  0F15  28 25       	jr	Z,l_player_open_door_00113
3083  0F17  2E 02       	ld	l,0x02
3084  0F19  CD 00 00    	call	_zx_border_fastcall
3085  0F1C  0E 01       	ld	c,0x01
3086  0F1E  18 1C       	jr	l_player_open_door_00113
3087  0F20              l_player_open_door_00107:
3088  0F20  3A 02 00    	ld	a,(_player_keys + 0x0002)
3089  0F23  B7          	or	a, a
3090  0F24  28 16       	jr	Z,l_player_open_door_00113
3091  0F26  2E 04       	ld	l,0x04
3092  0F28  CD 00 00    	call	_zx_border_fastcall
3093  0F2B  0E 01       	ld	c,0x01
3094  0F2D  18 0D       	jr	l_player_open_door_00113
3095  0F2F              l_player_open_door_00110:
3096  0F2F  3A 03 00    	ld	a,(_player_keys + 0x0003)
3097  0F32  B7          	or	a, a
3098  0F33  28 07       	jr	Z,l_player_open_door_00113
3099  0F35  2E 05       	ld	l,0x05
3100  0F37  CD 00 00    	call	_zx_border_fastcall
3101  0F3A  0E 01       	ld	c,0x01
3102  0F3C              l_player_open_door_00113:
3103  0F3C  79          	ld	a, c
3104  0F3D  B7          	or	a, a
3105  0F3E  20 06       	jr	NZ,l_player_open_door_00114
3106  0F40  3A 00 00    	ld	a,(_game_inmune)
3107  0F43  B7          	or	a, a
3108  0F44  28 31       	jr	Z,l_player_open_door_00117
3109  0F46              l_player_open_door_00114:
3110  0F46  3E 00       	ld	a, +((_scr_map) & 0xFF)
3111  0F48  DD 86 04    	add	a,(ix+4)
3112  0F4B  4F          	ld	c, a
3113  0F4C  3E 00       	ld	a, +((_scr_map) / 256)
3114  0F4E  DD 8E 05    	adc	a,(ix+5)
3115  0F51  47          	ld	b, a
3116  0F52  C5          	push	bc
3117  0F53  DD 6E 04    	ld	l,(ix+4)
3118  0F56  DD 66 05    	ld	h,(ix+5)
3119  0F59  E5          	push	hl
3120  0F5A  CD 00 00    	call	_game_match_back
3121  0F5D  F1          	pop	af
3122  0F5E  C1          	pop	bc
3123  0F5F  7D          	ld	a,l
3124  0F60  02          	ld	(bc), a
3125  0F61  DD 6E 04    	ld	l,(ix+4)
3126  0F64  DD 66 05    	ld	h,(ix+5)
3127  0F67  E5          	push	hl
3128  0F68  CD 00 00    	call	_game_obj_set
3129  0F6B  F1          	pop	af
3130  0F6C  DD 6E 04    	ld	l,(ix+4)
3131  0F6F  DD 66 05    	ld	h,(ix+5)
3132  0F72  E5          	push	hl
3133  0F73  CD 00 00    	call	_spr_draw_index
3134  0F76  F1          	pop	af
3135  0F77              l_player_open_door_00117:
3136  0F77  DD E1       	pop	ix
3137  0F79  C9          	ret
3138  0F7A              	SECTION code_compiler
3139  0F7A              ;	---------------------------------
3140  0F7A              ; Function player_lost_life
3141  0F7A              ; ---------------------------------
3142  0F7A              _player_lost_life:
3143  0F7A  CD 00 00    	call	___sdcc_enter_ix
3144  0F7D  3B          	dec	sp
3145  0F7E  3A 07 00    	ld	a,(_lin + 0x0007)
3146  0F81  32 00 00    	ld	(_s_lin0),a
3147  0F84  3A 07 00    	ld	a,(_col + 0x0007)
3148  0F87  32 00 00    	ld	(_s_col0),a
3149  0F8A  CD 00 00    	call	_spr_init_anim_bullets
3150  0F8D  01 00 00    	ld	bc,_anim_lin+0
3151  0F90  16 00       	ld	d,0x00
3152  0F92              l_player_lost_life_00115:
3153  0F92  C5          	push	bc
3154  0F93  D5          	push	de
3155  0F94  21 00 00    	ld	hl,0x0000
3156  0F97  E5          	push	hl
3157  0F98  AF          	xor	a, a
3158  0F99  5A          	ld	e,d
3159  0F9A  57          	ld	d,a
3160  0F9B  D5          	push	de
3161  0F9C  CD 00 00    	call	_NIRVANAP_spriteT_callee
3162  0F9F  D1          	pop	de
3163  0FA0  C1          	pop	bc
3164  0FA1  6A          	ld	l,d
3165  0FA2  26 00       	ld	h,0x00
3166  0FA4  09          	add	hl, bc
3167  0FA5  36 FF       	ld	(hl),0xff
3168  0FA7  14          	inc	d
3169  0FA8  7A          	ld	a, d
3170  0FA9  D6 08       	sub	a,0x08
3171  0FAB  38 E5       	jr	C,l_player_lost_life_00115
3172  0FAD  21 00 00    	ld	hl,_anim_count
3173  0FB0  36 00       	ld	(hl),0x00
3174  0FB2  76          	halt
3175  0FB3  3A 00 00    	ld	a,(_s_lin0)
3176  0FB6  C6 F0       	add	a,0xf0
3177  0FB8  47          	ld	b, a
3178  0FB9  3A 00 00    	ld	a,(_s_col0)
3179  0FBC  21 00 00    	ld	hl,0x0000
3180  0FBF  E5          	push	hl
3181  0FC0  21 87 03    	ld	hl,0x0387
3182  0FC3  E5          	push	hl
3183  0FC4  48          	ld	c,b
3184  0FC5  47          	ld	b,a
3185  0FC6  C5          	push	bc
3186  0FC7  CD 00 00    	call	_spr_add_anim
3187  0FCA  F1          	pop	af
3188  0FCB  F1          	pop	af
3189  0FCC  F1          	pop	af
3190  0FCD  21 00 00    	ld	hl,_s_col0
3191  0FD0  46          	ld	b, (hl)
3192  0FD1  05          	dec	b
3193  0FD2  05          	dec	b
3194  0FD3  21 00 00    	ld	hl,0x0000
3195  0FD6  E5          	push	hl
3196  0FD7  21 87 03    	ld	hl,0x0387
3197  0FDA  E5          	push	hl
3198  0FDB  C5          	push	bc
3199  0FDC  33          	inc	sp
3200  0FDD  3A 00 00    	ld	a,(_s_lin0)
3201  0FE0  F5          	push	af
3202  0FE1  33          	inc	sp
3203  0FE2  CD 00 00    	call	_spr_add_anim
3204  0FE5  F1          	pop	af
3205  0FE6  F1          	pop	af
3206  0FE7  21 00 00    	ld	hl,0x0000
3207  0FEA  E3          	ex	(sp),hl
3208  0FEB  3A 00 00    	ld	a,(_s_col0)
3209  0FEE  21 87 03    	ld	hl,0x0387
3210  0FF1  E5          	push	hl
3211  0FF2  F5          	push	af
3212  0FF3  33          	inc	sp
3213  0FF4  3A 00 00    	ld	a,(_s_lin0)
3214  0FF7  F5          	push	af
3215  0FF8  33          	inc	sp
3216  0FF9  CD 00 00    	call	_spr_add_anim
3217  0FFC  F1          	pop	af
3218  0FFD  F1          	pop	af
3219  0FFE  F1          	pop	af
3220  0FFF  21 00 00    	ld	hl,_s_col0
3221  1002  46          	ld	b, (hl)
3222  1003  04          	inc	b
3223  1004  04          	inc	b
3224  1005  21 00 00    	ld	hl,0x0000
3225  1008  E5          	push	hl
3226  1009  21 87 03    	ld	hl,0x0387
3227  100C  E5          	push	hl
3228  100D  C5          	push	bc
3229  100E  33          	inc	sp
3230  100F  3A 00 00    	ld	a,(_s_lin0)
3231  1012  F5          	push	af
3232  1013  33          	inc	sp
3233  1014  CD 00 00    	call	_spr_add_anim
3234  1017  F1          	pop	af
3235  1018  F1          	pop	af
3236  1019  F1          	pop	af
3237  101A  3A 00 00    	ld	a,(_s_lin0)
3238  101D  C6 10       	add	a,0x10
3239  101F  47          	ld	b, a
3240  1020  3A 00 00    	ld	a,(_s_col0)
3241  1023  21 00 00    	ld	hl,0x0000
3242  1026  E5          	push	hl
3243  1027  21 87 03    	ld	hl,0x0387
3244  102A  E5          	push	hl
3245  102B  48          	ld	c,b
3246  102C  47          	ld	b,a
3247  102D  C5          	push	bc
3248  102E  CD 00 00    	call	_spr_add_anim
3249  1031  F1          	pop	af
3250  1032  F1          	pop	af
3251  1033  F1          	pop	af
3252  1034  2E 00       	ld	l,0x00
3253  1036  CD 00 00    	call	_zx_border_fastcall
3254  1039  DD 36 FF 01 	ld	(ix-1),0x01
3255  103D  2A 00 00    	ld	hl,(_curr_time)
3256  1040  22 00 00    	ld	(_anim_time),hl
3257  1043              l_player_lost_life_00107:
3258  1043  DD 7E FF    	ld	a,(ix-1)
3259  1046  B7          	or	a, a
3260  1047  28 28       	jr	Z,l_player_lost_life_00109
3261  1049  21 0C 00    	ld	hl,0x000c
3262  104C  E5          	push	hl
3263  104D  2A 00 00    	ld	hl,(_anim_time)
3264  1050  E5          	push	hl
3265  1051  CD 00 00    	call	_game_check_time
3266  1054  F1          	pop	af
3267  1055  F1          	pop	af
3268  1056  7D          	ld	a, l
3269  1057  B7          	or	a, a
3270  1058  28 E9       	jr	Z,l_player_lost_life_00107
3271  105A  2A 00 00    	ld	hl,(_curr_time)
3272  105D  22 00 00    	ld	(_anim_time),hl
3273  1060  3A 00 00    	ld	a,(_anim_count)
3274  1063  B7          	or	a,a
3275  1064  28 05       	jr	Z,l_player_lost_life_00103
3276  1066  CD 00 00    	call	_spr_play_anim
3277  1069  18 D8       	jr	l_player_lost_life_00107
3278  106B              l_player_lost_life_00103:
3279  106B  DD 36 FF 00 	ld	(ix-1),0x00
3280  106F  18 D2       	jr	l_player_lost_life_00107
3281  1071              l_player_lost_life_00109:
3282  1071  21 00 00    	ld	hl,_sprite
3283  1074  36 00       	ld	(hl),0x00
3284  1076              l_player_lost_life_00117:
3285  1076  3A 07 00    	ld	a,(_class + 0x0007)
3286  1079  B7          	or	a, a
3287  107A  28 1F       	jr	Z,l_player_lost_life_00111
3288  107C  21 07 00    	ld	hl,+(_col + 0x0007)
3289  107F  4E          	ld	c, (hl)
3290  1080  21 07 00    	ld	hl,+(_lin + 0x0007)
3291  1083  56          	ld	d, (hl)
3292  1084  21 07 00    	ld	hl,+(_tile + 0x0007)
3293  1087  5E          	ld	e, (hl)
3294  1088  21 07 00    	ld	hl,+(_colint + 0x0007)
3295  108B  46          	ld	b, (hl)
3296  108C  7B          	ld	a, e
3297  108D  80          	add	a, b
3298  108E  5F          	ld	e, a
3299  108F  79          	ld	a, c
3300  1090  F5          	push	af
3301  1091  33          	inc	sp
3302  1092  3A 00 00    	ld	a,(_sprite)
3303  1095  D5          	push	de
3304  1096  F5          	push	af
3305  1097  33          	inc	sp
3306  1098  CD 00 00    	call	_NIRVANAP_spriteT_callee
3307  109B              l_player_lost_life_00111:
3308  109B  21 07 00    	ld	hl, +(_class + 0x0007)
3309  109E  36 00       	ld	(hl),0x00
3310  10A0  21 07 00    	ld	hl, +(_bullet_col + 0x0007)
3311  10A3  36 FF       	ld	(hl),0xff
3312  10A5  21 00 00    	ld	hl,_sprite
3313  10A8  7E          	ld	a,(hl)
3314  10A9  3C          	inc	a
3315  10AA  77          	ld	(hl),a
3316  10AB  D6 07       	sub	a,0x07
3317  10AD  38 C7       	jr	C,l_player_lost_life_00117
3318  10AF  3A 00 00    	ld	a,(_player_lives)
3319  10B2  B7          	or	a, a
3320  10B3  28 09       	jr	Z,l_player_lost_life_00119
3321  10B5  21 F4 01    	ld	hl,0x01f4
3322  10B8  CD 00 00    	call	_z80_delay_ms_fastcall
3323  10BB  CD 00 00    	call	_game_round_init
3324  10BE              l_player_lost_life_00119:
3325  10BE  33          	inc	sp
3326  10BF  DD E1       	pop	ix
3327  10C1  C9          	ret
3328  10C2              	SECTION code_compiler
3329  10C2              ;	---------------------------------
3330  10C2              ; Function player_hit
3331  10C2              ; ---------------------------------
3332  10C2              _player_hit:
3333  10C2  7D          	ld	a,l
3334  10C3  4D          	ld	c,l
3335  10C4  21 00 00    	ld	hl,_player_vita
3336  10C7  96          	sub	a, (hl)
3337  10C8  30 17       	jr	NC,l_player_hit_00107
3338  10CA  3A 00 00    	ld	a,(_game_inmune)
3339  10CD  B7          	or	a, a
3340  10CE  20 06       	jr	NZ,l_player_hit_00102
3341  10D0  21 00 00    	ld	hl,_player_vita
3342  10D3  7E          	ld	a, (hl)
3343  10D4  91          	sub	a, c
3344  10D5  77          	ld	(hl), a
3345  10D6              l_player_hit_00102:
3346  10D6  2A 00 00    	ld	hl,(_curr_time)
3347  10D9  22 00 00    	ld	(_player_hit_time),hl
3348  10DC  CD 00 00    	call	_game_update_stats
3349  10DF  18 2C       	jr	l_player_hit_00109
3350  10E1              l_player_hit_00107:
3351  10E1  21 00 00    	ld	hl,_player_vita
3352  10E4  36 00       	ld	(hl),0x00
3353  10E6  CD 00 00    	call	_game_update_stats
3354  10E9  CD 7A 0F    	call	_player_lost_life
3355  10EC  21 00 00    	ld	hl,_player_lives
3356  10EF  7E          	ld	a, (hl)
3357  10F0  B7          	or	a, a
3358  10F1  28 10       	jr	Z,l_player_hit_00104
3359  10F3  35          	dec	(hl)
3360  10F4  21 00 00    	ld	hl,_player_mana
3361  10F7  36 64       	ld	(hl),0x64
3362  10F9  21 00 00    	ld	hl,_player_vita
3363  10FC  36 64       	ld	(hl),0x64
3364  10FE  CD 00 00    	call	_game_update_stats
3365  1101  18 0A       	jr	l_player_hit_00109
3366  1103              l_player_hit_00104:
3367  1103  21 00 00    	ld	hl,_player_lives
3368  1106  36 00       	ld	(hl),0x00
3369  1108  21 00 00    	ld	hl,_game_over
3370  110B  36 01       	ld	(hl),0x01
3371  110D              l_player_hit_00109:
3372  110D  C9          	ret
3373  110E              	SECTION IGNORE
3374  0000              
