1     0000              MODULE game_engine_c
2     0000              
3     0000              ;--------------------------------------------------------
4     0000              ; File Created by SDCC : free open source ANSI-C Compiler
5     0000              ; Version 3.6.5 #9958 (Mac OS X i386)
6     0000              ;--------------------------------------------------------
7     0000              ; Processed by Z88DK
8     0000              ;--------------------------------------------------------
9     0000              
10    0000              	EXTERN __divschar
11    0000              	EXTERN __divschar_callee
12    0000              	EXTERN __divsint
13    0000              	EXTERN __divsint_callee
14    0000              	EXTERN __divslong
15    0000              	EXTERN __divslong_callee
16    0000              	EXTERN __divslonglong
17    0000              	EXTERN __divslonglong_callee
18    0000              	EXTERN __divsuchar
19    0000              	EXTERN __divsuchar_callee
20    0000              	EXTERN __divuchar
21    0000              	EXTERN __divuchar_callee
22    0000              	EXTERN __divuint
23    0000              	EXTERN __divuint_callee
24    0000              	EXTERN __divulong
25    0000              	EXTERN __divulong_callee
26    0000              	EXTERN __divulonglong
27    0000              	EXTERN __divulonglong_callee
28    0000              	EXTERN __divuschar
29    0000              	EXTERN __divuschar_callee
30    0000              	EXTERN __modschar
31    0000              	EXTERN __modschar_callee
32    0000              	EXTERN __modsint
33    0000              	EXTERN __modsint_callee
34    0000              	EXTERN __modslong
35    0000              	EXTERN __modslong_callee
36    0000              	EXTERN __modslonglong
37    0000              	EXTERN __modslonglong_callee
38    0000              	EXTERN __modsuchar
39    0000              	EXTERN __modsuchar_callee
40    0000              	EXTERN __moduchar
41    0000              	EXTERN __moduchar_callee
42    0000              	EXTERN __moduint
43    0000              	EXTERN __moduint_callee
44    0000              	EXTERN __modulong
45    0000              	EXTERN __modulong_callee
46    0000              	EXTERN __modulonglong
47    0000              	EXTERN __modulonglong_callee
48    0000              	EXTERN __moduschar
49    0000              	EXTERN __moduschar_callee
50    0000              	EXTERN __mulint
51    0000              	EXTERN __mulint_callee
52    0000              	EXTERN __mullong
53    0000              	EXTERN __mullong_callee
54    0000              	EXTERN __mullonglong
55    0000              	EXTERN __mullonglong_callee
56    0000              	EXTERN __mulschar
57    0000              	EXTERN __mulschar_callee
58    0000              	EXTERN __mulsuchar
59    0000              	EXTERN __mulsuchar_callee
60    0000              	EXTERN __muluschar
61    0000              	EXTERN __muluschar_callee
62    0000              	EXTERN __rlslonglong
63    0000              	EXTERN __rlslonglong_callee
64    0000              	EXTERN __rlulonglong
65    0000              	EXTERN __rlulonglong_callee
66    0000              	EXTERN __rrslonglong
67    0000              	EXTERN __rrslonglong_callee
68    0000              	EXTERN __rrulonglong
69    0000              	EXTERN __rrulonglong_callee
70    0000              	EXTERN ___sdcc_call_hl
71    0000              	EXTERN ___sdcc_call_iy
72    0000              	EXTERN ___sdcc_enter_ix
73    0000              	EXTERN _banked_call
74    0000              	EXTERN _banked_ret
75    0000              	EXTERN ___fs2schar
76    0000              	EXTERN ___fs2schar_callee
77    0000              	EXTERN ___fs2sint
78    0000              	EXTERN ___fs2sint_callee
79    0000              	EXTERN ___fs2slong
80    0000              	EXTERN ___fs2slong_callee
81    0000              	EXTERN ___fs2slonglong
82    0000              	EXTERN ___fs2slonglong_callee
83    0000              	EXTERN ___fs2uchar
84    0000              	EXTERN ___fs2uchar_callee
85    0000              	EXTERN ___fs2uint
86    0000              	EXTERN ___fs2uint_callee
87    0000              	EXTERN ___fs2ulong
88    0000              	EXTERN ___fs2ulong_callee
89    0000              	EXTERN ___fs2ulonglong
90    0000              	EXTERN ___fs2ulonglong_callee
91    0000              	EXTERN ___fsadd
92    0000              	EXTERN ___fsadd_callee
93    0000              	EXTERN ___fsdiv
94    0000              	EXTERN ___fsdiv_callee
95    0000              	EXTERN ___fseq
96    0000              	EXTERN ___fseq_callee
97    0000              	EXTERN ___fsgt
98    0000              	EXTERN ___fsgt_callee
99    0000              	EXTERN ___fslt
100   0000              	EXTERN ___fslt_callee
101   0000              	EXTERN ___fsmul
102   0000              	EXTERN ___fsmul_callee
103   0000              	EXTERN ___fsneq
104   0000              	EXTERN ___fsneq_callee
105   0000              	EXTERN ___fssub
106   0000              	EXTERN ___fssub_callee
107   0000              	EXTERN ___schar2fs
108   0000              	EXTERN ___schar2fs_callee
109   0000              	EXTERN ___sint2fs
110   0000              	EXTERN ___sint2fs_callee
111   0000              	EXTERN ___slong2fs
112   0000              	EXTERN ___slong2fs_callee
113   0000              	EXTERN ___slonglong2fs
114   0000              	EXTERN ___slonglong2fs_callee
115   0000              	EXTERN ___uchar2fs
116   0000              	EXTERN ___uchar2fs_callee
117   0000              	EXTERN ___uint2fs
118   0000              	EXTERN ___uint2fs_callee
119   0000              	EXTERN ___ulong2fs
120   0000              	EXTERN ___ulong2fs_callee
121   0000              	EXTERN ___ulonglong2fs
122   0000              	EXTERN ___ulonglong2fs_callee
123   0000              	EXTERN ____sdcc_2_copy_src_mhl_dst_deix
124   0000              	EXTERN ____sdcc_2_copy_src_mhl_dst_bcix
125   0000              	EXTERN ____sdcc_4_copy_src_mhl_dst_deix
126   0000              	EXTERN ____sdcc_4_copy_src_mhl_dst_bcix
127   0000              	EXTERN ____sdcc_4_copy_src_mhl_dst_mbc
128   0000              	EXTERN ____sdcc_4_ldi_nosave_bc
129   0000              	EXTERN ____sdcc_4_ldi_save_bc
130   0000              	EXTERN ____sdcc_4_push_hlix
131   0000              	EXTERN ____sdcc_4_push_mhl
132   0000              	EXTERN ____sdcc_lib_setmem_hl
133   0000              	EXTERN ____sdcc_ll_add_de_bc_hl
134   0000              	EXTERN ____sdcc_ll_add_de_bc_hlix
135   0000              	EXTERN ____sdcc_ll_add_de_hlix_bc
136   0000              	EXTERN ____sdcc_ll_add_de_hlix_bcix
137   0000              	EXTERN ____sdcc_ll_add_deix_bc_hl
138   0000              	EXTERN ____sdcc_ll_add_deix_hlix
139   0000              	EXTERN ____sdcc_ll_add_hlix_bc_deix
140   0000              	EXTERN ____sdcc_ll_add_hlix_deix_bc
141   0000              	EXTERN ____sdcc_ll_add_hlix_deix_bcix
142   0000              	EXTERN ____sdcc_ll_asr_hlix_a
143   0000              	EXTERN ____sdcc_ll_asr_mbc_a
144   0000              	EXTERN ____sdcc_ll_copy_src_de_dst_hlix
145   0000              	EXTERN ____sdcc_ll_copy_src_de_dst_hlsp
146   0000              	EXTERN ____sdcc_ll_copy_src_deix_dst_hl
147   0000              	EXTERN ____sdcc_ll_copy_src_deix_dst_hlix
148   0000              	EXTERN ____sdcc_ll_copy_src_deixm_dst_hlsp
149   0000              	EXTERN ____sdcc_ll_copy_src_desp_dst_hlsp
150   0000              	EXTERN ____sdcc_ll_copy_src_hl_dst_de
151   0000              	EXTERN ____sdcc_ll_copy_src_hlsp_dst_de
152   0000              	EXTERN ____sdcc_ll_copy_src_hlsp_dst_deixm
153   0000              	EXTERN ____sdcc_ll_lsl_hlix_a
154   0000              	EXTERN ____sdcc_ll_lsl_mbc_a
155   0000              	EXTERN ____sdcc_ll_lsr_hlix_a
156   0000              	EXTERN ____sdcc_ll_lsr_mbc_a
157   0000              	EXTERN ____sdcc_ll_push_hlix
158   0000              	EXTERN ____sdcc_ll_push_mhl
159   0000              	EXTERN ____sdcc_ll_sub_de_bc_hl
160   0000              	EXTERN ____sdcc_ll_sub_de_bc_hlix
161   0000              	EXTERN ____sdcc_ll_sub_de_hlix_bc
162   0000              	EXTERN ____sdcc_ll_sub_de_hlix_bcix
163   0000              	EXTERN ____sdcc_ll_sub_deix_bc_hl
164   0000              	EXTERN ____sdcc_ll_sub_deix_hlix
165   0000              	EXTERN ____sdcc_ll_sub_hlix_bc_deix
166   0000              	EXTERN ____sdcc_ll_sub_hlix_deix_bc
167   0000              	EXTERN ____sdcc_ll_sub_hlix_deix_bcix
168   0000              	EXTERN ____sdcc_load_debc_deix
169   0000              	EXTERN ____sdcc_load_dehl_deix
170   0000              	EXTERN ____sdcc_load_debc_mhl
171   0000              	EXTERN ____sdcc_load_hlde_mhl
172   0000              	EXTERN ____sdcc_store_dehl_bcix
173   0000              	EXTERN ____sdcc_store_debc_hlix
174   0000              	EXTERN ____sdcc_store_debc_mhl
175   0000              	EXTERN ____sdcc_cpu_pop_ei
176   0000              	EXTERN ____sdcc_cpu_pop_ei_jp
177   0000              	EXTERN ____sdcc_cpu_push_di
178   0000              	EXTERN ____sdcc_outi
179   0000              	EXTERN ____sdcc_outi_128
180   0000              	EXTERN ____sdcc_outi_256
181   0000              	EXTERN ____sdcc_ldi
182   0000              	EXTERN ____sdcc_ldi_128
183   0000              	EXTERN ____sdcc_ldi_256
184   0000              
185   0000              ;--------------------------------------------------------
186   0000              ; Public variables in this module
187   0000              ;--------------------------------------------------------
188   0000              	GLOBAL _game_print_phase
189   0000              	GLOBAL _game_print_footer
190   0000              	GLOBAL _game_phase_print_score_back
191   0000              	GLOBAL _game_print_lives
192   0000              	GLOBAL _game_tick
193   0000              	GLOBAL _game_start_timer
194   0000              	GLOBAL _game_phase_init
195   0000              	GLOBAL _game_print_header
196   0000              	GLOBAL _game_loop
197   0000              	GLOBAL _game_score_osd
198   0000              	GLOBAL _game_check_maze
199   0000              	GLOBAL _game_check_maze_floor
200   0000              	GLOBAL _game_enemy_add_get_index
201   0000              	GLOBAL _game_print_score
202   0000              	GLOBAL _game_paint_attrib
203   0000              	GLOBAL _game_paint_attrib_lin
204   0000              	GLOBAL _game_paint_attrib_lin_h
205   0000              	GLOBAL _game_joystick_change
206   0000              	GLOBAL _game_joystick_set_menu
207   0000              	GLOBAL _game_joystick_set
208   0000              	GLOBAL _game_end
209   0000              	GLOBAL _game_rotate_attrib
210   0000              	GLOBAL _game_colour_message
211   0000              	GLOBAL _game_check_time
212   0000              ;--------------------------------------------------------
213   0000              ; Externals used
214   0000              ;--------------------------------------------------------
215   0000              	GLOBAL _debug3
216   0000              	GLOBAL _debug2
217   0000              	GLOBAL _debug
218   0000              	GLOBAL _zx_print_str
219   0000              	GLOBAL _zx_print_int
220   0000              	GLOBAL _zx_print_chr
221   0000              	GLOBAL _zx_print_bonus_time
222   0000              	GLOBAL _zx_isr
223   0000              	GLOBAL _spr_page_map
224   0000              	GLOBAL _spr_page_right
225   0000              	GLOBAL _spr_page_left
226   0000              	GLOBAL _spr_tile_paint
227   0000              	GLOBAL _spr_kill_all
228   0000              	GLOBAL _spr_collision_check
229   0000              	GLOBAL _spr_calc_hor
230   0000              	GLOBAL _spr_draw_row
231   0000              	GLOBAL _spr_draw_index
232   0000              	GLOBAL _spr_draw_clear
233   0000              	GLOBAL _spr_draw_background
234   0000              	GLOBAL _spr_brick_anim
235   0000              	GLOBAL _spr_back_paint
236   0000              	GLOBAL _spr_back_clr
237   0000              	GLOBAL _spr_tile
238   0000              	GLOBAL _spr_set_fall
239   0000              	GLOBAL _spr_destroy
240   0000              	GLOBAL _spr_tile_dir
241   0000              	GLOBAL _spr_anim_kill
242   0000              	GLOBAL _spr_killed
243   0000              	GLOBAL _spr_redraw
244   0000              	GLOBAL _spr_move_left
245   0000              	GLOBAL _spr_move_right
246   0000              	GLOBAL _spr_move_horizontal
247   0000              	GLOBAL _spr_move_down
248   0000              	GLOBAL _spr_move_up
249   0000              	GLOBAL _spr_check_map
250   0000              	GLOBAL _spr_calc_index
251   0000              	GLOBAL _spr_chktime
252   0000              	GLOBAL _sound_hit_brick
253   0000              	GLOBAL _sound_hit_enemy
254   0000              	GLOBAL _sound_kill
255   0000              	GLOBAL _sound_enter_enemy
256   0000              	GLOBAL _sound_coin
257   0000              	GLOBAL _sound_jump
258   0000              	GLOBAL _sound_slide
259   0000              	GLOBAL _player_pick_item
260   0000              	GLOBAL _player_check_floor
261   0000              	GLOBAL _player_player_hit_brick_clear
262   0000              	GLOBAL _player_lost_life
263   0000              	GLOBAL _player_score_add
264   0000              	GLOBAL _player_player_hit_pow
265   0000              	GLOBAL _player_player_hit_brick
266   0000              	GLOBAL _player_move_input
267   0000              	GLOBAL _player_turn
268   0000              	GLOBAL _player_move
269   0000              	GLOBAL _player_restart
270   0000              	GLOBAL _player_kill
271   0000              	GLOBAL _player_check_input
272   0000              	GLOBAL _player_collision
273   0000              	GLOBAL _player_calc_slide
274   0000              	GLOBAL _player_init
275   0000              	GLOBAL _game_unfreeze_all
276   0000              	GLOBAL _game_freeze_all
277   0000              	GLOBAL _game_freeze
278   0000              	GLOBAL _game_fill_row
279   0000              	GLOBAL _enemy_ugly_fix
280   0000              	GLOBAL _enemy_kill
281   0000              	GLOBAL _enemy_init
282   0000              	GLOBAL _enemy_walk
283   0000              	GLOBAL _enemy_upgrade
284   0000              	GLOBAL _enemy_evolve
285   0000              	GLOBAL _enemy_standard_hit
286   0000              	GLOBAL _enemy_fighterfly
287   0000              	GLOBAL _enemy_fireball_green
288   0000              	GLOBAL _enemy_fireball_red
289   0000              	GLOBAL _enemy_slipice
290   0000              	GLOBAL _enemy_standard
291   0000              	GLOBAL _enemy_turn
292   0000              	GLOBAL _enemy_flip_sidestepper
293   0000              	GLOBAL _enemy_flip
294   0000              	GLOBAL _enemy_flip_change_dir
295   0000              	GLOBAL _enemy_hit
296   0000              	GLOBAL _enemy_collision_turn_dir
297   0000              	GLOBAL _enemy_collision
298   0000              	GLOBAL _enemy_coin1
299   0000              	GLOBAL _ay_fx_play
300   0000              	GLOBAL _ay_midi_play
301   0000              	GLOBAL _ay_is_playing
302   0000              	GLOBAL _ay_reset
303   0000              	GLOBAL _test_func
304   0000              	GLOBAL _in_mouse_kempston_wheel_delta
305   0000              	GLOBAL _in_mouse_kempston_wheel
306   0000              	GLOBAL _in_mouse_kempston_callee
307   0000              	GLOBAL _in_mouse_kempston
308   0000              	GLOBAL _in_mouse_kempston_setpos_callee
309   0000              	GLOBAL _in_mouse_kempston_setpos
310   0000              	GLOBAL _in_mouse_kempston_reset
311   0000              	GLOBAL _in_mouse_kempston_init
312   0000              	GLOBAL _in_mouse_amx_wheel_delta
313   0000              	GLOBAL _in_mouse_amx_wheel
314   0000              	GLOBAL _in_mouse_amx_callee
315   0000              	GLOBAL _in_mouse_amx
316   0000              	GLOBAL _in_mouse_amx_setpos_callee
317   0000              	GLOBAL _in_mouse_amx_setpos
318   0000              	GLOBAL _in_mouse_amx_reset
319   0000              	GLOBAL _in_mouse_amx_init_callee
320   0000              	GLOBAL _in_mouse_amx_init
321   0000              	GLOBAL _in_stick_sinclair2
322   0000              	GLOBAL _in_stick_sinclair1
323   0000              	GLOBAL _in_stick_kempston
324   0000              	GLOBAL _in_stick_fuller
325   0000              	GLOBAL _in_stick_cursor
326   0000              	GLOBAL _in_stick_keyboard_fastcall
327   0000              	GLOBAL _in_stick_keyboard
328   0000              	GLOBAL _in_wait_nokey
329   0000              	GLOBAL _in_wait_key
330   0000              	GLOBAL _in_test_key
331   0000              	GLOBAL _in_pause_fastcall
332   0000              	GLOBAL _in_pause
333   0000              	GLOBAL _in_key_scancode_fastcall
334   0000              	GLOBAL _in_key_scancode
335   0000              	GLOBAL _in_key_pressed_fastcall
336   0000              	GLOBAL _in_key_pressed
337   0000              	GLOBAL _in_inkey
338   0000              	GLOBAL _NIRVANAP_drawTW_raw_callee
339   0000              	GLOBAL _NIRVANAP_drawTW_raw
340   0000              	GLOBAL _NIRVANAP_drawTW_callee
341   0000              	GLOBAL _NIRVANAP_drawTW
342   0000              	GLOBAL _NIRVANAP_drawW_raw_callee
343   0000              	GLOBAL _NIRVANAP_drawW_raw
344   0000              	GLOBAL _NIRVANAP_drawW_callee
345   0000              	GLOBAL _NIRVANAP_drawW
346   0000              	GLOBAL _NIRVANAP_spriteT_callee
347   0000              	GLOBAL _NIRVANAP_spriteT
348   0000              	GLOBAL _NIRVANAP_fillC_callee
349   0000              	GLOBAL _NIRVANAP_fillC
350   0000              	GLOBAL _NIRVANAP_readC_callee
351   0000              	GLOBAL _NIRVANAP_readC
352   0000              	GLOBAL _NIRVANAP_paintC_callee
353   0000              	GLOBAL _NIRVANAP_paintC
354   0000              	GLOBAL _NIRVANAP_printC_callee
355   0000              	GLOBAL _NIRVANAP_printC
356   0000              	GLOBAL _NIRVANAP_fillT_raw_callee
357   0000              	GLOBAL _NIRVANAP_fillT_raw
358   0000              	GLOBAL _NIRVANAP_fillT_callee
359   0000              	GLOBAL _NIRVANAP_fillT
360   0000              	GLOBAL _NIRVANAP_drawT_raw_callee
361   0000              	GLOBAL _NIRVANAP_drawT_raw
362   0000              	GLOBAL _NIRVANAP_drawT_callee
363   0000              	GLOBAL _NIRVANAP_drawT
364   0000              	GLOBAL _NIRVANAP_stop
365   0000              	GLOBAL _NIRVANAP_start
366   0000              	GLOBAL _z80_otdr_callee
367   0000              	GLOBAL _z80_otdr
368   0000              	GLOBAL _z80_otir_callee
369   0000              	GLOBAL _z80_otir
370   0000              	GLOBAL _z80_outp_callee
371   0000              	GLOBAL _z80_outp
372   0000              	GLOBAL _z80_indr_callee
373   0000              	GLOBAL _z80_indr
374   0000              	GLOBAL _z80_inir_callee
375   0000              	GLOBAL _z80_inir
376   0000              	GLOBAL _z80_inp_fastcall
377   0000              	GLOBAL _z80_inp
378   0000              	GLOBAL _z80_set_int_state_fastcall
379   0000              	GLOBAL _z80_set_int_state
380   0000              	GLOBAL _z80_get_int_state
381   0000              	GLOBAL _z80_delay_tstate_fastcall
382   0000              	GLOBAL _z80_delay_tstate
383   0000              	GLOBAL _z80_delay_ms_fastcall
384   0000              	GLOBAL _z80_delay_ms
385   0000              	GLOBAL _im2_remove_generic_callback_callee
386   0000              	GLOBAL _im2_remove_generic_callback
387   0000              	GLOBAL _im2_prepend_generic_callback_callee
388   0000              	GLOBAL _im2_prepend_generic_callback
389   0000              	GLOBAL _im2_append_generic_callback_callee
390   0000              	GLOBAL _im2_append_generic_callback
391   0000              	GLOBAL _im2_create_generic_isr_8080_callee
392   0000              	GLOBAL _im2_create_generic_isr_8080
393   0000              	GLOBAL _im2_create_generic_isr_callee
394   0000              	GLOBAL _im2_create_generic_isr
395   0000              	GLOBAL _im2_install_isr_callee
396   0000              	GLOBAL _im2_install_isr
397   0000              	GLOBAL _im2_init_fastcall
398   0000              	GLOBAL _im2_init
399   0000              	GLOBAL _ffsll_callee
400   0000              	GLOBAL _ffsll
401   0000              	GLOBAL _strxfrm_callee
402   0000              	GLOBAL _strxfrm
403   0000              	GLOBAL _strupr_fastcall
404   0000              	GLOBAL _strupr
405   0000              	GLOBAL _strtok_r_callee
406   0000              	GLOBAL _strtok_r
407   0000              	GLOBAL _strtok_callee
408   0000              	GLOBAL _strtok
409   0000              	GLOBAL _strstrip_fastcall
410   0000              	GLOBAL _strstrip
411   0000              	GLOBAL _strstr_callee
412   0000              	GLOBAL _strstr
413   0000              	GLOBAL _strspn_callee
414   0000              	GLOBAL _strspn
415   0000              	GLOBAL _strsep_callee
416   0000              	GLOBAL _strsep
417   0000              	GLOBAL _strrstrip_fastcall
418   0000              	GLOBAL _strrstrip
419   0000              	GLOBAL _strrspn_callee
420   0000              	GLOBAL _strrspn
421   0000              	GLOBAL _strrev_fastcall
422   0000              	GLOBAL _strrev
423   0000              	GLOBAL _strrcspn_callee
424   0000              	GLOBAL _strrcspn
425   0000              	GLOBAL _strrchr_callee
426   0000              	GLOBAL _strrchr
427   0000              	GLOBAL _strpbrk_callee
428   0000              	GLOBAL _strpbrk
429   0000              	GLOBAL _strnlen_callee
430   0000              	GLOBAL _strnlen
431   0000              	GLOBAL _strnicmp_callee
432   0000              	GLOBAL _strnicmp
433   0000              	GLOBAL _strndup_callee
434   0000              	GLOBAL _strndup
435   0000              	GLOBAL _strncpy_callee
436   0000              	GLOBAL _strncpy
437   0000              	GLOBAL _strncmp_callee
438   0000              	GLOBAL _strncmp
439   0000              	GLOBAL _strnchr_callee
440   0000              	GLOBAL _strnchr
441   0000              	GLOBAL _strncat_callee
442   0000              	GLOBAL _strncat
443   0000              	GLOBAL _strncasecmp_callee
444   0000              	GLOBAL _strncasecmp
445   0000              	GLOBAL _strlwr_fastcall
446   0000              	GLOBAL _strlwr
447   0000              	GLOBAL _strlen_fastcall
448   0000              	GLOBAL _strlen
449   0000              	GLOBAL _strlcpy_callee
450   0000              	GLOBAL _strlcpy
451   0000              	GLOBAL _strlcat_callee
452   0000              	GLOBAL _strlcat
453   0000              	GLOBAL _stricmp_callee
454   0000              	GLOBAL _stricmp
455   0000              	GLOBAL _strerror_fastcall
456   0000              	GLOBAL _strerror
457   0000              	GLOBAL _strdup_fastcall
458   0000              	GLOBAL _strdup
459   0000              	GLOBAL _strcspn_callee
460   0000              	GLOBAL _strcspn
461   0000              	GLOBAL _strcpy_callee
462   0000              	GLOBAL _strcpy
463   0000              	GLOBAL _strcoll_callee
464   0000              	GLOBAL _strcoll
465   0000              	GLOBAL _strcmp_callee
466   0000              	GLOBAL _strcmp
467   0000              	GLOBAL _strchrnul_callee
468   0000              	GLOBAL _strchrnul
469   0000              	GLOBAL _strchr_callee
470   0000              	GLOBAL _strchr
471   0000              	GLOBAL _strcat_callee
472   0000              	GLOBAL _strcat
473   0000              	GLOBAL _strcasecmp_callee
474   0000              	GLOBAL _strcasecmp
475   0000              	GLOBAL _stpncpy_callee
476   0000              	GLOBAL _stpncpy
477   0000              	GLOBAL _stpcpy_callee
478   0000              	GLOBAL _stpcpy
479   0000              	GLOBAL _memswap_callee
480   0000              	GLOBAL _memswap
481   0000              	GLOBAL _memset_callee
482   0000              	GLOBAL _memset
483   0000              	GLOBAL _memrchr_callee
484   0000              	GLOBAL _memrchr
485   0000              	GLOBAL _memmove_callee
486   0000              	GLOBAL _memmove
487   0000              	GLOBAL _memmem_callee
488   0000              	GLOBAL _memmem
489   0000              	GLOBAL _memcpy_callee
490   0000              	GLOBAL _memcpy
491   0000              	GLOBAL _memcmp_callee
492   0000              	GLOBAL _memcmp
493   0000              	GLOBAL _memchr_callee
494   0000              	GLOBAL _memchr
495   0000              	GLOBAL _memccpy_callee
496   0000              	GLOBAL _memccpy
497   0000              	GLOBAL _ffsl_fastcall
498   0000              	GLOBAL _ffsl
499   0000              	GLOBAL _ffs_fastcall
500   0000              	GLOBAL _ffs
501   0000              	GLOBAL __strrstrip__fastcall
502   0000              	GLOBAL __strrstrip_
503   0000              	GLOBAL __memupr__callee
504   0000              	GLOBAL __memupr_
505   0000              	GLOBAL __memstrcpy__callee
506   0000              	GLOBAL __memstrcpy_
507   0000              	GLOBAL __memlwr__callee
508   0000              	GLOBAL __memlwr_
509   0000              	GLOBAL _rawmemchr_callee
510   0000              	GLOBAL _rawmemchr
511   0000              	GLOBAL _strnset_callee
512   0000              	GLOBAL _strnset
513   0000              	GLOBAL _strset_callee
514   0000              	GLOBAL _strset
515   0000              	GLOBAL _rindex_callee
516   0000              	GLOBAL _rindex
517   0000              	GLOBAL _index_callee
518   0000              	GLOBAL _index
519   0000              	GLOBAL _bzero_callee
520   0000              	GLOBAL _bzero
521   0000              	GLOBAL _bcopy_callee
522   0000              	GLOBAL _bcopy
523   0000              	GLOBAL _bcmp_callee
524   0000              	GLOBAL _bcmp
525   0000              	GLOBAL _ulltoa_callee
526   0000              	GLOBAL _ulltoa
527   0000              	GLOBAL _strtoull_callee
528   0000              	GLOBAL _strtoull
529   0000              	GLOBAL _strtoll_callee
530   0000              	GLOBAL _strtoll
531   0000              	GLOBAL _lltoa_callee
532   0000              	GLOBAL _lltoa
533   0000              	GLOBAL _llabs_callee
534   0000              	GLOBAL _llabs
535   0000              	GLOBAL __lldivu__callee
536   0000              	GLOBAL __lldivu_
537   0000              	GLOBAL __lldiv__callee
538   0000              	GLOBAL __lldiv_
539   0000              	GLOBAL _atoll_callee
540   0000              	GLOBAL _atoll
541   0000              	GLOBAL _realloc_unlocked_callee
542   0000              	GLOBAL _realloc_unlocked
543   0000              	GLOBAL _malloc_unlocked_fastcall
544   0000              	GLOBAL _malloc_unlocked
545   0000              	GLOBAL _free_unlocked_fastcall
546   0000              	GLOBAL _free_unlocked
547   0000              	GLOBAL _calloc_unlocked_callee
548   0000              	GLOBAL _calloc_unlocked
549   0000              	GLOBAL _aligned_alloc_unlocked_callee
550   0000              	GLOBAL _aligned_alloc_unlocked
551   0000              	GLOBAL _realloc_callee
552   0000              	GLOBAL _realloc
553   0000              	GLOBAL _malloc_fastcall
554   0000              	GLOBAL _malloc
555   0000              	GLOBAL _free_fastcall
556   0000              	GLOBAL _free
557   0000              	GLOBAL _calloc_callee
558   0000              	GLOBAL _calloc
559   0000              	GLOBAL _aligned_alloc_callee
560   0000              	GLOBAL _aligned_alloc
561   0000              	GLOBAL _utoa_callee
562   0000              	GLOBAL _utoa
563   0000              	GLOBAL _ultoa_callee
564   0000              	GLOBAL _ultoa
565   0000              	GLOBAL _system_fastcall
566   0000              	GLOBAL _system
567   0000              	GLOBAL _strtoul_callee
568   0000              	GLOBAL _strtoul
569   0000              	GLOBAL _strtol_callee
570   0000              	GLOBAL _strtol
571   0000              	GLOBAL _strtof_callee
572   0000              	GLOBAL _strtof
573   0000              	GLOBAL _strtod_callee
574   0000              	GLOBAL _strtod
575   0000              	GLOBAL _srand_fastcall
576   0000              	GLOBAL _srand
577   0000              	GLOBAL _rand
578   0000              	GLOBAL _quick_exit_fastcall
579   0000              	GLOBAL _quick_exit
580   0000              	GLOBAL _qsort_callee
581   0000              	GLOBAL _qsort
582   0000              	GLOBAL _ltoa_callee
583   0000              	GLOBAL _ltoa
584   0000              	GLOBAL _labs_fastcall
585   0000              	GLOBAL _labs
586   0000              	GLOBAL _itoa_callee
587   0000              	GLOBAL _itoa
588   0000              	GLOBAL _ftoh_callee
589   0000              	GLOBAL _ftoh
590   0000              	GLOBAL _ftog_callee
591   0000              	GLOBAL _ftog
592   0000              	GLOBAL _ftoe_callee
593   0000              	GLOBAL _ftoe
594   0000              	GLOBAL _ftoa_callee
595   0000              	GLOBAL _ftoa
596   0000              	GLOBAL _exit_fastcall
597   0000              	GLOBAL _exit
598   0000              	GLOBAL _dtoh_callee
599   0000              	GLOBAL _dtoh
600   0000              	GLOBAL _dtog_callee
601   0000              	GLOBAL _dtog
602   0000              	GLOBAL _dtoe_callee
603   0000              	GLOBAL _dtoe
604   0000              	GLOBAL _dtoa_callee
605   0000              	GLOBAL _dtoa
606   0000              	GLOBAL _bsearch_callee
607   0000              	GLOBAL _bsearch
608   0000              	GLOBAL _atol_fastcall
609   0000              	GLOBAL _atol
610   0000              	GLOBAL _atoi_fastcall
611   0000              	GLOBAL _atoi
612   0000              	GLOBAL _atof_fastcall
613   0000              	GLOBAL _atof
614   0000              	GLOBAL _atexit_fastcall
615   0000              	GLOBAL _atexit
616   0000              	GLOBAL _at_quick_exit_fastcall
617   0000              	GLOBAL _at_quick_exit
618   0000              	GLOBAL _abs_fastcall
619   0000              	GLOBAL _abs
620   0000              	GLOBAL _abort
621   0000              	GLOBAL __strtou__callee
622   0000              	GLOBAL __strtou_
623   0000              	GLOBAL __strtoi__callee
624   0000              	GLOBAL __strtoi_
625   0000              	GLOBAL __random_uniform_xor_8__fastcall
626   0000              	GLOBAL __random_uniform_xor_8_
627   0000              	GLOBAL __random_uniform_xor_32__fastcall
628   0000              	GLOBAL __random_uniform_xor_32_
629   0000              	GLOBAL __random_uniform_cmwc_8__fastcall
630   0000              	GLOBAL __random_uniform_cmwc_8_
631   0000              	GLOBAL __shellsort__callee
632   0000              	GLOBAL __shellsort_
633   0000              	GLOBAL __quicksort__callee
634   0000              	GLOBAL __quicksort_
635   0000              	GLOBAL __insertion_sort__callee
636   0000              	GLOBAL __insertion_sort_
637   0000              	GLOBAL __ldivu__callee
638   0000              	GLOBAL __ldivu_
639   0000              	GLOBAL __ldiv__callee
640   0000              	GLOBAL __ldiv_
641   0000              	GLOBAL __divu__callee
642   0000              	GLOBAL __divu_
643   0000              	GLOBAL __div__callee
644   0000              	GLOBAL __div_
645   0000              	GLOBAL _intrinsic_swap_word_32_fastcall
646   0000              	GLOBAL _intrinsic_swap_word_32
647   0000              	GLOBAL _intrinsic_swap_endian_32_fastcall
648   0000              	GLOBAL _intrinsic_swap_endian_32
649   0000              	GLOBAL _intrinsic_swap_endian_16_fastcall
650   0000              	GLOBAL _intrinsic_swap_endian_16
651   0000              	GLOBAL _intrinsic_return_de
652   0000              	GLOBAL _intrinsic_return_bc
653   0000              	GLOBAL _intrinsic_exx
654   0000              	GLOBAL _intrinsic_ex_de_hl
655   0000              	GLOBAL _intrinsic_nop
656   0000              	GLOBAL _intrinsic_im_2
657   0000              	GLOBAL _intrinsic_im_1
658   0000              	GLOBAL _intrinsic_im_0
659   0000              	GLOBAL _intrinsic_retn
660   0000              	GLOBAL _intrinsic_reti
661   0000              	GLOBAL _intrinsic_halt
662   0000              	GLOBAL _intrinsic_ei
663   0000              	GLOBAL _intrinsic_di
664   0000              	GLOBAL _intrinsic_stub
665   0000              	GLOBAL _intrinsic_outi
666   0000              	GLOBAL _intrinsic_ldi
667   0000              	GLOBAL _zx_pattern_fill_callee
668   0000              	GLOBAL _zx_pattern_fill
669   0000              	GLOBAL _zx_saddrpup_fastcall
670   0000              	GLOBAL _zx_saddrpup
671   0000              	GLOBAL _zx_saddrpright_callee
672   0000              	GLOBAL _zx_saddrpright
673   0000              	GLOBAL _zx_saddrpleft_callee
674   0000              	GLOBAL _zx_saddrpleft
675   0000              	GLOBAL _zx_saddrpdown_fastcall
676   0000              	GLOBAL _zx_saddrpdown
677   0000              	GLOBAL _zx_saddrcup_fastcall
678   0000              	GLOBAL _zx_saddrcup
679   0000              	GLOBAL _zx_saddrcright_fastcall
680   0000              	GLOBAL _zx_saddrcright
681   0000              	GLOBAL _zx_saddrcleft_fastcall
682   0000              	GLOBAL _zx_saddrcleft
683   0000              	GLOBAL _zx_saddrcdown_fastcall
684   0000              	GLOBAL _zx_saddrcdown
685   0000              	GLOBAL _zx_saddr2py_fastcall
686   0000              	GLOBAL _zx_saddr2py
687   0000              	GLOBAL _zx_saddr2px_fastcall
688   0000              	GLOBAL _zx_saddr2px
689   0000              	GLOBAL _zx_saddr2cy_fastcall
690   0000              	GLOBAL _zx_saddr2cy
691   0000              	GLOBAL _zx_saddr2cx_fastcall
692   0000              	GLOBAL _zx_saddr2cx
693   0000              	GLOBAL _zx_saddr2aaddr_fastcall
694   0000              	GLOBAL _zx_saddr2aaddr
695   0000              	GLOBAL _zx_py2saddr_fastcall
696   0000              	GLOBAL _zx_py2saddr
697   0000              	GLOBAL _zx_py2aaddr_fastcall
698   0000              	GLOBAL _zx_py2aaddr
699   0000              	GLOBAL _zx_pxy2saddr_callee
700   0000              	GLOBAL _zx_pxy2saddr
701   0000              	GLOBAL _zx_pxy2aaddr_callee
702   0000              	GLOBAL _zx_pxy2aaddr
703   0000              	GLOBAL _zx_px2bitmask_fastcall
704   0000              	GLOBAL _zx_px2bitmask
705   0000              	GLOBAL _zx_cy2saddr_fastcall
706   0000              	GLOBAL _zx_cy2saddr
707   0000              	GLOBAL _zx_cy2aaddr_fastcall
708   0000              	GLOBAL _zx_cy2aaddr
709   0000              	GLOBAL _zx_cxy2saddr_callee
710   0000              	GLOBAL _zx_cxy2saddr
711   0000              	GLOBAL _zx_cxy2aaddr_callee
712   0000              	GLOBAL _zx_cxy2aaddr
713   0000              	GLOBAL _zx_bitmask2px_fastcall
714   0000              	GLOBAL _zx_bitmask2px
715   0000              	GLOBAL _zx_aaddrcup_fastcall
716   0000              	GLOBAL _zx_aaddrcup
717   0000              	GLOBAL _zx_aaddrcright_fastcall
718   0000              	GLOBAL _zx_aaddrcright
719   0000              	GLOBAL _zx_aaddrcleft_fastcall
720   0000              	GLOBAL _zx_aaddrcleft
721   0000              	GLOBAL _zx_aaddrcdown_fastcall
722   0000              	GLOBAL _zx_aaddrcdown
723   0000              	GLOBAL _zx_aaddr2saddr_fastcall
724   0000              	GLOBAL _zx_aaddr2saddr
725   0000              	GLOBAL _zx_aaddr2py_fastcall
726   0000              	GLOBAL _zx_aaddr2py
727   0000              	GLOBAL _zx_aaddr2px_fastcall
728   0000              	GLOBAL _zx_aaddr2px
729   0000              	GLOBAL _zx_aaddr2cy_fastcall
730   0000              	GLOBAL _zx_aaddr2cy
731   0000              	GLOBAL _zx_aaddr2cx_fastcall
732   0000              	GLOBAL _zx_aaddr2cx
733   0000              	GLOBAL _zx_visit_wc_pix_callee
734   0000              	GLOBAL _zx_visit_wc_pix
735   0000              	GLOBAL _zx_visit_wc_attr_callee
736   0000              	GLOBAL _zx_visit_wc_attr
737   0000              	GLOBAL _zx_scroll_wc_up_pix_callee
738   0000              	GLOBAL _zx_scroll_wc_up_pix
739   0000              	GLOBAL _zx_scroll_wc_up_attr_callee
740   0000              	GLOBAL _zx_scroll_wc_up_attr
741   0000              	GLOBAL _zx_scroll_wc_up_callee
742   0000              	GLOBAL _zx_scroll_wc_up
743   0000              	GLOBAL _zx_scroll_up_pix_callee
744   0000              	GLOBAL _zx_scroll_up_pix
745   0000              	GLOBAL _zx_scroll_up_attr_callee
746   0000              	GLOBAL _zx_scroll_up_attr
747   0000              	GLOBAL _zx_scroll_up_callee
748   0000              	GLOBAL _zx_scroll_up
749   0000              	GLOBAL _zx_cls_wc_pix_callee
750   0000              	GLOBAL _zx_cls_wc_pix
751   0000              	GLOBAL _zx_cls_wc_attr_callee
752   0000              	GLOBAL _zx_cls_wc_attr
753   0000              	GLOBAL _zx_cls_wc_callee
754   0000              	GLOBAL _zx_cls_wc
755   0000              	GLOBAL _zx_cls_pix_fastcall
756   0000              	GLOBAL _zx_cls_pix
757   0000              	GLOBAL _zx_cls_attr_fastcall
758   0000              	GLOBAL _zx_cls_attr
759   0000              	GLOBAL _zx_cls_fastcall
760   0000              	GLOBAL _zx_cls
761   0000              	GLOBAL _zx_border_fastcall
762   0000              	GLOBAL _zx_border
763   0000              	GLOBAL _g_player_hit_right
764   0000              	GLOBAL _g_player_hit_left
765   0000              	GLOBAL _joynames
766   0000              	GLOBAL _initials
767   0000              	GLOBAL _score_osd_tile
768   0000              	GLOBAL _score_osd_update_time
769   0000              	GLOBAL _score_osd_col
770   0000              	GLOBAL _score_osd_lin
771   0000              	GLOBAL _phase_angry
772   0000              	GLOBAL _phase_curr
773   0000              	GLOBAL _phase_end
774   0000              	GLOBAL _phase_coins
775   0000              	GLOBAL _phase_pop
776   0000              	GLOBAL _phase_tot
777   0000              	GLOBAL _map_heigth
778   0000              	GLOBAL _map_width
779   0000              	GLOBAL _scr_curr
780   0000              	GLOBAL _scr_7
781   0000              	GLOBAL _scr_6
782   0000              	GLOBAL _scr_5
783   0000              	GLOBAL _scr_4
784   0000              	GLOBAL _scr_3
785   0000              	GLOBAL _scr_2
786   0000              	GLOBAL _scr_1
787   0000              	GLOBAL _scr_0
788   0000              	GLOBAL _scr_map
789   0000              	GLOBAL _sprite_speed_alt
790   0000              	GLOBAL _sprite_speed
791   0000              	GLOBAL _screen_ink
792   0000              	GLOBAL _screen_paper
793   0000              	GLOBAL _game_menu_sel
794   0000              	GLOBAL _game_type
795   0000              	GLOBAL _game_osd
796   0000              	GLOBAL _game_score_top
797   0000              	GLOBAL _player_lives
798   0000              	GLOBAL _game_over
799   0000              	GLOBAL _game_sound
800   0000              	GLOBAL _game_inmune
801   0000              	GLOBAL _game_god_mode
802   0000              	GLOBAL _game_start_phase
803   0000              	GLOBAL _game_two_player
804   0000              	GLOBAL _game_brick_tile
805   0000              	GLOBAL _sprite_curr_index
806   0000              	GLOBAL _spr_count
807   0000              	GLOBAL _osd_show_time
808   0000              	GLOBAL _osd_update_time
809   0000              	GLOBAL _frame_time
810   0000              	GLOBAL _entry_time
811   0000              	GLOBAL _curr_time
812   0000              	GLOBAL _s_state
813   0000              	GLOBAL _attrib_hl
814   0000              	GLOBAL _attrib
815   0000              	GLOBAL _zx_val_asm
816   0000              	GLOBAL _enemies
817   0000              	GLOBAL _tmp_ui
818   0000              	GLOBAL _tmp_sc
819   0000              	GLOBAL _tmp_uc
820   0000              	GLOBAL _tmp1
821   0000              	GLOBAL _tmp0
822   0000              	GLOBAL _tmp
823   0000              	GLOBAL _index1
824   0000              	GLOBAL _loop_count
825   0000              	GLOBAL _sprite_lin_inc_mul
826   0000              	GLOBAL _s_col1
827   0000              	GLOBAL _s_col0
828   0000              	GLOBAL _s_lin1
829   0000              	GLOBAL _s_lin0
830   0000              	GLOBAL _s_tile1
831   0000              	GLOBAL _s_tile0
832   0000              	GLOBAL _player_hit_count
833   0000              	GLOBAL _sprite
834   0000              	GLOBAL _game_gravity
835   0000              	GLOBAL _player_vel_y
836   0000              	GLOBAL _player_vel_x
837   0000              	GLOBAL _player_joy
838   0000              	GLOBAL _player_score
839   0000              	GLOBAL _last_time
840   0000              	GLOBAL _player_slide
841   0000              	GLOBAL _spr_timer
842   0000              	GLOBAL _jump_lin
843   0000              	GLOBAL _player_jump_c
844   0000              	GLOBAL _player_hit_col
845   0000              	GLOBAL _player_hit_lin
846   0000              	GLOBAL _colint
847   0000              	GLOBAL _col
848   0000              	GLOBAL _lin
849   0000              	GLOBAL _tile
850   0000              	GLOBAL _state_a
851   0000              	GLOBAL _state
852   0000              	GLOBAL _class
853   0000              	GLOBAL _tbuffer
854   0000              	GLOBAL _dirs
855   0000              	GLOBAL _k1
856   0000              	GLOBAL _joyfunc1
857   0000              	GLOBAL _btiles
858   0000              	GLOBAL _spec128
859   0000              	GLOBAL _ay_effect_20
860   0000              	GLOBAL _ay_effect_19
861   0000              	GLOBAL _ay_effect_18
862   0000              	GLOBAL _ay_effect_17
863   0000              	GLOBAL _ay_effect_16
864   0000              	GLOBAL _ay_effect_15
865   0000              	GLOBAL _ay_effect_14
866   0000              	GLOBAL _ay_effect_13
867   0000              	GLOBAL _ay_effect_12
868   0000              	GLOBAL _ay_effect_11
869   0000              	GLOBAL _ay_effect_10
870   0000              	GLOBAL _ay_effect_09
871   0000              	GLOBAL _ay_effect_08
872   0000              	GLOBAL _ay_effect_07
873   0000              	GLOBAL _ay_effect_06
874   0000              	GLOBAL _ay_effect_05
875   0000              	GLOBAL _ay_effect_04
876   0000              	GLOBAL _ay_effect_03
877   0000              	GLOBAL _ay_effect_02
878   0000              	GLOBAL _ay_effect_01
879   0000              	GLOBAL _pb_midi_phase_1
880   0000              	GLOBAL _pb_midi_title
881   0000              	GLOBAL _NIRVANAP_CHAR_TABLE
882   0000              	GLOBAL _NIRVANAP_WIDE_IMAGES
883   0000              	GLOBAL _NIRVANAP_TILE_IMAGES
884   0000              	GLOBAL _NIRVANAP_HOLE
885   0000              	GLOBAL _NIRVANAP_ISR_HOOK
886   0000              	GLOBAL _GLOBAL_ZX_PORT_7FFD
887   0000              	GLOBAL _GLOBAL_ZX_PORT_1FFD
888   0000              	GLOBAL _GLOBAL_ZX_PORT_FE
889   0000              	GLOBAL _control_method
890   0000              ;--------------------------------------------------------
891   0000              ; special function registers
892   0000              ;--------------------------------------------------------
893   0000              defc _IO_FE	=	0x00fe
894   0000              defc _IO_1FFD	=	0x1ffd
895   0000              defc _IO_7FFD	=	0x7ffd
896   0000              ;--------------------------------------------------------
897   0000              ; ram data
898   0000              ;--------------------------------------------------------
899   0000              	SECTION bss_compiler
900   0000              ;--------------------------------------------------------
901   0000              ; ram data
902   0000              ;--------------------------------------------------------
903   0000              
904   0000              IF 0
905   0000              
906   0000              ; .area _INITIALIZED removed by z88dk
907   0000              
908   0000              
909   0000              ENDIF
910   0000              
911   0000              ;--------------------------------------------------------
912   0000              ; absolute external ram data
913   0000              ;--------------------------------------------------------
914   0000              	SECTION IGNORE
915   0000              ;--------------------------------------------------------
916   0000              ; global & static initialisations
917   0000              ;--------------------------------------------------------
918   0000              	SECTION code_crt_init
919   0000              ;--------------------------------------------------------
920   0000              ; Home
921   0000              ;--------------------------------------------------------
922   0000              	SECTION IGNORE
923   0000              ;--------------------------------------------------------
924   0000              ; code
925   0000              ;--------------------------------------------------------
926   0000              	SECTION code_compiler
927   0000              ;	---------------------------------
928   0000              ; Function game_print_footer
929   0000              ; ---------------------------------
930   0000              _game_print_footer:
931   0000  21 00 00    	ld	hl,___str_0
932   0003  E5          	push	hl
933   0004  21 16 01    	ld	hl,0x0116
934   0007  E5          	push	hl
935   0008  CD 00 00    	call	_zx_print_str
936   000B  21 00 00    	ld	hl,___str_0
937   000E  E5          	push	hl
938   000F  21 16 1E    	ld	hl,0x1e16
939   0012  E5          	push	hl
940   0013  CD 00 00    	call	_zx_print_str
941   0016  21 02 00    	ld	hl,___str_1
942   0019  E5          	push	hl
943   001A  21 17 01    	ld	hl,0x0117
944   001D  E5          	push	hl
945   001E  CD 00 00    	call	_zx_print_str
946   0021  21 02 00    	ld	hl,___str_1
947   0024  E5          	push	hl
948   0025  21 17 1E    	ld	hl,0x1e17
949   0028  E5          	push	hl
950   0029  CD 00 00    	call	_zx_print_str
951   002C  21 00 00    	ld	hl,_screen_ink
952   002F  36 02       	ld	(hl),0x02
953   0031  21 08 00    	ld	hl,___str_2
954   0034  E5          	push	hl
955   0035  21 16 01    	ld	hl,0x0116
956   0038  E5          	push	hl
957   0039  CD 00 00    	call	_zx_print_str
958   003C  21 00 00    	ld	hl,_screen_ink
959   003F  36 06       	ld	(hl),0x06
960   0041  21 0A 00    	ld	hl,___str_3
961   0044  E5          	push	hl
962   0045  21 17 01    	ld	hl,0x0117
963   0048  E5          	push	hl
964   0049  CD 00 00    	call	_zx_print_str
965   004C  CD 71 00    	call	_game_print_lives
966   004F  C9          	ret
967   0050              	SECTION rodata_compiler
968   0000              ___str_0:
969   0000  20          	DEFM " "
970   0001  00          	DEFB 0x00
971   0002              	SECTION rodata_compiler
972   0002              ___str_1:
973   0002  20 20 20 20 20 
                        	DEFM "     "
974   0007  00          	DEFB 0x00
975   0008              	SECTION rodata_compiler
976   0008              ___str_2:
977   0008  3C          	DEFM "<"
978   0009  00          	DEFB 0x00
979   000A              	SECTION rodata_compiler
980   000A              ___str_3:
981   000A  5C          	DEFB 0x5c
982   000B  00          	DEFB 0x00
983   000C              	SECTION code_compiler
984   0050              ;	---------------------------------
985   0050              ; Function game_phase_print_score_back
986   0050              ; ---------------------------------
987   0050              _game_phase_print_score_back:
988   0050  21 00 00    	ld	hl,_screen_ink
989   0053  36 02       	ld	(hl),0x02
990   0055  21 0C 00    	ld	hl,___str_4
991   0058  E5          	push	hl
992   0059  21 00 0B    	ld	hl,0x0b00
993   005C  E5          	push	hl
994   005D  CD 00 00    	call	_zx_print_str
995   0060  21 00 00    	ld	hl,_screen_ink
996   0063  36 01       	ld	(hl),0x01
997   0065  21 10 00    	ld	hl,___str_5
998   0068  E5          	push	hl
999   0069  21 00 01    	ld	hl,0x0100
1000  006C  E5          	push	hl
1001  006D  CD 00 00    	call	_zx_print_str
1002  0070  C9          	ret
1003  0071              	SECTION rodata_compiler
1004  000C              ___str_4:
1005  000C  24 25 7C    	DEFM "$%|"
1006  000F  00          	DEFB 0x00
1007  0010              	SECTION rodata_compiler
1008  0010              ___str_5:
1009  0010  5B 7C       	DEFM "[|"
1010  0012  00          	DEFB 0x00
1011  0013              	SECTION code_compiler
1012  0071              ;	---------------------------------
1013  0071              ; Function game_print_lives
1014  0071              ; ---------------------------------
1015  0071              _game_print_lives:
1016  0071  21 00 00    	ld	hl,_screen_ink
1017  0074  36 07       	ld	(hl),0x07
1018  0076  3A 00 00    	ld	a,(_player_lives)
1019  0079  C6 FF       	add	a,0xff
1020  007B  21 00 00    	ld	hl,_tmp
1021  007E  77          	ld	(hl),a
1022  007F  D6 FF       	sub	a,0xff
1023  0081  D0          	ret	NC
1024  0082  7E          	ld	a, (hl)
1025  0083  F5          	push	af
1026  0084  33          	inc	sp
1027  0085  21 17 03    	ld	hl,0x0317
1028  0088  E5          	push	hl
1029  0089  CD 00 00    	call	_zx_print_chr
1030  008C  C9          	ret
1031  008D              	SECTION code_compiler
1032  008D              ;	---------------------------------
1033  008D              ; Function game_tick
1034  008D              ; ---------------------------------
1035  008D              _game_tick:
1036  008D  21 00 00    	ld	hl,_curr_time
1037  0090  34          	inc	(hl)
1038  0091  C2 00 00    	jp	NZ,_zx_isr
1039  0094  23          	inc	hl
1040  0095  34          	inc	(hl)
1041  0096  C3 00 00    	jp  _zx_isr
1042  0099              	SECTION code_compiler
1043  0099              ;	---------------------------------
1044  0099              ; Function game_start_timer
1045  0099              ; ---------------------------------
1046  0099              _game_start_timer:
1047  0099  21 00 00    	ld	hl,_NIRVANAP_ISR_HOOK+0
1048  009C  36 CD       	ld	(hl),0xcd
1049  009E  23          	inc	hl
1050  009F  11 8D 00    	ld	de,_game_tick
1051  00A2  73          	ld	(hl), e
1052  00A3  23          	inc	hl
1053  00A4  72          	ld	(hl), d
1054  00A5  C9          	ret
1055  00A6              	SECTION code_compiler
1056  00A6              ;	---------------------------------
1057  00A6              ; Function game_phase_init
1058  00A6              ; ---------------------------------
1059  00A6              _game_phase_init:
1060  00A6  21 00 00    	ld	hl,0x0000
1061  00A9  22 00 00    	ld	(_loop_count),hl
1062  00AC  21 00 00    	ld	hl,_phase_end
1063  00AF  36 00       	ld	(hl),0x00
1064  00B1  21 00 00    	ld	hl,_phase_angry
1065  00B4  36 00       	ld	(hl),0x00
1066  00B6  21 00 00    	ld	hl,_phase_coins
1067  00B9  36 00       	ld	(hl),0x00
1068  00BB  21 00 00    	ld	hl,_phase_pop
1069  00BE  36 00       	ld	(hl),0x00
1070  00C0  21 00 00    	ld	hl,0x0000
1071  00C3  22 00 00    	ld	(_entry_time),hl
1072  00C6  21 00 00    	ld	hl,0
1073  00C9  22 00 00    	ld	(_curr_time),hl
1074  00CC  21 00 00    	ld	hl,0x0000
1075  00CF  22 00 00    	ld	(_frame_time),hl
1076  00D2  21 00 00    	ld	hl,_score_osd_col
1077  00D5  36 FF       	ld	(hl),0xff
1078  00D7  21 00 00    	ld	hl,_spr_count
1079  00DA  36 00       	ld	(hl),0x00
1080  00DC  CD 00 00    	call	_ay_reset
1081  00DF  CD 00 00    	call	_spr_draw_clear
1082  00E2  CD 00 00    	call	_spr_draw_background
1083  00E5  CD 0D 01    	call	_game_print_header
1084  00E8  CD 00 00    	call	_game_print_footer
1085  00EB  3A 00 00    	ld	a,(_player_lives)
1086  00EE  B7          	or	a, a
1087  00EF  28 0D       	jr	Z,l_game_phase_init_00102
1088  00F1  21 02 64    	ld	hl,0x6402
1089  00F4  E5          	push	hl
1090  00F5  21 07 80    	ld	hl,0x8007
1091  00F8  E5          	push	hl
1092  00F9  CD 00 00    	call	_player_init
1093  00FC  F1          	pop	af
1094  00FD  F1          	pop	af
1095  00FE              l_game_phase_init_00102:
1096  00FE  21 00 00    	ld	hl,_game_osd
1097  0101  36 01       	ld	(hl),0x01
1098  0103  2A 00 00    	ld	hl,(_curr_time)
1099  0106  22 00 00    	ld	(_osd_update_time),hl
1100  0109  22 00 00    	ld	(_osd_show_time),hl
1101  010C  C9          	ret
1102  010D              	SECTION code_compiler
1103  010D              ;	---------------------------------
1104  010D              ; Function game_print_header
1105  010D              ; ---------------------------------
1106  010D              _game_print_header:
1107  010D  CD 50 00    	call	_game_phase_print_score_back
1108  0110  21 00 00    	ld	hl,_screen_ink
1109  0113  36 07       	ld	(hl),0x07
1110  0115  C3 80 02    	jp  _game_print_score
1111  0118              	SECTION code_compiler
1112  0118              ;	---------------------------------
1113  0118              ; Function game_loop
1114  0118              ; ---------------------------------
1115  0118              _game_loop:
1116  0118  21 00 00    	ld	hl,_ay_effect_10
1117  011B  CD 00 00    	call	_ay_fx_play
1118  011E  CD 00 00    	call	_sound_coin
1119  0121  21 C8 00    	ld	hl,0x00c8
1120  0124  CD 00 00    	call	_z80_delay_ms_fastcall
1121  0127  CD 00 00    	call	_ay_reset
1122  012A  21 00 00    	ld	hl,_player_lives
1123  012D  36 04       	ld	(hl),0x04
1124  012F  21 00 00    	ld	hl,0x0000
1125  0132  22 00 00    	ld	(_player_score),hl
1126  0135  21 00 00    	ld	hl,_game_over
1127  0138  36 00       	ld	(hl),0x00
1128  013A  3A 00 00    	ld	a,(_game_start_phase)
1129  013D  32 00 00    	ld	(_phase_curr),a
1130  0140  CD A6 00    	call	_game_phase_init
1131  0143  21 00 00    	ld	hl,_sprite_lin_inc_mul
1132  0146  36 00       	ld	(hl),0x00
1133  0148  21 00 00    	ld	hl,_dirs
1134  014B  36 00       	ld	(hl),0x00
1135  014D  CD 32 03    	call	_game_joystick_set
1136  0150              l_game_loop_00112:
1137  0150  3A 00 00    	ld	a,(_game_over)
1138  0153  B7          	or	a, a
1139  0154  20 63       	jr	NZ,l_game_loop_00115
1140  0156  3A 00 00    	ld	a,(_loop_count)
1141  0159  E6 03       	and	a,0x03
1142  015B  20 03       	jr	NZ,l_game_loop_00102
1143  015D  CD D4 01    	call	_game_score_osd
1144  0160              l_game_loop_00102:
1145  0160  21 00 00    	ld	hl,_sprite
1146  0163  36 07       	ld	(hl),0x07
1147  0165  CD 00 00    	call	_player_turn
1148  0168  CD 00 00    	call	_enemy_turn
1149  016B  21 64 00    	ld	hl,0x0064
1150  016E  E5          	push	hl
1151  016F  2A 00 00    	ld	hl,(_frame_time)
1152  0172  E5          	push	hl
1153  0173  CD E1 03    	call	_game_check_time
1154  0176  F1          	pop	af
1155  0177  F1          	pop	af
1156  0178  7D          	ld	a, l
1157  0179  B7          	or	a, a
1158  017A  28 33       	jr	Z,l_game_loop_00111
1159  017C  2A 00 00    	ld	hl,(_curr_time)
1160  017F  22 00 00    	ld	(_frame_time),hl
1161  0182  3A 00 00    	ld	a,(_phase_end)
1162  0185  3D          	dec	a
1163  0186  20 27       	jr	NZ,l_game_loop_00111
1164  0188  CD 00 00    	call	_ay_is_playing
1165  018B  7D          	ld	a, l
1166  018C  D6 02       	sub	a,0x02
1167  018E  30 03       	jr	NC,l_game_loop_00104
1168  0190  CD 00 00    	call	_ay_reset
1169  0193              l_game_loop_00104:
1170  0193  21 00 00    	ld	hl,_phase_curr
1171  0196  34          	inc	(hl)
1172  0197  3E 1F       	ld	a,0x1f
1173  0199  96          	sub	a, (hl)
1174  019A  30 0A       	jr	NC,l_game_loop_00106
1175  019C  CD 00 00    	call	_game_end
1176  019F  21 00 00    	ld	hl,_game_over
1177  01A2  36 01       	ld	(hl),0x01
1178  01A4  18 09       	jr	l_game_loop_00111
1179  01A6              l_game_loop_00106:
1180  01A6  21 90 01    	ld	hl,0x0190
1181  01A9  CD 00 00    	call	_z80_delay_ms_fastcall
1182  01AC  CD A6 00    	call	_game_phase_init
1183  01AF              l_game_loop_00111:
1184  01AF  21 00 00    	ld	hl,_loop_count
1185  01B2  34          	inc	(hl)
1186  01B3  20 9B       	jr	NZ,l_game_loop_00112
1187  01B5  23          	inc	hl
1188  01B6  34          	inc	(hl)
1189  01B7  18 97       	jr	l_game_loop_00112
1190  01B9              l_game_loop_00115:
1191  01B9  C9          	ret
1192  01BA              	SECTION code_compiler
1193  01BA              ;	---------------------------------
1194  01BA              ; Function game_print_phase
1195  01BA              ; ---------------------------------
1196  01BA              _game_print_phase:
1197  01BA  21 13 00    	ld	hl,___str_6
1198  01BD  E5          	push	hl
1199  01BE  21 17 0B    	ld	hl,0x0b17
1200  01C1  E5          	push	hl
1201  01C2  CD 00 00    	call	_zx_print_str
1202  01C5  21 00 00    	ld	hl,_phase_curr
1203  01C8  46          	ld	b, (hl)
1204  01C9  04          	inc	b
1205  01CA  C5          	push	bc
1206  01CB  33          	inc	sp
1207  01CC  21 17 12    	ld	hl,0x1217
1208  01CF  E5          	push	hl
1209  01D0  CD 00 00    	call	_zx_print_chr
1210  01D3  C9          	ret
1211  01D4              	SECTION rodata_compiler
1212  0013              ___str_6:
1213  0013  50 48 41 53 45 
                        	DEFM "PHASE"
1214  0018  00          	DEFB 0x00
1215  0019              	SECTION code_compiler
1216  01D4              ;	---------------------------------
1217  01D4              ; Function game_score_osd
1218  01D4              ; ---------------------------------
1219  01D4              _game_score_osd:
1220  01D4  3A 00 00    	ld	a,(_score_osd_col)
1221  01D7  3C          	inc	a
1222  01D8  28 65       	jr	Z,l_game_score_osd_00108
1223  01DA  3A 00 00    	ld	a,(_score_osd_lin)
1224  01DD  C6 FE       	add	a,0xfe
1225  01DF  32 00 00    	ld	(_tmp),a
1226  01E2  2A FF FF    	ld	hl,(_score_osd_col - 1)
1227  01E5  6F          	ld	l,a
1228  01E6  E5          	push	hl
1229  01E7  CD 00 00    	call	_spr_calc_index
1230  01EA  F1          	pop	af
1231  01EB  22 00 00    	ld	(_index1),hl
1232  01EE  01 00 00    	ld	bc,_scr_map+0
1233  01F1  09          	add	hl,bc
1234  01F2  7E          	ld	a,(hl)
1235  01F3  B7          	or	a,a
1236  01F4  20 25       	jr	NZ,l_game_score_osd_00102
1237  01F6  ED 5B 00 00 	ld	de,(_index1)
1238  01FA  13          	inc	de
1239  01FB  69          	ld	l, c
1240  01FC  60          	ld	h, b
1241  01FD  19          	add	hl, de
1242  01FE  7E          	ld	a, (hl)
1243  01FF  B7          	or	a, a
1244  0200  20 19       	jr	NZ,l_game_score_osd_00102
1245  0202  76          	halt
1246  0203  21 00 00    	ld	hl,_score_osd_tile
1247  0206  46          	ld	b, (hl)
1248  0207  3A 00 00    	ld	a,(_score_osd_col)
1249  020A  F5          	push	af
1250  020B  33          	inc	sp
1251  020C  3A 00 00    	ld	a,(_score_osd_lin)
1252  020F  48          	ld	c,b
1253  0210  47          	ld	b,a
1254  0211  C5          	push	bc
1255  0212  CD 00 00    	call	_NIRVANAP_drawT_callee
1256  0215  3A 00 00    	ld	a,(_tmp)
1257  0218  32 00 00    	ld	(_score_osd_lin),a
1258  021B              l_game_score_osd_00102:
1259  021B  21 3C 00    	ld	hl,0x003c
1260  021E  E5          	push	hl
1261  021F  2A 00 00    	ld	hl,(_score_osd_update_time)
1262  0222  E5          	push	hl
1263  0223  CD E1 03    	call	_game_check_time
1264  0226  F1          	pop	af
1265  0227  F1          	pop	af
1266  0228  7D          	ld	a, l
1267  0229  B7          	or	a, a
1268  022A  C8          	ret	Z
1269  022B  3A 00 00    	ld	a,(_score_osd_col)
1270  022E  F5          	push	af
1271  022F  33          	inc	sp
1272  0230  3A 00 00    	ld	a,(_score_osd_lin)
1273  0233  57          	ld	d,a
1274  0234  1E 49       	ld	e,0x49
1275  0236  D5          	push	de
1276  0237  CD 00 00    	call	_NIRVANAP_fillT_callee
1277  023A  21 00 00    	ld	hl,_score_osd_col
1278  023D  36 FF       	ld	(hl),0xff
1279  023F              l_game_score_osd_00108:
1280  023F  C9          	ret
1281  0240              	SECTION code_compiler
1282  0240              ;	---------------------------------
1283  0240              ; Function game_check_maze
1284  0240              ; ---------------------------------
1285  0240              _game_check_maze:
1286  0240  01 00 00    	ld	bc,_scr_map
1287  0243  09          	add	hl,bc
1288  0244  7E          	ld	a, (hl)
1289  0245  D6 3C       	sub	a,0x3c
1290  0247  3E 00       	ld	a,0x00
1291  0249  17          	rla
1292  024A  EE 01       	xor	a,0x01
1293  024C  6F          	ld	l, a
1294  024D  C9          	ret
1295  024E              	SECTION code_compiler
1296  024E              ;	---------------------------------
1297  024E              ; Function game_check_maze_floor
1298  024E              ; ---------------------------------
1299  024E              _game_check_maze_floor:
1300  024E  01 00 00    	ld	bc,_scr_map
1301  0251  09          	add	hl,bc
1302  0252  7E          	ld	a, (hl)
1303  0253  D6 30       	sub	a,0x30
1304  0255  3E 00       	ld	a,0x00
1305  0257  17          	rla
1306  0258  EE 01       	xor	a,0x01
1307  025A  6F          	ld	l, a
1308  025B  C9          	ret
1309  025C              	SECTION code_compiler
1310  025C              ;	---------------------------------
1311  025C              ; Function game_enemy_add_get_index
1312  025C              ; ---------------------------------
1313  025C              _game_enemy_add_get_index:
1314  025C  4D          	ld	c, l
1315  025D  21 00 00    	ld	hl,_enemies
1316  0260  36 00       	ld	(hl),0x00
1317  0262              l_game_enemy_add_get_index_00104:
1318  0262  2A 00 00    	ld	hl,(_enemies)
1319  0265  26 00       	ld	h,0x00
1320  0267  11 00 00    	ld	de,_class
1321  026A  19          	add	hl,de
1322  026B  7E          	ld	a,(hl)
1323  026C  91          	sub	a,c
1324  026D  20 05       	jr	NZ,l_game_enemy_add_get_index_00105
1325  026F  2A 00 00    	ld	hl,(_enemies)
1326  0272  18 0B       	jr	l_game_enemy_add_get_index_00106
1327  0274              l_game_enemy_add_get_index_00105:
1328  0274  21 00 00    	ld	hl,_enemies
1329  0277  34          	inc	(hl)
1330  0278  3E 05       	ld	a,0x05
1331  027A  96          	sub	a, (hl)
1332  027B  30 E5       	jr	NC,l_game_enemy_add_get_index_00104
1333  027D  2E FF       	ld	l,0xff
1334  027F              l_game_enemy_add_get_index_00106:
1335  027F  C9          	ret
1336  0280              	SECTION code_compiler
1337  0280              ;	---------------------------------
1338  0280              ; Function game_print_score
1339  0280              ; ---------------------------------
1340  0280              _game_print_score:
1341  0280  21 00 00    	ld	hl,_screen_ink
1342  0283  36 07       	ld	(hl),0x07
1343  0285  21 00 00    	ld	hl,_screen_paper
1344  0288  36 00       	ld	(hl),0x00
1345  028A  2A 00 00    	ld	hl,(_player_score)
1346  028D  E5          	push	hl
1347  028E  21 00 03    	ld	hl,0x0300
1348  0291  E5          	push	hl
1349  0292  CD 00 00    	call	_zx_print_int
1350  0295  2A 00 00    	ld	hl,(_game_score_top)
1351  0298  E5          	push	hl
1352  0299  21 00 0E    	ld	hl,0x0e00
1353  029C  E5          	push	hl
1354  029D  CD 00 00    	call	_zx_print_int
1355  02A0  C9          	ret
1356  02A1              	SECTION code_compiler
1357  02A1              ;	---------------------------------
1358  02A1              ; Function game_paint_attrib
1359  02A1              ; ---------------------------------
1360  02A1              _game_paint_attrib:
1361  02A1  7D          	ld	a,l
1362  02A2  32 00 00    	ld	(_tmp0),a
1363  02A5              l_game_paint_attrib_00103:
1364  02A5  3E 13       	ld	a,0x13
1365  02A7  21 00 00    	ld	hl,_tmp0
1366  02AA  96          	sub	a, (hl)
1367  02AB  D8          	ret	C
1368  02AC  7E          	ld	a, (hl)
1369  02AD  07          	rlca
1370  02AE  07          	rlca
1371  02AF  07          	rlca
1372  02B0  E6 F8       	and	a,0xf8
1373  02B2  C6 08       	add	a,0x08
1374  02B4  F5          	push	af
1375  02B5  33          	inc	sp
1376  02B6  21 01 1F    	ld	hl,0x1f01
1377  02B9  E5          	push	hl
1378  02BA  CD C5 02    	call	_game_paint_attrib_lin
1379  02BD  F1          	pop	af
1380  02BE  33          	inc	sp
1381  02BF  21 00 00    	ld	hl,_tmp0
1382  02C2  34          	inc	(hl)
1383  02C3  18 E0       	jr	l_game_paint_attrib_00103
1384  02C5              	SECTION code_compiler
1385  02C5              ;	---------------------------------
1386  02C5              ; Function game_paint_attrib_lin
1387  02C5              ; ---------------------------------
1388  02C5              _game_paint_attrib_lin:
1389  02C5  CD 00 00    	call	___sdcc_enter_ix
1390  02C8  DD 7E 04    	ld	a,(ix+4)
1391  02CB  32 00 00    	ld	(_tmp_uc),a
1392  02CE              l_game_paint_attrib_lin_00103:
1393  02CE  21 00 00    	ld	hl,_tmp_uc
1394  02D1  7E          	ld	a, (hl)
1395  02D2  DD 96 05    	sub	a,(ix+5)
1396  02D5  30 12       	jr	NC,l_game_paint_attrib_lin_00105
1397  02D7  66          	ld	h,(hl)
1398  02D8  DD 6E 06    	ld	l,(ix+6)
1399  02DB  E5          	push	hl
1400  02DC  21 00 00    	ld	hl,_attrib
1401  02DF  E5          	push	hl
1402  02E0  CD 00 00    	call	_NIRVANAP_paintC_callee
1403  02E3  21 00 00    	ld	hl,_tmp_uc
1404  02E6  34          	inc	(hl)
1405  02E7  18 E5       	jr	l_game_paint_attrib_lin_00103
1406  02E9              l_game_paint_attrib_lin_00105:
1407  02E9  DD E1       	pop	ix
1408  02EB  C9          	ret
1409  02EC              	SECTION code_compiler
1410  02EC              ;	---------------------------------
1411  02EC              ; Function game_paint_attrib_lin_h
1412  02EC              ; ---------------------------------
1413  02EC              _game_paint_attrib_lin_h:
1414  02EC  CD 00 00    	call	___sdcc_enter_ix
1415  02EF  DD 7E 04    	ld	a,(ix+4)
1416  02F2  32 00 00    	ld	(_tmp_uc),a
1417  02F5              l_game_paint_attrib_lin_h_00103:
1418  02F5  21 00 00    	ld	hl,_tmp_uc
1419  02F8  7E          	ld	a, (hl)
1420  02F9  DD 96 05    	sub	a,(ix+5)
1421  02FC  30 12       	jr	NC,l_game_paint_attrib_lin_h_00105
1422  02FE  66          	ld	h,(hl)
1423  02FF  DD 6E 06    	ld	l,(ix+6)
1424  0302  E5          	push	hl
1425  0303  21 00 00    	ld	hl,_attrib_hl
1426  0306  E5          	push	hl
1427  0307  CD 00 00    	call	_NIRVANAP_paintC_callee
1428  030A  21 00 00    	ld	hl,_tmp_uc
1429  030D  34          	inc	(hl)
1430  030E  18 E5       	jr	l_game_paint_attrib_lin_h_00103
1431  0310              l_game_paint_attrib_lin_h_00105:
1432  0310  DD E1       	pop	ix
1433  0312  C9          	ret
1434  0313              	SECTION code_compiler
1435  0313              ;	---------------------------------
1436  0313              ; Function game_joystick_change
1437  0313              ; ---------------------------------
1438  0313              _game_joystick_change:
1439  0313  21 00 00    	ld	hl,_player_joy
1440  0316  34          	inc	(hl)
1441  0317  20 02       	jr	NZ,l_game_joystick_change_00109
1442  0319  23          	inc	hl
1443  031A  34          	inc	(hl)
1444  031B              l_game_joystick_change_00109:
1445  031B  21 00 00    	ld	hl,_player_joy
1446  031E  7E          	ld	a, (hl)
1447  031F  D6 07       	sub	a,0x07
1448  0321  23          	inc	hl
1449  0322  B6          	or	a, (hl)
1450  0323  C0          	ret	NZ
1451  0324  21 00 00    	ld	hl,0x0000
1452  0327  22 00 00    	ld	(_player_joy),hl
1453  032A  C9          	ret
1454  032B              	SECTION code_compiler
1455  032B              ;	---------------------------------
1456  032B              ; Function game_joystick_set_menu
1457  032B              ; ---------------------------------
1458  032B              _game_joystick_set_menu:
1459  032B  21 00 00    	ld	hl,_in_stick_sinclair1
1460  032E  22 00 00    	ld	(_joyfunc1),hl
1461  0331  C9          	ret
1462  0332              	SECTION code_compiler
1463  0332              ;	---------------------------------
1464  0332              ; Function game_joystick_set
1465  0332              ; ---------------------------------
1466  0332              _game_joystick_set:
1467  0332  2A 00 00    	ld	hl,(_player_joy)
1468  0335  29          	add	hl,hl
1469  0336  4D          	ld	c,l
1470  0337  44          	ld	b,h
1471  0338  21 00 00    	ld	hl,_control_method
1472  033B  09          	add	hl,bc
1473  033C  11 00 00    	ld	de,_joyfunc1
1474  033F  ED A0       	ldi
1475  0341  7E          	ld	a,(hl)
1476  0342  12          	ld	(de),a
1477  0343  C9          	ret
1478  0344              	SECTION code_compiler
1479  0344              ;	---------------------------------
1480  0344              ; Function game_end
1481  0344              ; ---------------------------------
1482  0344              	defc _game_end	=	_spr_draw_clear
1483  0344              	SECTION code_compiler
1484  0344              ;	---------------------------------
1485  0344              ; Function game_rotate_attrib
1486  0344              ; ---------------------------------
1487  0344              _game_rotate_attrib:
1488  0344  01 03 00    	ld	bc,_attrib_hl + 3
1489  0347  0A          	ld	a, (bc)
1490  0348  32 00 00    	ld	(_tmp_uc),a
1491  034B  11 02 00    	ld	de,_attrib_hl + 2
1492  034E  1A          	ld	a, (de)
1493  034F  02          	ld	(bc), a
1494  0350  01 01 00    	ld	bc,_attrib_hl + 1
1495  0353  0A          	ld	a, (bc)
1496  0354  12          	ld	(de), a
1497  0355  3A 00 00    	ld	a,(_attrib_hl)
1498  0358  02          	ld	(bc), a
1499  0359  3A 00 00    	ld	a,(_tmp_uc)
1500  035C  32 00 00    	ld	(_attrib_hl),a
1501  035F  C9          	ret
1502  0360              	SECTION code_compiler
1503  0360              ;	---------------------------------
1504  0360              ; Function game_colour_message
1505  0360              ; ---------------------------------
1506  0360              _game_colour_message:
1507  0360  CD 00 00    	call	___sdcc_enter_ix
1508  0363  3B          	dec	sp
1509  0364  21 00 00    	ld	hl,_tmp
1510  0367  36 01       	ld	(hl),0x01
1511  0369  2A 00 00    	ld	hl,(_curr_time)
1512  036C  22 00 00    	ld	(_frame_time),hl
1513  036F  2A 00 00    	ld	hl,(_curr_time)
1514  0372  22 00 00    	ld	(_entry_time),hl
1515  0375  DD 7E 04    	ld	a,(ix+4)
1516  0378  07          	rlca
1517  0379  07          	rlca
1518  037A  07          	rlca
1519  037B  E6 F8       	and	a,0xf8
1520  037D  C6 08       	add	a,0x08
1521  037F  DD 77 FF    	ld	(ix-1),a
1522  0382              l_game_colour_message_00107:
1523  0382  3A 00 00    	ld	a,(_tmp)
1524  0385  B7          	or	a, a
1525  0386  28 55       	jr	Z,l_game_colour_message_00110
1526  0388  DD 6E 07    	ld	l,(ix+7)
1527  038B  DD 66 08    	ld	h,(ix+8)
1528  038E  E5          	push	hl
1529  038F  2A 00 00    	ld	hl,(_entry_time)
1530  0392  E5          	push	hl
1531  0393  CD E1 03    	call	_game_check_time
1532  0396  F1          	pop	af
1533  0397  F1          	pop	af
1534  0398  7D          	ld	a, l
1535  0399  B7          	or	a, a
1536  039A  20 41       	jr	NZ,l_game_colour_message_00110
1537  039C  21 05 00    	ld	hl,0x0005
1538  039F  E5          	push	hl
1539  03A0  2A 00 00    	ld	hl,(_frame_time)
1540  03A3  E5          	push	hl
1541  03A4  CD E1 03    	call	_game_check_time
1542  03A7  F1          	pop	af
1543  03A8  F1          	pop	af
1544  03A9  7D          	ld	a, l
1545  03AA  B7          	or	a, a
1546  03AB  28 1A       	jr	Z,l_game_colour_message_00103
1547  03AD  2A 00 00    	ld	hl,(_curr_time)
1548  03B0  22 00 00    	ld	(_frame_time),hl
1549  03B3  DD 66 FF    	ld	h,(ix-1)
1550  03B6  DD 6E 06    	ld	l,(ix+6)
1551  03B9  E5          	push	hl
1552  03BA  DD 7E 05    	ld	a,(ix+5)
1553  03BD  F5          	push	af
1554  03BE  33          	inc	sp
1555  03BF  CD EC 02    	call	_game_paint_attrib_lin_h
1556  03C2  F1          	pop	af
1557  03C3  33          	inc	sp
1558  03C4  CD 44 03    	call	_game_rotate_attrib
1559  03C7              l_game_colour_message_00103:
1560  03C7  21 00 00    	ld	hl,_k1
1561  03CA  E5          	push	hl
1562  03CB  2A 00 00    	ld	hl,(_joyfunc1)
1563  03CE  CD 00 00    	call	___sdcc_call_hl
1564  03D1  F1          	pop	af
1565  03D2  7C          	ld	a,h
1566  03D3  B5          	or	a,l
1567  03D4  28 AC       	jr	Z,l_game_colour_message_00107
1568  03D6  21 00 00    	ld	hl,_tmp
1569  03D9  36 00       	ld	(hl),0x00
1570  03DB  18 EA       	jr	l_game_colour_message_00103
1571  03DD              l_game_colour_message_00110:
1572  03DD  33          	inc	sp
1573  03DE  DD E1       	pop	ix
1574  03E0  C9          	ret
1575  03E1              	SECTION code_compiler
1576  03E1              ;	---------------------------------
1577  03E1              ; Function game_check_time
1578  03E1              ; ---------------------------------
1579  03E1              _game_check_time:
1580  03E1  CD 00 00    	call	___sdcc_enter_ix
1581  03E4  2A 00 00    	ld	hl,(_curr_time)
1582  03E7  7D          	ld	a,l
1583  03E8  DD 96 04    	sub	a,(ix+4)
1584  03EB  4F          	ld	c,a
1585  03EC  7C          	ld	a,h
1586  03ED  DD 9E 05    	sbc	a,(ix+5)
1587  03F0  47          	ld	b, a
1588  03F1  DD 7E 06    	ld	a,(ix+6)
1589  03F4  91          	sub	a, c
1590  03F5  DD 7E 07    	ld	a,(ix+7)
1591  03F8  98          	sbc	a, b
1592  03F9  30 04       	jr	NC,l_game_check_time_00102
1593  03FB  2E 01       	ld	l,0x01
1594  03FD  18 02       	jr	l_game_check_time_00104
1595  03FF              l_game_check_time_00102:
1596  03FF  2E 00       	ld	l,0x00
1597  0401              l_game_check_time_00104:
1598  0401  DD E1       	pop	ix
1599  0403  C9          	ret
1600  0404              	SECTION IGNORE
1601  0000              
